
Vending2.elf:     file format elf32-littlearm

Sections:
Idx Name          Size      VMA       LMA       File off  Algn
  0 .isr_vector   0000010c  08000000  08000000  00010000  2**0
                  CONTENTS, ALLOC, LOAD, READONLY, DATA
  1 .text         0000939c  0800010c  0800010c  0001010c  2**2
                  CONTENTS, ALLOC, LOAD, READONLY, CODE
  2 .rodata       000004bc  080094a8  080094a8  000194a8  2**2
                  CONTENTS, ALLOC, LOAD, READONLY, DATA
  3 .ARM.extab    00000000  08009964  08009964  000201e8  2**0
                  CONTENTS
  4 .ARM          00000000  08009964  08009964  000201e8  2**0
                  CONTENTS
  5 .preinit_array 00000000  08009964  08009964  000201e8  2**0
                  CONTENTS, ALLOC, LOAD, DATA
  6 .init_array   00000008  08009964  08009964  00019964  2**2
                  CONTENTS, ALLOC, LOAD, DATA
  7 .fini_array   00000008  0800996c  0800996c  0001996c  2**2
                  CONTENTS, ALLOC, LOAD, DATA
  8 .data         000001e8  20000000  08009974  00020000  2**2
                  CONTENTS, ALLOC, LOAD, DATA
  9 .bss          00000c0c  200001e8  08009b5c  000201e8  2**2
                  ALLOC
 10 ._user_heap_stack 00000604  20000df4  08009b5c  00020df4  2**0
                  ALLOC
 11 .ARM.attributes 00000029  00000000  00000000  000201e8  2**0
                  CONTENTS, READONLY
 12 .comment      00000053  00000000  00000000  00020211  2**0
                  CONTENTS, READONLY
 13 .debug_frame  0000188c  00000000  00000000  00020264  2**2
                  CONTENTS, READONLY, DEBUGGING, OCTETS

Disassembly of section .text:

0800010c <__do_global_dtors_aux>:
 800010c:	b510      	push	{r4, lr}
 800010e:	4c05      	ldr	r4, [pc, #20]	; (8000124 <__do_global_dtors_aux+0x18>)
 8000110:	7823      	ldrb	r3, [r4, #0]
 8000112:	b933      	cbnz	r3, 8000122 <__do_global_dtors_aux+0x16>
 8000114:	4b04      	ldr	r3, [pc, #16]	; (8000128 <__do_global_dtors_aux+0x1c>)
 8000116:	b113      	cbz	r3, 800011e <__do_global_dtors_aux+0x12>
 8000118:	4804      	ldr	r0, [pc, #16]	; (800012c <__do_global_dtors_aux+0x20>)
 800011a:	f3af 8000 	nop.w
 800011e:	2301      	movs	r3, #1
 8000120:	7023      	strb	r3, [r4, #0]
 8000122:	bd10      	pop	{r4, pc}
 8000124:	200001e8 	.word	0x200001e8
 8000128:	00000000 	.word	0x00000000
 800012c:	08009490 	.word	0x08009490

08000130 <frame_dummy>:
 8000130:	b508      	push	{r3, lr}
 8000132:	4b03      	ldr	r3, [pc, #12]	; (8000140 <frame_dummy+0x10>)
 8000134:	b11b      	cbz	r3, 800013e <frame_dummy+0xe>
 8000136:	4903      	ldr	r1, [pc, #12]	; (8000144 <frame_dummy+0x14>)
 8000138:	4803      	ldr	r0, [pc, #12]	; (8000148 <frame_dummy+0x18>)
 800013a:	f3af 8000 	nop.w
 800013e:	bd08      	pop	{r3, pc}
 8000140:	00000000 	.word	0x00000000
 8000144:	200001ec 	.word	0x200001ec
 8000148:	08009490 	.word	0x08009490

0800014c <strlen>:
 800014c:	4603      	mov	r3, r0
 800014e:	f813 2b01 	ldrb.w	r2, [r3], #1
 8000152:	2a00      	cmp	r2, #0
 8000154:	d1fb      	bne.n	800014e <strlen+0x2>
 8000156:	1a18      	subs	r0, r3, r0
 8000158:	3801      	subs	r0, #1
 800015a:	4770      	bx	lr

0800015c <_Z41__static_initialization_and_destruction_0ii>:
 800015c:	b508      	push	{r3, lr}
 800015e:	2801      	cmp	r0, #1
 8000160:	d005      	beq.n	800016e <_Z41__static_initialization_and_destruction_0ii+0x12>
 8000162:	b918      	cbnz	r0, 800016c <_Z41__static_initialization_and_destruction_0ii+0x10>
 8000164:	f64f 73ff 	movw	r3, #65535	; 0xffff
 8000168:	4299      	cmp	r1, r3
 800016a:	d011      	beq.n	8000190 <_Z41__static_initialization_and_destruction_0ii+0x34>
 800016c:	bd08      	pop	{r3, pc}
 800016e:	f64f 73ff 	movw	r3, #65535	; 0xffff
 8000172:	4299      	cmp	r1, r3
 8000174:	d1f5      	bne.n	8000162 <_Z41__static_initialization_and_destruction_0ii+0x6>
 8000176:	4b0a      	ldr	r3, [pc, #40]	; (80001a0 <_Z41__static_initialization_and_destruction_0ii+0x44>)
 8000178:	f103 0208 	add.w	r2, r3, #8
 800017c:	601a      	str	r2, [r3, #0]
 800017e:	2200      	movs	r2, #0
 8000180:	605a      	str	r2, [r3, #4]
 8000182:	721a      	strb	r2, [r3, #8]
 8000184:	4b07      	ldr	r3, [pc, #28]	; (80001a4 <_Z41__static_initialization_and_destruction_0ii+0x48>)
 8000186:	881b      	ldrh	r3, [r3, #0]
 8000188:	085b      	lsrs	r3, r3, #1
 800018a:	4a07      	ldr	r2, [pc, #28]	; (80001a8 <_Z41__static_initialization_and_destruction_0ii+0x4c>)
 800018c:	8013      	strh	r3, [r2, #0]
 800018e:	e7e8      	b.n	8000162 <_Z41__static_initialization_and_destruction_0ii+0x6>
 8000190:	4b03      	ldr	r3, [pc, #12]	; (80001a0 <_Z41__static_initialization_and_destruction_0ii+0x44>)
 8000192:	f853 0b08 	ldr.w	r0, [r3], #8
 8000196:	4298      	cmp	r0, r3
 8000198:	d0e8      	beq.n	800016c <_Z41__static_initialization_and_destruction_0ii+0x10>
 800019a:	f008 fd91 	bl	8008cc0 <_ZdlPv>
 800019e:	e7e5      	b.n	800016c <_Z41__static_initialization_and_destruction_0ii+0x10>
 80001a0:	20000204 	.word	0x20000204
 80001a4:	20000004 	.word	0x20000004
 80001a8:	2000024a 	.word	0x2000024a

080001ac <_Z9StopMotorP12GPIO_TypeDeftS0_t>:
 80001ac:	b538      	push	{r3, r4, r5, lr}
 80001ae:	4614      	mov	r4, r2
 80001b0:	461d      	mov	r5, r3
 80001b2:	2201      	movs	r2, #1
 80001b4:	f002 fdc1 	bl	8002d3a <HAL_GPIO_WritePin>
 80001b8:	2201      	movs	r2, #1
 80001ba:	4629      	mov	r1, r5
 80001bc:	4620      	mov	r0, r4
 80001be:	f002 fdbc 	bl	8002d3a <HAL_GPIO_WritePin>
 80001c2:	bd38      	pop	{r3, r4, r5, pc}

080001c4 <_Z8PortReadP17I2C_HandleTypeDefhPh>:
 80001c4:	b570      	push	{r4, r5, r6, lr}
 80001c6:	b082      	sub	sp, #8
 80001c8:	4605      	mov	r5, r0
 80001ca:	4616      	mov	r6, r2
 80001cc:	460c      	mov	r4, r1
 80001ce:	2364      	movs	r3, #100	; 0x64
 80001d0:	2201      	movs	r2, #1
 80001d2:	f003 fb53 	bl	800387c <HAL_I2C_IsDeviceReady>
 80001d6:	b108      	cbz	r0, 80001dc <_Z8PortReadP17I2C_HandleTypeDefhPh+0x18>
 80001d8:	b002      	add	sp, #8
 80001da:	bd70      	pop	{r4, r5, r6, pc}
 80001dc:	2364      	movs	r3, #100	; 0x64
 80001de:	9300      	str	r3, [sp, #0]
 80001e0:	2301      	movs	r3, #1
 80001e2:	4632      	mov	r2, r6
 80001e4:	4621      	mov	r1, r4
 80001e6:	4628      	mov	r0, r5
 80001e8:	f003 f9a8 	bl	800353c <HAL_I2C_Master_Receive>
 80001ec:	e7f4      	b.n	80001d8 <_Z8PortReadP17I2C_HandleTypeDefhPh+0x14>
	...

080001f0 <_Z7ArreyRxNSt7__cxx1112basic_stringIcSt11char_traitsIcESaIcEEE>:
 80001f0:	b510      	push	{r4, lr}
 80001f2:	4604      	mov	r4, r0
 80001f4:	2200      	movs	r2, #0
 80001f6:	2129      	movs	r1, #41	; 0x29
 80001f8:	f008 fef1 	bl	8008fde <_ZNKSt7__cxx1112basic_stringIcSt11char_traitsIcESaIcEE4findEcj>
 80001fc:	f1b0 3fff 	cmp.w	r0, #4294967295
 8000200:	d008      	beq.n	8000214 <_Z7ArreyRxNSt7__cxx1112basic_stringIcSt11char_traitsIcESaIcEEE+0x24>
 8000202:	6862      	ldr	r2, [r4, #4]
 8000204:	6821      	ldr	r1, [r4, #0]
 8000206:	4808      	ldr	r0, [pc, #32]	; (8000228 <_Z7ArreyRxNSt7__cxx1112basic_stringIcSt11char_traitsIcESaIcEEE+0x38>)
 8000208:	f008 fe98 	bl	8008f3c <_ZNSt7__cxx1112basic_stringIcSt11char_traitsIcESaIcEE9_M_appendEPKcj>
 800020c:	4b07      	ldr	r3, [pc, #28]	; (800022c <_Z7ArreyRxNSt7__cxx1112basic_stringIcSt11char_traitsIcESaIcEEE+0x3c>)
 800020e:	2201      	movs	r2, #1
 8000210:	701a      	strb	r2, [r3, #0]
 8000212:	bd10      	pop	{r4, pc}
 8000214:	6862      	ldr	r2, [r4, #4]
 8000216:	6821      	ldr	r1, [r4, #0]
 8000218:	4803      	ldr	r0, [pc, #12]	; (8000228 <_Z7ArreyRxNSt7__cxx1112basic_stringIcSt11char_traitsIcESaIcEEE+0x38>)
 800021a:	f008 fe8f 	bl	8008f3c <_ZNSt7__cxx1112basic_stringIcSt11char_traitsIcESaIcEE9_M_appendEPKcj>
 800021e:	4b03      	ldr	r3, [pc, #12]	; (800022c <_Z7ArreyRxNSt7__cxx1112basic_stringIcSt11char_traitsIcESaIcEEE+0x3c>)
 8000220:	2200      	movs	r2, #0
 8000222:	701a      	strb	r2, [r3, #0]
 8000224:	e7f5      	b.n	8000212 <_Z7ArreyRxNSt7__cxx1112basic_stringIcSt11char_traitsIcESaIcEEE+0x22>
 8000226:	bf00      	nop
 8000228:	20000204 	.word	0x20000204
 800022c:	20000233 	.word	0x20000233

08000230 <_Z7Servicev>:
 8000230:	b538      	push	{r3, r4, r5, lr}
 8000232:	4d19      	ldr	r5, [pc, #100]	; (8000298 <_Z7Servicev+0x68>)
 8000234:	4a19      	ldr	r2, [pc, #100]	; (800029c <_Z7Servicev+0x6c>)
 8000236:	4b1a      	ldr	r3, [pc, #104]	; (80002a0 <_Z7Servicev+0x70>)
 8000238:	7819      	ldrb	r1, [r3, #0]
 800023a:	4628      	mov	r0, r5
 800023c:	f7ff ffc2 	bl	80001c4 <_Z8PortReadP17I2C_HandleTypeDefhPh>
 8000240:	2005      	movs	r0, #5
 8000242:	f001 ff3f 	bl	80020c4 <HAL_Delay>
 8000246:	4c17      	ldr	r4, [pc, #92]	; (80002a4 <_Z7Servicev+0x74>)
 8000248:	4622      	mov	r2, r4
 800024a:	4b17      	ldr	r3, [pc, #92]	; (80002a8 <_Z7Servicev+0x78>)
 800024c:	7819      	ldrb	r1, [r3, #0]
 800024e:	4628      	mov	r0, r5
 8000250:	f7ff ffb8 	bl	80001c4 <_Z8PortReadP17I2C_HandleTypeDefhPh>
 8000254:	7823      	ldrb	r3, [r4, #0]
 8000256:	f013 0f02 	tst.w	r3, #2
 800025a:	d114      	bne.n	8000286 <_Z7Servicev+0x56>
 800025c:	4b13      	ldr	r3, [pc, #76]	; (80002ac <_Z7Servicev+0x7c>)
 800025e:	f44f 62fa 	mov.w	r2, #2000	; 0x7d0
 8000262:	62da      	str	r2, [r3, #44]	; 0x2c
 8000264:	f44f 727a 	mov.w	r2, #1000	; 0x3e8
 8000268:	635a      	str	r2, [r3, #52]	; 0x34
 800026a:	4c11      	ldr	r4, [pc, #68]	; (80002b0 <_Z7Servicev+0x80>)
 800026c:	2201      	movs	r2, #1
 800026e:	f44f 4180 	mov.w	r1, #16384	; 0x4000
 8000272:	4620      	mov	r0, r4
 8000274:	f002 fd61 	bl	8002d3a <HAL_GPIO_WritePin>
 8000278:	2201      	movs	r2, #1
 800027a:	f44f 5180 	mov.w	r1, #4096	; 0x1000
 800027e:	4620      	mov	r0, r4
 8000280:	f002 fd5b 	bl	8002d3a <HAL_GPIO_WritePin>
 8000284:	bd38      	pop	{r3, r4, r5, pc}
 8000286:	2200      	movs	r2, #0
 8000288:	4b08      	ldr	r3, [pc, #32]	; (80002ac <_Z7Servicev+0x7c>)
 800028a:	635a      	str	r2, [r3, #52]	; 0x34
 800028c:	f44f 5180 	mov.w	r1, #4096	; 0x1000
 8000290:	4807      	ldr	r0, [pc, #28]	; (80002b0 <_Z7Servicev+0x80>)
 8000292:	f002 fd52 	bl	8002d3a <HAL_GPIO_WritePin>
 8000296:	e7f5      	b.n	8000284 <_Z7Servicev+0x54>
 8000298:	20000308 	.word	0x20000308
 800029c:	20000002 	.word	0x20000002
 80002a0:	20000001 	.word	0x20000001
 80002a4:	20000003 	.word	0x20000003
 80002a8:	20000000 	.word	0x20000000
 80002ac:	40012c00 	.word	0x40012c00
 80002b0:	40010c00 	.word	0x40010c00

080002b4 <_Z7InitDevv>:
 80002b4:	b510      	push	{r4, lr}
 80002b6:	4c2b      	ldr	r4, [pc, #172]	; (8000364 <_Z7InitDevv+0xb0>)
 80002b8:	2201      	movs	r2, #1
 80002ba:	2110      	movs	r1, #16
 80002bc:	4620      	mov	r0, r4
 80002be:	f002 fd3c 	bl	8002d3a <HAL_GPIO_WritePin>
 80002c2:	2201      	movs	r2, #1
 80002c4:	2120      	movs	r1, #32
 80002c6:	4620      	mov	r0, r4
 80002c8:	f002 fd37 	bl	8002d3a <HAL_GPIO_WritePin>
 80002cc:	2201      	movs	r2, #1
 80002ce:	2140      	movs	r1, #64	; 0x40
 80002d0:	4620      	mov	r0, r4
 80002d2:	f002 fd32 	bl	8002d3a <HAL_GPIO_WritePin>
 80002d6:	2201      	movs	r2, #1
 80002d8:	2180      	movs	r1, #128	; 0x80
 80002da:	4620      	mov	r0, r4
 80002dc:	f002 fd2d 	bl	8002d3a <HAL_GPIO_WritePin>
 80002e0:	2201      	movs	r2, #1
 80002e2:	f44f 6180 	mov.w	r1, #1024	; 0x400
 80002e6:	4620      	mov	r0, r4
 80002e8:	f002 fd27 	bl	8002d3a <HAL_GPIO_WritePin>
 80002ec:	2201      	movs	r2, #1
 80002ee:	f44f 7100 	mov.w	r1, #512	; 0x200
 80002f2:	4620      	mov	r0, r4
 80002f4:	f002 fd21 	bl	8002d3a <HAL_GPIO_WritePin>
 80002f8:	2201      	movs	r2, #1
 80002fa:	f44f 7180 	mov.w	r1, #256	; 0x100
 80002fe:	4620      	mov	r0, r4
 8000300:	f002 fd1b 	bl	8002d3a <HAL_GPIO_WritePin>
 8000304:	2201      	movs	r2, #1
 8000306:	f44f 4100 	mov.w	r1, #32768	; 0x8000
 800030a:	4620      	mov	r0, r4
 800030c:	f002 fd15 	bl	8002d3a <HAL_GPIO_WritePin>
 8000310:	f504 6480 	add.w	r4, r4, #1024	; 0x400
 8000314:	2201      	movs	r2, #1
 8000316:	f44f 6180 	mov.w	r1, #1024	; 0x400
 800031a:	4620      	mov	r0, r4
 800031c:	f002 fd0d 	bl	8002d3a <HAL_GPIO_WritePin>
 8000320:	2201      	movs	r2, #1
 8000322:	f44f 6100 	mov.w	r1, #2048	; 0x800
 8000326:	4620      	mov	r0, r4
 8000328:	f002 fd07 	bl	8002d3a <HAL_GPIO_WritePin>
 800032c:	2201      	movs	r2, #1
 800032e:	f44f 5180 	mov.w	r1, #4096	; 0x1000
 8000332:	4620      	mov	r0, r4
 8000334:	f002 fd01 	bl	8002d3a <HAL_GPIO_WritePin>
 8000338:	2201      	movs	r2, #1
 800033a:	f44f 4180 	mov.w	r1, #16384	; 0x4000
 800033e:	4620      	mov	r0, r4
 8000340:	f002 fcfb 	bl	8002d3a <HAL_GPIO_WritePin>
 8000344:	2200      	movs	r2, #0
 8000346:	2180      	movs	r1, #128	; 0x80
 8000348:	4620      	mov	r0, r4
 800034a:	f002 fcf6 	bl	8002d3a <HAL_GPIO_WritePin>
 800034e:	f44f 707a 	mov.w	r0, #1000	; 0x3e8
 8000352:	f001 feb7 	bl	80020c4 <HAL_Delay>
 8000356:	2201      	movs	r2, #1
 8000358:	2180      	movs	r1, #128	; 0x80
 800035a:	4620      	mov	r0, r4
 800035c:	f002 fced 	bl	8002d3a <HAL_GPIO_WritePin>
 8000360:	bd10      	pop	{r4, pc}
 8000362:	bf00      	nop
 8000364:	40010800 	.word	0x40010800

08000368 <_Z3MsgNSt7__cxx1112basic_stringIcSt11char_traitsIcESaIcEEE>:
 8000368:	b598      	push	{r3, r4, r7, lr}
 800036a:	af00      	add	r7, sp, #0
 800036c:	6843      	ldr	r3, [r0, #4]
 800036e:	f1c3 537f 	rsb	r3, r3, #1069547520	; 0x3fc00000
 8000372:	f503 137f 	add.w	r3, r3, #4177920	; 0x3fc000
 8000376:	f503 537f 	add.w	r3, r3, #16320	; 0x3fc0
 800037a:	333f      	adds	r3, #63	; 0x3f
 800037c:	2b01      	cmp	r3, #1
 800037e:	d917      	bls.n	80003b0 <_Z3MsgNSt7__cxx1112basic_stringIcSt11char_traitsIcESaIcEEE+0x48>
 8000380:	4604      	mov	r4, r0
 8000382:	2202      	movs	r2, #2
 8000384:	490c      	ldr	r1, [pc, #48]	; (80003b8 <_Z3MsgNSt7__cxx1112basic_stringIcSt11char_traitsIcESaIcEEE+0x50>)
 8000386:	f008 fdd9 	bl	8008f3c <_ZNSt7__cxx1112basic_stringIcSt11char_traitsIcESaIcEE9_M_appendEPKcj>
 800038a:	6863      	ldr	r3, [r4, #4]
 800038c:	3308      	adds	r3, #8
 800038e:	f023 0307 	bic.w	r3, r3, #7
 8000392:	ebad 0d03 	sub.w	sp, sp, r3
 8000396:	6821      	ldr	r1, [r4, #0]
 8000398:	4668      	mov	r0, sp
 800039a:	f008 ffd3 	bl	8009344 <strcpy>
 800039e:	4668      	mov	r0, sp
 80003a0:	f7ff fed4 	bl	800014c <strlen>
 80003a4:	b281      	uxth	r1, r0
 80003a6:	4668      	mov	r0, sp
 80003a8:	f008 fa8a 	bl	80088c0 <CDC_Transmit_FS>
 80003ac:	46bd      	mov	sp, r7
 80003ae:	bd98      	pop	{r3, r4, r7, pc}
 80003b0:	4802      	ldr	r0, [pc, #8]	; (80003bc <_Z3MsgNSt7__cxx1112basic_stringIcSt11char_traitsIcESaIcEEE+0x54>)
 80003b2:	f008 fc90 	bl	8008cd6 <_ZSt20__throw_length_errorPKc>
 80003b6:	bf00      	nop
 80003b8:	0800970c 	.word	0x0800970c
 80003bc:	080094a8 	.word	0x080094a8

080003c0 <_ZN9__gnu_cxx6__stoaIlicJiEEET0_PFT_PKT1_PPS3_DpT2_EPKcS5_PjS9_>:
 80003c0:	b5f0      	push	{r4, r5, r6, r7, lr}
 80003c2:	b083      	sub	sp, #12
 80003c4:	4606      	mov	r6, r0
 80003c6:	460f      	mov	r7, r1
 80003c8:	4614      	mov	r4, r2
 80003ca:	461d      	mov	r5, r3
 80003cc:	f008 fe54 	bl	8009078 <__errno>
 80003d0:	6803      	ldr	r3, [r0, #0]
 80003d2:	9300      	str	r3, [sp, #0]
 80003d4:	f008 fe50 	bl	8009078 <__errno>
 80003d8:	2300      	movs	r3, #0
 80003da:	6003      	str	r3, [r0, #0]
 80003dc:	9a08      	ldr	r2, [sp, #32]
 80003de:	a901      	add	r1, sp, #4
 80003e0:	4620      	mov	r0, r4
 80003e2:	47b0      	blx	r6
 80003e4:	9b01      	ldr	r3, [sp, #4]
 80003e6:	42a3      	cmp	r3, r4
 80003e8:	d010      	beq.n	800040c <_ZN9__gnu_cxx6__stoaIlicJiEEET0_PFT_PKT1_PPS3_DpT2_EPKcS5_PjS9_+0x4c>
 80003ea:	4606      	mov	r6, r0
 80003ec:	f008 fe44 	bl	8009078 <__errno>
 80003f0:	6803      	ldr	r3, [r0, #0]
 80003f2:	2b22      	cmp	r3, #34	; 0x22
 80003f4:	d00d      	beq.n	8000412 <_ZN9__gnu_cxx6__stoaIlicJiEEET0_PFT_PKT1_PPS3_DpT2_EPKcS5_PjS9_+0x52>
 80003f6:	b115      	cbz	r5, 80003fe <_ZN9__gnu_cxx6__stoaIlicJiEEET0_PFT_PKT1_PPS3_DpT2_EPKcS5_PjS9_+0x3e>
 80003f8:	9a01      	ldr	r2, [sp, #4]
 80003fa:	1b12      	subs	r2, r2, r4
 80003fc:	602a      	str	r2, [r5, #0]
 80003fe:	f008 fe3b 	bl	8009078 <__errno>
 8000402:	6803      	ldr	r3, [r0, #0]
 8000404:	b143      	cbz	r3, 8000418 <_ZN9__gnu_cxx6__stoaIlicJiEEET0_PFT_PKT1_PPS3_DpT2_EPKcS5_PjS9_+0x58>
 8000406:	4630      	mov	r0, r6
 8000408:	b003      	add	sp, #12
 800040a:	bdf0      	pop	{r4, r5, r6, r7, pc}
 800040c:	4638      	mov	r0, r7
 800040e:	f008 fc5f 	bl	8008cd0 <_ZSt24__throw_invalid_argumentPKc>
 8000412:	4638      	mov	r0, r7
 8000414:	f008 fc62 	bl	8008cdc <_ZSt20__throw_out_of_rangePKc>
 8000418:	f008 fe2e 	bl	8009078 <__errno>
 800041c:	9b00      	ldr	r3, [sp, #0]
 800041e:	6003      	str	r3, [r0, #0]
 8000420:	e7f1      	b.n	8000406 <_ZN9__gnu_cxx6__stoaIlicJiEEET0_PFT_PKT1_PPS3_DpT2_EPKcS5_PjS9_+0x46>
	...

08000424 <_ZNSt7__cxx1112basic_stringIcSt11char_traitsIcESaIcEE12_M_constructIPKcEEvT_S8_St20forward_iterator_tag>:
 8000424:	b570      	push	{r4, r5, r6, lr}
 8000426:	b082      	sub	sp, #8
 8000428:	4605      	mov	r5, r0
 800042a:	460e      	mov	r6, r1
 800042c:	b161      	cbz	r1, 8000448 <_ZNSt7__cxx1112basic_stringIcSt11char_traitsIcESaIcEE12_M_constructIPKcEEvT_S8_St20forward_iterator_tag+0x24>
 800042e:	1b94      	subs	r4, r2, r6
 8000430:	9401      	str	r4, [sp, #4]
 8000432:	2c0f      	cmp	r4, #15
 8000434:	d80d      	bhi.n	8000452 <_ZNSt7__cxx1112basic_stringIcSt11char_traitsIcESaIcEE12_M_constructIPKcEEvT_S8_St20forward_iterator_tag+0x2e>
 8000436:	6828      	ldr	r0, [r5, #0]
 8000438:	2c01      	cmp	r4, #1
 800043a:	d013      	beq.n	8000464 <_ZNSt7__cxx1112basic_stringIcSt11char_traitsIcESaIcEE12_M_constructIPKcEEvT_S8_St20forward_iterator_tag+0x40>
 800043c:	b1a4      	cbz	r4, 8000468 <_ZNSt7__cxx1112basic_stringIcSt11char_traitsIcESaIcEE12_M_constructIPKcEEvT_S8_St20forward_iterator_tag+0x44>
 800043e:	4622      	mov	r2, r4
 8000440:	4631      	mov	r1, r6
 8000442:	f008 fe6f 	bl	8009124 <memcpy>
 8000446:	e00f      	b.n	8000468 <_ZNSt7__cxx1112basic_stringIcSt11char_traitsIcESaIcEE12_M_constructIPKcEEvT_S8_St20forward_iterator_tag+0x44>
 8000448:	4291      	cmp	r1, r2
 800044a:	d0f0      	beq.n	800042e <_ZNSt7__cxx1112basic_stringIcSt11char_traitsIcESaIcEE12_M_constructIPKcEEvT_S8_St20forward_iterator_tag+0xa>
 800044c:	480a      	ldr	r0, [pc, #40]	; (8000478 <_ZNSt7__cxx1112basic_stringIcSt11char_traitsIcESaIcEE12_M_constructIPKcEEvT_S8_St20forward_iterator_tag+0x54>)
 800044e:	f008 fc3c 	bl	8008cca <_ZSt19__throw_logic_errorPKc>
 8000452:	2200      	movs	r2, #0
 8000454:	a901      	add	r1, sp, #4
 8000456:	4628      	mov	r0, r5
 8000458:	f008 fd02 	bl	8008e60 <_ZNSt7__cxx1112basic_stringIcSt11char_traitsIcESaIcEE9_M_createERjj>
 800045c:	6028      	str	r0, [r5, #0]
 800045e:	9b01      	ldr	r3, [sp, #4]
 8000460:	60ab      	str	r3, [r5, #8]
 8000462:	e7e8      	b.n	8000436 <_ZNSt7__cxx1112basic_stringIcSt11char_traitsIcESaIcEE12_M_constructIPKcEEvT_S8_St20forward_iterator_tag+0x12>
 8000464:	7833      	ldrb	r3, [r6, #0]
 8000466:	7003      	strb	r3, [r0, #0]
 8000468:	9b01      	ldr	r3, [sp, #4]
 800046a:	606b      	str	r3, [r5, #4]
 800046c:	682a      	ldr	r2, [r5, #0]
 800046e:	2100      	movs	r1, #0
 8000470:	54d1      	strb	r1, [r2, r3]
 8000472:	b002      	add	sp, #8
 8000474:	bd70      	pop	{r4, r5, r6, pc}
 8000476:	bf00      	nop
 8000478:	080094c0 	.word	0x080094c0

0800047c <_Z8WriteMtkPKc>:
 800047c:	b510      	push	{r4, lr}
 800047e:	b086      	sub	sp, #24
 8000480:	ab02      	add	r3, sp, #8
 8000482:	9300      	str	r3, [sp, #0]
 8000484:	4604      	mov	r4, r0
 8000486:	b1a8      	cbz	r0, 80004b4 <_Z8WriteMtkPKc+0x38>
 8000488:	f7ff fe60 	bl	800014c <strlen>
 800048c:	1822      	adds	r2, r4, r0
 800048e:	f04f 0300 	mov.w	r3, #0
 8000492:	4621      	mov	r1, r4
 8000494:	4668      	mov	r0, sp
 8000496:	f7ff ffc5 	bl	8000424 <_ZNSt7__cxx1112basic_stringIcSt11char_traitsIcESaIcEE12_M_constructIPKcEEvT_S8_St20forward_iterator_tag>
 800049a:	9c00      	ldr	r4, [sp, #0]
 800049c:	4621      	mov	r1, r4
 800049e:	4806      	ldr	r0, [pc, #24]	; (80004b8 <_Z8WriteMtkPKc+0x3c>)
 80004a0:	f008 ff50 	bl	8009344 <strcpy>
 80004a4:	ab02      	add	r3, sp, #8
 80004a6:	429c      	cmp	r4, r3
 80004a8:	d002      	beq.n	80004b0 <_Z8WriteMtkPKc+0x34>
 80004aa:	4620      	mov	r0, r4
 80004ac:	f008 fc08 	bl	8008cc0 <_ZdlPv>
 80004b0:	b006      	add	sp, #24
 80004b2:	bd10      	pop	{r4, pc}
 80004b4:	1e42      	subs	r2, r0, #1
 80004b6:	e7ea      	b.n	800048e <_Z8WriteMtkPKc+0x12>
 80004b8:	20000238 	.word	0x20000238

080004bc <_Z8SolenoidP12GPIO_TypeDefthPKc>:
 80004bc:	b570      	push	{r4, r5, r6, lr}
 80004be:	4616      	mov	r6, r2
 80004c0:	4a0a      	ldr	r2, [pc, #40]	; (80004ec <_Z8SolenoidP12GPIO_TypeDefthPKc+0x30>)
 80004c2:	7812      	ldrb	r2, [r2, #0]
 80004c4:	b102      	cbz	r2, 80004c8 <_Z8SolenoidP12GPIO_TypeDefthPKc+0xc>
 80004c6:	bd70      	pop	{r4, r5, r6, pc}
 80004c8:	4604      	mov	r4, r0
 80004ca:	460d      	mov	r5, r1
 80004cc:	4618      	mov	r0, r3
 80004ce:	f7ff ffd5 	bl	800047c <_Z8WriteMtkPKc>
 80004d2:	b92e      	cbnz	r6, 80004e0 <_Z8SolenoidP12GPIO_TypeDefthPKc+0x24>
 80004d4:	2201      	movs	r2, #1
 80004d6:	4629      	mov	r1, r5
 80004d8:	4620      	mov	r0, r4
 80004da:	f002 fc2e 	bl	8002d3a <HAL_GPIO_WritePin>
 80004de:	e7f2      	b.n	80004c6 <_Z8SolenoidP12GPIO_TypeDefthPKc+0xa>
 80004e0:	2200      	movs	r2, #0
 80004e2:	4629      	mov	r1, r5
 80004e4:	4620      	mov	r0, r4
 80004e6:	f002 fc28 	bl	8002d3a <HAL_GPIO_WritePin>
 80004ea:	e7ec      	b.n	80004c6 <_Z8SolenoidP12GPIO_TypeDefthPKc+0xa>
 80004ec:	20000231 	.word	0x20000231

080004f0 <_Z17WaitForOptoStatushhhPKc>:
 80004f0:	b5f0      	push	{r4, r5, r6, r7, lr}
 80004f2:	b08d      	sub	sp, #52	; 0x34
 80004f4:	4614      	mov	r4, r2
 80004f6:	4a28      	ldr	r2, [pc, #160]	; (8000598 <_Z17WaitForOptoStatushhhPKc+0xa8>)
 80004f8:	7812      	ldrb	r2, [r2, #0]
 80004fa:	b10a      	cbz	r2, 8000500 <_Z17WaitForOptoStatushhhPKc+0x10>
 80004fc:	b00d      	add	sp, #52	; 0x34
 80004fe:	bdf0      	pop	{r4, r5, r6, r7, pc}
 8000500:	4606      	mov	r6, r0
 8000502:	460f      	mov	r7, r1
 8000504:	4618      	mov	r0, r3
 8000506:	f7ff ffb9 	bl	800047c <_Z8WriteMtkPKc>
 800050a:	eb04 0284 	add.w	r2, r4, r4, lsl #2
 800050e:	eb02 0282 	add.w	r2, r2, r2, lsl #2
 8000512:	0095      	lsls	r5, r2, #2
 8000514:	b2ed      	uxtb	r5, r5
 8000516:	4b21      	ldr	r3, [pc, #132]	; (800059c <_Z17WaitForOptoStatushhhPKc+0xac>)
 8000518:	2200      	movs	r2, #0
 800051a:	601a      	str	r2, [r3, #0]
 800051c:	4c20      	ldr	r4, [pc, #128]	; (80005a0 <_Z17WaitForOptoStatushhhPKc+0xb0>)
 800051e:	4622      	mov	r2, r4
 8000520:	4b20      	ldr	r3, [pc, #128]	; (80005a4 <_Z17WaitForOptoStatushhhPKc+0xb4>)
 8000522:	7819      	ldrb	r1, [r3, #0]
 8000524:	4820      	ldr	r0, [pc, #128]	; (80005a8 <_Z17WaitForOptoStatushhhPKc+0xb8>)
 8000526:	f7ff fe4d 	bl	80001c4 <_Z8PortReadP17I2C_HandleTypeDefhPh>
 800052a:	7823      	ldrb	r3, [r4, #0]
 800052c:	4133      	asrs	r3, r6
 800052e:	f003 0301 	and.w	r3, r3, #1
 8000532:	42bb      	cmp	r3, r7
 8000534:	d007      	beq.n	8000546 <_Z17WaitForOptoStatushhhPKc+0x56>
 8000536:	4b19      	ldr	r3, [pc, #100]	; (800059c <_Z17WaitForOptoStatushhhPKc+0xac>)
 8000538:	681b      	ldr	r3, [r3, #0]
 800053a:	429d      	cmp	r5, r3
 800053c:	d316      	bcc.n	800056c <_Z17WaitForOptoStatushhhPKc+0x7c>
 800053e:	200a      	movs	r0, #10
 8000540:	f001 fdc0 	bl	80020c4 <HAL_Delay>
 8000544:	e7ea      	b.n	800051c <_Z17WaitForOptoStatushhhPKc+0x2c>
 8000546:	ac02      	add	r4, sp, #8
 8000548:	9400      	str	r4, [sp, #0]
 800054a:	4a18      	ldr	r2, [pc, #96]	; (80005ac <_Z17WaitForOptoStatushhhPKc+0xbc>)
 800054c:	f04f 0300 	mov.w	r3, #0
 8000550:	f1a2 010b 	sub.w	r1, r2, #11
 8000554:	4668      	mov	r0, sp
 8000556:	f7ff ff65 	bl	8000424 <_ZNSt7__cxx1112basic_stringIcSt11char_traitsIcESaIcEE12_M_constructIPKcEEvT_S8_St20forward_iterator_tag>
 800055a:	4668      	mov	r0, sp
 800055c:	f7ff ff04 	bl	8000368 <_Z3MsgNSt7__cxx1112basic_stringIcSt11char_traitsIcESaIcEEE>
 8000560:	9800      	ldr	r0, [sp, #0]
 8000562:	42a0      	cmp	r0, r4
 8000564:	d0ca      	beq.n	80004fc <_Z17WaitForOptoStatushhhPKc+0xc>
 8000566:	f008 fbab 	bl	8008cc0 <_ZdlPv>
 800056a:	e7c7      	b.n	80004fc <_Z17WaitForOptoStatushhhPKc+0xc>
 800056c:	ac08      	add	r4, sp, #32
 800056e:	9406      	str	r4, [sp, #24]
 8000570:	4a0f      	ldr	r2, [pc, #60]	; (80005b0 <_Z17WaitForOptoStatushhhPKc+0xc0>)
 8000572:	f04f 0300 	mov.w	r3, #0
 8000576:	f1a2 010d 	sub.w	r1, r2, #13
 800057a:	a806      	add	r0, sp, #24
 800057c:	f7ff ff52 	bl	8000424 <_ZNSt7__cxx1112basic_stringIcSt11char_traitsIcESaIcEE12_M_constructIPKcEEvT_S8_St20forward_iterator_tag>
 8000580:	a806      	add	r0, sp, #24
 8000582:	f7ff fef1 	bl	8000368 <_Z3MsgNSt7__cxx1112basic_stringIcSt11char_traitsIcESaIcEEE>
 8000586:	9806      	ldr	r0, [sp, #24]
 8000588:	42a0      	cmp	r0, r4
 800058a:	d001      	beq.n	8000590 <_Z17WaitForOptoStatushhhPKc+0xa0>
 800058c:	f008 fb98 	bl	8008cc0 <_ZdlPv>
 8000590:	4b01      	ldr	r3, [pc, #4]	; (8000598 <_Z17WaitForOptoStatushhhPKc+0xa8>)
 8000592:	2201      	movs	r2, #1
 8000594:	701a      	strb	r2, [r3, #0]
 8000596:	e7b1      	b.n	80004fc <_Z17WaitForOptoStatushhhPKc+0xc>
 8000598:	20000231 	.word	0x20000231
 800059c:	20000224 	.word	0x20000224
 80005a0:	20000002 	.word	0x20000002
 80005a4:	20000001 	.word	0x20000001
 80005a8:	20000308 	.word	0x20000308
 80005ac:	080094f7 	.word	0x080094f7
 80005b0:	08009505 	.word	0x08009505

080005b4 <_Z12RunStepMotorihmahtPKc>:
 80005b4:	e92d 43f0 	stmdb	sp!, {r4, r5, r6, r7, r8, r9, lr}
 80005b8:	b099      	sub	sp, #100	; 0x64
 80005ba:	4680      	mov	r8, r0
 80005bc:	4689      	mov	r9, r1
 80005be:	4615      	mov	r5, r2
 80005c0:	461e      	mov	r6, r3
 80005c2:	f89d 7080 	ldrb.w	r7, [sp, #128]	; 0x80
 80005c6:	f8bd 4084 	ldrh.w	r4, [sp, #132]	; 0x84
 80005ca:	9822      	ldr	r0, [sp, #136]	; 0x88
 80005cc:	f7ff ff56 	bl	800047c <_Z8WriteMtkPKc>
 80005d0:	f1b8 0f00 	cmp.w	r8, #0
 80005d4:	dd50      	ble.n	8000678 <_Z12RunStepMotorihmahtPKc+0xc4>
 80005d6:	2200      	movs	r2, #0
 80005d8:	f44f 4180 	mov.w	r1, #16384	; 0x4000
 80005dc:	4862      	ldr	r0, [pc, #392]	; (8000768 <_Z12RunStepMotorihmahtPKc+0x1b4>)
 80005de:	f002 fbac 	bl	8002d3a <HAL_GPIO_WritePin>
 80005e2:	23c8      	movs	r3, #200	; 0xc8
 80005e4:	fb03 f109 	mul.w	r1, r3, r9
 80005e8:	4b60      	ldr	r3, [pc, #384]	; (800076c <_Z12RunStepMotorihmahtPKc+0x1b8>)
 80005ea:	fb93 f3f1 	sdiv	r3, r3, r1
 80005ee:	b29b      	uxth	r3, r3
 80005f0:	4a5f      	ldr	r2, [pc, #380]	; (8000770 <_Z12RunStepMotorihmahtPKc+0x1bc>)
 80005f2:	8013      	strh	r3, [r2, #0]
 80005f4:	2200      	movs	r2, #0
 80005f6:	495f      	ldr	r1, [pc, #380]	; (8000774 <_Z12RunStepMotorihmahtPKc+0x1c0>)
 80005f8:	600a      	str	r2, [r1, #0]
 80005fa:	495f      	ldr	r1, [pc, #380]	; (8000778 <_Z12RunStepMotorihmahtPKc+0x1c4>)
 80005fc:	600a      	str	r2, [r1, #0]
 80005fe:	08d9      	lsrs	r1, r3, #3
 8000600:	4a5e      	ldr	r2, [pc, #376]	; (800077c <_Z12RunStepMotorihmahtPKc+0x1c8>)
 8000602:	8011      	strh	r1, [r2, #0]
 8000604:	4a5e      	ldr	r2, [pc, #376]	; (8000780 <_Z12RunStepMotorihmahtPKc+0x1cc>)
 8000606:	7015      	strb	r5, [r2, #0]
 8000608:	eb04 0484 	add.w	r4, r4, r4, lsl #2
 800060c:	eb04 0484 	add.w	r4, r4, r4, lsl #2
 8000610:	00a5      	lsls	r5, r4, #2
 8000612:	b2ad      	uxth	r5, r5
 8000614:	ea88 70e8 	eor.w	r0, r8, r8, asr #31
 8000618:	eba0 70e8 	sub.w	r0, r0, r8, asr #31
 800061c:	4a59      	ldr	r2, [pc, #356]	; (8000784 <_Z12RunStepMotorihmahtPKc+0x1d0>)
 800061e:	6010      	str	r0, [r2, #0]
 8000620:	4a59      	ldr	r2, [pc, #356]	; (8000788 <_Z12RunStepMotorihmahtPKc+0x1d4>)
 8000622:	62d3      	str	r3, [r2, #44]	; 0x2c
 8000624:	6351      	str	r1, [r2, #52]	; 0x34
 8000626:	2201      	movs	r2, #1
 8000628:	f44f 5180 	mov.w	r1, #4096	; 0x1000
 800062c:	484e      	ldr	r0, [pc, #312]	; (8000768 <_Z12RunStepMotorihmahtPKc+0x1b4>)
 800062e:	f002 fb84 	bl	8002d3a <HAL_GPIO_WritePin>
 8000632:	4c56      	ldr	r4, [pc, #344]	; (800078c <_Z12RunStepMotorihmahtPKc+0x1d8>)
 8000634:	4622      	mov	r2, r4
 8000636:	4b56      	ldr	r3, [pc, #344]	; (8000790 <_Z12RunStepMotorihmahtPKc+0x1dc>)
 8000638:	7819      	ldrb	r1, [r3, #0]
 800063a:	4856      	ldr	r0, [pc, #344]	; (8000794 <_Z12RunStepMotorihmahtPKc+0x1e0>)
 800063c:	f7ff fdc2 	bl	80001c4 <_Z8PortReadP17I2C_HandleTypeDefhPh>
 8000640:	7820      	ldrb	r0, [r4, #0]
 8000642:	f010 0401 	ands.w	r4, r0, #1
 8000646:	d1f4      	bne.n	8000632 <_Z12RunStepMotorihmahtPKc+0x7e>
 8000648:	4b4b      	ldr	r3, [pc, #300]	; (8000778 <_Z12RunStepMotorihmahtPKc+0x1c4>)
 800064a:	2200      	movs	r2, #0
 800064c:	601a      	str	r2, [r3, #0]
 800064e:	f10d 0808 	add.w	r8, sp, #8
 8000652:	f8cd 8000 	str.w	r8, [sp]
 8000656:	4a50      	ldr	r2, [pc, #320]	; (8000798 <_Z12RunStepMotorihmahtPKc+0x1e4>)
 8000658:	f04f 0300 	mov.w	r3, #0
 800065c:	f1a2 010e 	sub.w	r1, r2, #14
 8000660:	4668      	mov	r0, sp
 8000662:	f7ff fedf 	bl	8000424 <_ZNSt7__cxx1112basic_stringIcSt11char_traitsIcESaIcEE12_M_constructIPKcEEvT_S8_St20forward_iterator_tag>
 8000666:	4668      	mov	r0, sp
 8000668:	f7ff fe7e 	bl	8000368 <_Z3MsgNSt7__cxx1112basic_stringIcSt11char_traitsIcESaIcEEE>
 800066c:	9800      	ldr	r0, [sp, #0]
 800066e:	4540      	cmp	r0, r8
 8000670:	d013      	beq.n	800069a <_Z12RunStepMotorihmahtPKc+0xe6>
 8000672:	f008 fb25 	bl	8008cc0 <_ZdlPv>
 8000676:	e010      	b.n	800069a <_Z12RunStepMotorihmahtPKc+0xe6>
 8000678:	2201      	movs	r2, #1
 800067a:	f44f 4180 	mov.w	r1, #16384	; 0x4000
 800067e:	483a      	ldr	r0, [pc, #232]	; (8000768 <_Z12RunStepMotorihmahtPKc+0x1b4>)
 8000680:	f002 fb5b 	bl	8002d3a <HAL_GPIO_WritePin>
 8000684:	e7ad      	b.n	80005e2 <_Z12RunStepMotorihmahtPKc+0x2e>
 8000686:	4b3c      	ldr	r3, [pc, #240]	; (8000778 <_Z12RunStepMotorihmahtPKc+0x1c4>)
 8000688:	681a      	ldr	r2, [r3, #0]
 800068a:	4b3e      	ldr	r3, [pc, #248]	; (8000784 <_Z12RunStepMotorihmahtPKc+0x1d0>)
 800068c:	681b      	ldr	r3, [r3, #0]
 800068e:	429a      	cmp	r2, r3
 8000690:	da32      	bge.n	80006f8 <_Z12RunStepMotorihmahtPKc+0x144>
 8000692:	4b38      	ldr	r3, [pc, #224]	; (8000774 <_Z12RunStepMotorihmahtPKc+0x1c0>)
 8000694:	681b      	ldr	r3, [r3, #0]
 8000696:	429d      	cmp	r5, r3
 8000698:	d34a      	bcc.n	8000730 <_Z12RunStepMotorihmahtPKc+0x17c>
 800069a:	4a3c      	ldr	r2, [pc, #240]	; (800078c <_Z12RunStepMotorihmahtPKc+0x1d8>)
 800069c:	4b3c      	ldr	r3, [pc, #240]	; (8000790 <_Z12RunStepMotorihmahtPKc+0x1dc>)
 800069e:	7819      	ldrb	r1, [r3, #0]
 80006a0:	483c      	ldr	r0, [pc, #240]	; (8000794 <_Z12RunStepMotorihmahtPKc+0x1e0>)
 80006a2:	f7ff fd8f 	bl	80001c4 <_Z8PortReadP17I2C_HandleTypeDefhPh>
 80006a6:	2e00      	cmp	r6, #0
 80006a8:	dbed      	blt.n	8000686 <_Z12RunStepMotorihmahtPKc+0xd2>
 80006aa:	f8df 80e0 	ldr.w	r8, [pc, #224]	; 800078c <_Z12RunStepMotorihmahtPKc+0x1d8>
 80006ae:	4642      	mov	r2, r8
 80006b0:	4b37      	ldr	r3, [pc, #220]	; (8000790 <_Z12RunStepMotorihmahtPKc+0x1dc>)
 80006b2:	7819      	ldrb	r1, [r3, #0]
 80006b4:	4837      	ldr	r0, [pc, #220]	; (8000794 <_Z12RunStepMotorihmahtPKc+0x1e0>)
 80006b6:	f7ff fd85 	bl	80001c4 <_Z8PortReadP17I2C_HandleTypeDefhPh>
 80006ba:	f898 2000 	ldrb.w	r2, [r8]
 80006be:	4132      	asrs	r2, r6
 80006c0:	f002 0201 	and.w	r2, r2, #1
 80006c4:	42ba      	cmp	r2, r7
 80006c6:	d1de      	bne.n	8000686 <_Z12RunStepMotorihmahtPKc+0xd2>
 80006c8:	ad08      	add	r5, sp, #32
 80006ca:	9506      	str	r5, [sp, #24]
 80006cc:	4a33      	ldr	r2, [pc, #204]	; (800079c <_Z12RunStepMotorihmahtPKc+0x1e8>)
 80006ce:	f04f 0300 	mov.w	r3, #0
 80006d2:	1fd1      	subs	r1, r2, #7
 80006d4:	a806      	add	r0, sp, #24
 80006d6:	f7ff fea5 	bl	8000424 <_ZNSt7__cxx1112basic_stringIcSt11char_traitsIcESaIcEE12_M_constructIPKcEEvT_S8_St20forward_iterator_tag>
 80006da:	a806      	add	r0, sp, #24
 80006dc:	f7ff fe44 	bl	8000368 <_Z3MsgNSt7__cxx1112basic_stringIcSt11char_traitsIcESaIcEEE>
 80006e0:	9806      	ldr	r0, [sp, #24]
 80006e2:	42a8      	cmp	r0, r5
 80006e4:	d001      	beq.n	80006ea <_Z12RunStepMotorihmahtPKc+0x136>
 80006e6:	f008 faeb 	bl	8008cc0 <_ZdlPv>
 80006ea:	2200      	movs	r2, #0
 80006ec:	f44f 5180 	mov.w	r1, #4096	; 0x1000
 80006f0:	481d      	ldr	r0, [pc, #116]	; (8000768 <_Z12RunStepMotorihmahtPKc+0x1b4>)
 80006f2:	f002 fb22 	bl	8002d3a <HAL_GPIO_WritePin>
 80006f6:	e017      	b.n	8000728 <_Z12RunStepMotorihmahtPKc+0x174>
 80006f8:	ad0e      	add	r5, sp, #56	; 0x38
 80006fa:	950c      	str	r5, [sp, #48]	; 0x30
 80006fc:	4a28      	ldr	r2, [pc, #160]	; (80007a0 <_Z12RunStepMotorihmahtPKc+0x1ec>)
 80006fe:	f04f 0300 	mov.w	r3, #0
 8000702:	f1a2 0112 	sub.w	r1, r2, #18
 8000706:	a80c      	add	r0, sp, #48	; 0x30
 8000708:	f7ff fe8c 	bl	8000424 <_ZNSt7__cxx1112basic_stringIcSt11char_traitsIcESaIcEE12_M_constructIPKcEEvT_S8_St20forward_iterator_tag>
 800070c:	a80c      	add	r0, sp, #48	; 0x30
 800070e:	f7ff fe2b 	bl	8000368 <_Z3MsgNSt7__cxx1112basic_stringIcSt11char_traitsIcESaIcEEE>
 8000712:	980c      	ldr	r0, [sp, #48]	; 0x30
 8000714:	42a8      	cmp	r0, r5
 8000716:	d001      	beq.n	800071c <_Z12RunStepMotorihmahtPKc+0x168>
 8000718:	f008 fad2 	bl	8008cc0 <_ZdlPv>
 800071c:	2200      	movs	r2, #0
 800071e:	f44f 5180 	mov.w	r1, #4096	; 0x1000
 8000722:	4811      	ldr	r0, [pc, #68]	; (8000768 <_Z12RunStepMotorihmahtPKc+0x1b4>)
 8000724:	f002 fb09 	bl	8002d3a <HAL_GPIO_WritePin>
 8000728:	4620      	mov	r0, r4
 800072a:	b019      	add	sp, #100	; 0x64
 800072c:	e8bd 83f0 	ldmia.w	sp!, {r4, r5, r6, r7, r8, r9, pc}
 8000730:	2200      	movs	r2, #0
 8000732:	f44f 5180 	mov.w	r1, #4096	; 0x1000
 8000736:	480c      	ldr	r0, [pc, #48]	; (8000768 <_Z12RunStepMotorihmahtPKc+0x1b4>)
 8000738:	f002 faff 	bl	8002d3a <HAL_GPIO_WritePin>
 800073c:	ac14      	add	r4, sp, #80	; 0x50
 800073e:	9412      	str	r4, [sp, #72]	; 0x48
 8000740:	4a18      	ldr	r2, [pc, #96]	; (80007a4 <_Z12RunStepMotorihmahtPKc+0x1f0>)
 8000742:	f04f 0300 	mov.w	r3, #0
 8000746:	1f91      	subs	r1, r2, #6
 8000748:	a812      	add	r0, sp, #72	; 0x48
 800074a:	f7ff fe6b 	bl	8000424 <_ZNSt7__cxx1112basic_stringIcSt11char_traitsIcESaIcEE12_M_constructIPKcEEvT_S8_St20forward_iterator_tag>
 800074e:	a812      	add	r0, sp, #72	; 0x48
 8000750:	f7ff fe0a 	bl	8000368 <_Z3MsgNSt7__cxx1112basic_stringIcSt11char_traitsIcESaIcEEE>
 8000754:	9812      	ldr	r0, [sp, #72]	; 0x48
 8000756:	42a0      	cmp	r0, r4
 8000758:	d001      	beq.n	800075e <_Z12RunStepMotorihmahtPKc+0x1aa>
 800075a:	f008 fab1 	bl	8008cc0 <_ZdlPv>
 800075e:	4b12      	ldr	r3, [pc, #72]	; (80007a8 <_Z12RunStepMotorihmahtPKc+0x1f4>)
 8000760:	2201      	movs	r2, #1
 8000762:	701a      	strb	r2, [r3, #0]
 8000764:	2403      	movs	r4, #3
 8000766:	e7df      	b.n	8000728 <_Z12RunStepMotorihmahtPKc+0x174>
 8000768:	40010c00 	.word	0x40010c00
 800076c:	000f4240 	.word	0x000f4240
 8000770:	20000004 	.word	0x20000004
 8000774:	20000224 	.word	0x20000224
 8000778:	20000228 	.word	0x20000228
 800077c:	2000024a 	.word	0x2000024a
 8000780:	2000021c 	.word	0x2000021c
 8000784:	2000024c 	.word	0x2000024c
 8000788:	40012c00 	.word	0x40012c00
 800078c:	20000002 	.word	0x20000002
 8000790:	20000001 	.word	0x20000001
 8000794:	20000308 	.word	0x20000308
 8000798:	08009516 	.word	0x08009516
 800079c:	0800951f 	.word	0x0800951f
 80007a0:	08009532 	.word	0x08009532
 80007a4:	0800953a 	.word	0x0800953a
 80007a8:	20000231 	.word	0x20000231

080007ac <_Z9PrintFotov>:
 80007ac:	b500      	push	{lr}
 80007ae:	b085      	sub	sp, #20
 80007b0:	4b09      	ldr	r3, [pc, #36]	; (80007d8 <_Z9PrintFotov+0x2c>)
 80007b2:	22a0      	movs	r2, #160	; 0xa0
 80007b4:	2100      	movs	r1, #0
 80007b6:	4608      	mov	r0, r1
 80007b8:	f7ff fe9a 	bl	80004f0 <_Z17WaitForOptoStatushhhPKc>
 80007bc:	4b07      	ldr	r3, [pc, #28]	; (80007dc <_Z9PrintFotov+0x30>)
 80007be:	9302      	str	r3, [sp, #8]
 80007c0:	2364      	movs	r3, #100	; 0x64
 80007c2:	9301      	str	r3, [sp, #4]
 80007c4:	2201      	movs	r2, #1
 80007c6:	9200      	str	r2, [sp, #0]
 80007c8:	2302      	movs	r3, #2
 80007ca:	2178      	movs	r1, #120	; 0x78
 80007cc:	4804      	ldr	r0, [pc, #16]	; (80007e0 <_Z9PrintFotov+0x34>)
 80007ce:	f7ff fef1 	bl	80005b4 <_Z12RunStepMotorihmahtPKc>
 80007d2:	b005      	add	sp, #20
 80007d4:	f85d fb04 	ldr.w	pc, [sp], #4
 80007d8:	0800953c 	.word	0x0800953c
 80007dc:	08009540 	.word	0x08009540
 80007e0:	00030d40 	.word	0x00030d40

080007e4 <_Z8RunMotorP12GPIO_TypeDeftS0_ttltahtPKc>:
 80007e4:	e92d 4ff0 	stmdb	sp!, {r4, r5, r6, r7, r8, r9, sl, fp, lr}
 80007e8:	b09b      	sub	sp, #108	; 0x6c
 80007ea:	4682      	mov	sl, r0
 80007ec:	468b      	mov	fp, r1
 80007ee:	9200      	str	r2, [sp, #0]
 80007f0:	9301      	str	r3, [sp, #4]
 80007f2:	9f25      	ldr	r7, [sp, #148]	; 0x94
 80007f4:	f8bd 8098 	ldrh.w	r8, [sp, #152]	; 0x98
 80007f8:	f99d 509c 	ldrsb.w	r5, [sp, #156]	; 0x9c
 80007fc:	f89d 90a0 	ldrb.w	r9, [sp, #160]	; 0xa0
 8000800:	f8bd 40a4 	ldrh.w	r4, [sp, #164]	; 0xa4
 8000804:	982a      	ldr	r0, [sp, #168]	; 0xa8
 8000806:	f7ff fe39 	bl	800047c <_Z8WriteMtkPKc>
 800080a:	2300      	movs	r3, #0
 800080c:	4a66      	ldr	r2, [pc, #408]	; (80009a8 <_Z8RunMotorP12GPIO_TypeDeftS0_ttltahtPKc+0x1c4>)
 800080e:	6013      	str	r3, [r2, #0]
 8000810:	4a66      	ldr	r2, [pc, #408]	; (80009ac <_Z8RunMotorP12GPIO_TypeDeftS0_ttltahtPKc+0x1c8>)
 8000812:	6013      	str	r3, [r2, #0]
 8000814:	eb04 0484 	add.w	r4, r4, r4, lsl #2
 8000818:	eb04 0484 	add.w	r4, r4, r4, lsl #2
 800081c:	00a4      	lsls	r4, r4, #2
 800081e:	b2a4      	uxth	r4, r4
 8000820:	429d      	cmp	r5, r3
 8000822:	da17      	bge.n	8000854 <_Z8RunMotorP12GPIO_TypeDeftS0_ttltahtPKc+0x70>
 8000824:	2f00      	cmp	r7, #0
 8000826:	db2a      	blt.n	800087e <_Z8RunMotorP12GPIO_TypeDeftS0_ttltahtPKc+0x9a>
 8000828:	2201      	movs	r2, #1
 800082a:	4659      	mov	r1, fp
 800082c:	4650      	mov	r0, sl
 800082e:	f002 fa84 	bl	8002d3a <HAL_GPIO_WritePin>
 8000832:	2200      	movs	r2, #0
 8000834:	9901      	ldr	r1, [sp, #4]
 8000836:	9800      	ldr	r0, [sp, #0]
 8000838:	f002 fa7f 	bl	8002d3a <HAL_GPIO_WritePin>
 800083c:	2f00      	cmp	r7, #0
 800083e:	bfb8      	it	lt
 8000840:	427f      	neglt	r7, r7
 8000842:	2005      	movs	r0, #5
 8000844:	f001 fc3e 	bl	80020c4 <HAL_Delay>
 8000848:	4b59      	ldr	r3, [pc, #356]	; (80009b0 <_Z8RunMotorP12GPIO_TypeDeftS0_ttltahtPKc+0x1cc>)
 800084a:	f44f 727a 	mov.w	r2, #1000	; 0x3e8
 800084e:	62da      	str	r2, [r3, #44]	; 0x2c
 8000850:	635a      	str	r2, [r3, #52]	; 0x34
 8000852:	e02f      	b.n	80008b4 <_Z8RunMotorP12GPIO_TypeDeftS0_ttltahtPKc+0xd0>
 8000854:	4e57      	ldr	r6, [pc, #348]	; (80009b4 <_Z8RunMotorP12GPIO_TypeDeftS0_ttltahtPKc+0x1d0>)
 8000856:	4632      	mov	r2, r6
 8000858:	4b57      	ldr	r3, [pc, #348]	; (80009b8 <_Z8RunMotorP12GPIO_TypeDeftS0_ttltahtPKc+0x1d4>)
 800085a:	7819      	ldrb	r1, [r3, #0]
 800085c:	4857      	ldr	r0, [pc, #348]	; (80009bc <_Z8RunMotorP12GPIO_TypeDeftS0_ttltahtPKc+0x1d8>)
 800085e:	f7ff fcb1 	bl	80001c4 <_Z8PortReadP17I2C_HandleTypeDefhPh>
 8000862:	7833      	ldrb	r3, [r6, #0]
 8000864:	412b      	asrs	r3, r5
 8000866:	f003 0301 	and.w	r3, r3, #1
 800086a:	454b      	cmp	r3, r9
 800086c:	d1da      	bne.n	8000824 <_Z8RunMotorP12GPIO_TypeDeftS0_ttltahtPKc+0x40>
 800086e:	9b01      	ldr	r3, [sp, #4]
 8000870:	9a00      	ldr	r2, [sp, #0]
 8000872:	4659      	mov	r1, fp
 8000874:	4650      	mov	r0, sl
 8000876:	f7ff fc99 	bl	80001ac <_Z9StopMotorP12GPIO_TypeDeftS0_t>
 800087a:	2000      	movs	r0, #0
 800087c:	e05b      	b.n	8000936 <_Z8RunMotorP12GPIO_TypeDeftS0_ttltahtPKc+0x152>
 800087e:	2200      	movs	r2, #0
 8000880:	4659      	mov	r1, fp
 8000882:	4650      	mov	r0, sl
 8000884:	f002 fa59 	bl	8002d3a <HAL_GPIO_WritePin>
 8000888:	2201      	movs	r2, #1
 800088a:	9901      	ldr	r1, [sp, #4]
 800088c:	9800      	ldr	r0, [sp, #0]
 800088e:	f002 fa54 	bl	8002d3a <HAL_GPIO_WritePin>
 8000892:	e7d3      	b.n	800083c <_Z8RunMotorP12GPIO_TypeDeftS0_ttltahtPKc+0x58>
 8000894:	f44f 70fa 	mov.w	r0, #500	; 0x1f4
 8000898:	f001 fc14 	bl	80020c4 <HAL_Delay>
 800089c:	4b48      	ldr	r3, [pc, #288]	; (80009c0 <_Z8RunMotorP12GPIO_TypeDeftS0_ttltahtPKc+0x1dc>)
 800089e:	881b      	ldrh	r3, [r3, #0]
 80008a0:	4543      	cmp	r3, r8
 80008a2:	d22f      	bcs.n	8000904 <_Z8RunMotorP12GPIO_TypeDeftS0_ttltahtPKc+0x120>
 80008a4:	4b41      	ldr	r3, [pc, #260]	; (80009ac <_Z8RunMotorP12GPIO_TypeDeftS0_ttltahtPKc+0x1c8>)
 80008a6:	681b      	ldr	r3, [r3, #0]
 80008a8:	42bb      	cmp	r3, r7
 80008aa:	da47      	bge.n	800093c <_Z8RunMotorP12GPIO_TypeDeftS0_ttltahtPKc+0x158>
 80008ac:	4b3e      	ldr	r3, [pc, #248]	; (80009a8 <_Z8RunMotorP12GPIO_TypeDeftS0_ttltahtPKc+0x1c4>)
 80008ae:	681b      	ldr	r3, [r3, #0]
 80008b0:	429c      	cmp	r4, r3
 80008b2:	d35d      	bcc.n	8000970 <_Z8RunMotorP12GPIO_TypeDeftS0_ttltahtPKc+0x18c>
 80008b4:	2d00      	cmp	r5, #0
 80008b6:	dbed      	blt.n	8000894 <_Z8RunMotorP12GPIO_TypeDeftS0_ttltahtPKc+0xb0>
 80008b8:	4e3e      	ldr	r6, [pc, #248]	; (80009b4 <_Z8RunMotorP12GPIO_TypeDeftS0_ttltahtPKc+0x1d0>)
 80008ba:	4632      	mov	r2, r6
 80008bc:	4b3e      	ldr	r3, [pc, #248]	; (80009b8 <_Z8RunMotorP12GPIO_TypeDeftS0_ttltahtPKc+0x1d4>)
 80008be:	7819      	ldrb	r1, [r3, #0]
 80008c0:	483e      	ldr	r0, [pc, #248]	; (80009bc <_Z8RunMotorP12GPIO_TypeDeftS0_ttltahtPKc+0x1d8>)
 80008c2:	f7ff fc7f 	bl	80001c4 <_Z8PortReadP17I2C_HandleTypeDefhPh>
 80008c6:	7833      	ldrb	r3, [r6, #0]
 80008c8:	412b      	asrs	r3, r5
 80008ca:	f003 0301 	and.w	r3, r3, #1
 80008ce:	454b      	cmp	r3, r9
 80008d0:	d1e0      	bne.n	8000894 <_Z8RunMotorP12GPIO_TypeDeftS0_ttltahtPKc+0xb0>
 80008d2:	ac04      	add	r4, sp, #16
 80008d4:	9402      	str	r4, [sp, #8]
 80008d6:	4a3b      	ldr	r2, [pc, #236]	; (80009c4 <_Z8RunMotorP12GPIO_TypeDeftS0_ttltahtPKc+0x1e0>)
 80008d8:	f04f 0300 	mov.w	r3, #0
 80008dc:	1fd1      	subs	r1, r2, #7
 80008de:	a802      	add	r0, sp, #8
 80008e0:	f7ff fda0 	bl	8000424 <_ZNSt7__cxx1112basic_stringIcSt11char_traitsIcESaIcEE12_M_constructIPKcEEvT_S8_St20forward_iterator_tag>
 80008e4:	a802      	add	r0, sp, #8
 80008e6:	f7ff fd3f 	bl	8000368 <_Z3MsgNSt7__cxx1112basic_stringIcSt11char_traitsIcESaIcEEE>
 80008ea:	9802      	ldr	r0, [sp, #8]
 80008ec:	42a0      	cmp	r0, r4
 80008ee:	d001      	beq.n	80008f4 <_Z8RunMotorP12GPIO_TypeDeftS0_ttltahtPKc+0x110>
 80008f0:	f008 f9e6 	bl	8008cc0 <_ZdlPv>
 80008f4:	9b01      	ldr	r3, [sp, #4]
 80008f6:	9a00      	ldr	r2, [sp, #0]
 80008f8:	4659      	mov	r1, fp
 80008fa:	4650      	mov	r0, sl
 80008fc:	f7ff fc56 	bl	80001ac <_Z9StopMotorP12GPIO_TypeDeftS0_t>
 8000900:	2000      	movs	r0, #0
 8000902:	e018      	b.n	8000936 <_Z8RunMotorP12GPIO_TypeDeftS0_ttltahtPKc+0x152>
 8000904:	ac0a      	add	r4, sp, #40	; 0x28
 8000906:	9408      	str	r4, [sp, #32]
 8000908:	4a2f      	ldr	r2, [pc, #188]	; (80009c8 <_Z8RunMotorP12GPIO_TypeDeftS0_ttltahtPKc+0x1e4>)
 800090a:	f04f 0300 	mov.w	r3, #0
 800090e:	f1a2 0115 	sub.w	r1, r2, #21
 8000912:	a808      	add	r0, sp, #32
 8000914:	f7ff fd86 	bl	8000424 <_ZNSt7__cxx1112basic_stringIcSt11char_traitsIcESaIcEE12_M_constructIPKcEEvT_S8_St20forward_iterator_tag>
 8000918:	a808      	add	r0, sp, #32
 800091a:	f7ff fd25 	bl	8000368 <_Z3MsgNSt7__cxx1112basic_stringIcSt11char_traitsIcESaIcEEE>
 800091e:	9808      	ldr	r0, [sp, #32]
 8000920:	42a0      	cmp	r0, r4
 8000922:	d001      	beq.n	8000928 <_Z8RunMotorP12GPIO_TypeDeftS0_ttltahtPKc+0x144>
 8000924:	f008 f9cc 	bl	8008cc0 <_ZdlPv>
 8000928:	9b01      	ldr	r3, [sp, #4]
 800092a:	9a00      	ldr	r2, [sp, #0]
 800092c:	4659      	mov	r1, fp
 800092e:	4650      	mov	r0, sl
 8000930:	f7ff fc3c 	bl	80001ac <_Z9StopMotorP12GPIO_TypeDeftS0_t>
 8000934:	2000      	movs	r0, #0
 8000936:	b01b      	add	sp, #108	; 0x6c
 8000938:	e8bd 8ff0 	ldmia.w	sp!, {r4, r5, r6, r7, r8, r9, sl, fp, pc}
 800093c:	ac10      	add	r4, sp, #64	; 0x40
 800093e:	940e      	str	r4, [sp, #56]	; 0x38
 8000940:	4a22      	ldr	r2, [pc, #136]	; (80009cc <_Z8RunMotorP12GPIO_TypeDeftS0_ttltahtPKc+0x1e8>)
 8000942:	f04f 0300 	mov.w	r3, #0
 8000946:	f1a2 0117 	sub.w	r1, r2, #23
 800094a:	a80e      	add	r0, sp, #56	; 0x38
 800094c:	f7ff fd6a 	bl	8000424 <_ZNSt7__cxx1112basic_stringIcSt11char_traitsIcESaIcEE12_M_constructIPKcEEvT_S8_St20forward_iterator_tag>
 8000950:	a80e      	add	r0, sp, #56	; 0x38
 8000952:	f7ff fd09 	bl	8000368 <_Z3MsgNSt7__cxx1112basic_stringIcSt11char_traitsIcESaIcEEE>
 8000956:	980e      	ldr	r0, [sp, #56]	; 0x38
 8000958:	42a0      	cmp	r0, r4
 800095a:	d001      	beq.n	8000960 <_Z8RunMotorP12GPIO_TypeDeftS0_ttltahtPKc+0x17c>
 800095c:	f008 f9b0 	bl	8008cc0 <_ZdlPv>
 8000960:	9b01      	ldr	r3, [sp, #4]
 8000962:	9a00      	ldr	r2, [sp, #0]
 8000964:	4659      	mov	r1, fp
 8000966:	4650      	mov	r0, sl
 8000968:	f7ff fc20 	bl	80001ac <_Z9StopMotorP12GPIO_TypeDeftS0_t>
 800096c:	2000      	movs	r0, #0
 800096e:	e7e2      	b.n	8000936 <_Z8RunMotorP12GPIO_TypeDeftS0_ttltahtPKc+0x152>
 8000970:	9b01      	ldr	r3, [sp, #4]
 8000972:	9a00      	ldr	r2, [sp, #0]
 8000974:	4659      	mov	r1, fp
 8000976:	4650      	mov	r0, sl
 8000978:	f7ff fc18 	bl	80001ac <_Z9StopMotorP12GPIO_TypeDeftS0_t>
 800097c:	ac16      	add	r4, sp, #88	; 0x58
 800097e:	9414      	str	r4, [sp, #80]	; 0x50
 8000980:	4a13      	ldr	r2, [pc, #76]	; (80009d0 <_Z8RunMotorP12GPIO_TypeDeftS0_ttltahtPKc+0x1ec>)
 8000982:	f04f 0300 	mov.w	r3, #0
 8000986:	1f91      	subs	r1, r2, #6
 8000988:	a814      	add	r0, sp, #80	; 0x50
 800098a:	f7ff fd4b 	bl	8000424 <_ZNSt7__cxx1112basic_stringIcSt11char_traitsIcESaIcEE12_M_constructIPKcEEvT_S8_St20forward_iterator_tag>
 800098e:	a814      	add	r0, sp, #80	; 0x50
 8000990:	f7ff fcea 	bl	8000368 <_Z3MsgNSt7__cxx1112basic_stringIcSt11char_traitsIcESaIcEEE>
 8000994:	9814      	ldr	r0, [sp, #80]	; 0x50
 8000996:	42a0      	cmp	r0, r4
 8000998:	d001      	beq.n	800099e <_Z8RunMotorP12GPIO_TypeDeftS0_ttltahtPKc+0x1ba>
 800099a:	f008 f991 	bl	8008cc0 <_ZdlPv>
 800099e:	4b0d      	ldr	r3, [pc, #52]	; (80009d4 <_Z8RunMotorP12GPIO_TypeDeftS0_ttltahtPKc+0x1f0>)
 80009a0:	2201      	movs	r2, #1
 80009a2:	701a      	strb	r2, [r3, #0]
 80009a4:	2003      	movs	r0, #3
 80009a6:	e7c6      	b.n	8000936 <_Z8RunMotorP12GPIO_TypeDeftS0_ttltahtPKc+0x152>
 80009a8:	20000224 	.word	0x20000224
 80009ac:	2000022c 	.word	0x2000022c
 80009b0:	40000400 	.word	0x40000400
 80009b4:	20000002 	.word	0x20000002
 80009b8:	20000001 	.word	0x20000001
 80009bc:	20000308 	.word	0x20000308
 80009c0:	2000021e 	.word	0x2000021e
 80009c4:	0800951f 	.word	0x0800951f
 80009c8:	08009559 	.word	0x08009559
 80009cc:	08009573 	.word	0x08009573
 80009d0:	0800953a 	.word	0x0800953a
 80009d4:	20000231 	.word	0x20000231

080009d8 <_Z7MagnFrvv>:
 80009d8:	b500      	push	{lr}
 80009da:	b089      	sub	sp, #36	; 0x24
 80009dc:	480f      	ldr	r0, [pc, #60]	; (8000a1c <_Z7MagnFrvv+0x44>)
 80009de:	4b10      	ldr	r3, [pc, #64]	; (8000a20 <_Z7MagnFrvv+0x48>)
 80009e0:	9306      	str	r3, [sp, #24]
 80009e2:	230a      	movs	r3, #10
 80009e4:	9305      	str	r3, [sp, #20]
 80009e6:	2301      	movs	r3, #1
 80009e8:	9304      	str	r3, [sp, #16]
 80009ea:	2302      	movs	r3, #2
 80009ec:	9303      	str	r3, [sp, #12]
 80009ee:	f44f 637a 	mov.w	r3, #4000	; 0xfa0
 80009f2:	9302      	str	r3, [sp, #8]
 80009f4:	f242 7310 	movw	r3, #10000	; 0x2710
 80009f8:	9301      	str	r3, [sp, #4]
 80009fa:	2378      	movs	r3, #120	; 0x78
 80009fc:	9300      	str	r3, [sp, #0]
 80009fe:	f44f 4300 	mov.w	r3, #32768	; 0x8000
 8000a02:	4602      	mov	r2, r0
 8000a04:	f44f 7180 	mov.w	r1, #256	; 0x100
 8000a08:	f7ff feec 	bl	80007e4 <_Z8RunMotorP12GPIO_TypeDeftS0_ttltahtPKc>
 8000a0c:	f44f 70fa 	mov.w	r0, #500	; 0x1f4
 8000a10:	f001 fb58 	bl	80020c4 <HAL_Delay>
 8000a14:	b009      	add	sp, #36	; 0x24
 8000a16:	f85d fb04 	ldr.w	pc, [sp], #4
 8000a1a:	bf00      	nop
 8000a1c:	40010800 	.word	0x40010800
 8000a20:	08009574 	.word	0x08009574

08000a24 <_Z9Main_functhh>:
 8000a24:	e92d 4ff0 	stmdb	sp!, {r4, r5, r6, r7, r8, r9, sl, fp, lr}
 8000a28:	b0d7      	sub	sp, #348	; 0x15c
 8000a2a:	4604      	mov	r4, r0
 8000a2c:	ad0a      	add	r5, sp, #40	; 0x28
 8000a2e:	9508      	str	r5, [sp, #32]
 8000a30:	4ac1      	ldr	r2, [pc, #772]	; (8000d38 <_Z9Main_functhh+0x314>)
 8000a32:	f04f 0300 	mov.w	r3, #0
 8000a36:	1fd1      	subs	r1, r2, #7
 8000a38:	a808      	add	r0, sp, #32
 8000a3a:	f7ff fcf3 	bl	8000424 <_ZNSt7__cxx1112basic_stringIcSt11char_traitsIcESaIcEE12_M_constructIPKcEEvT_S8_St20forward_iterator_tag>
 8000a3e:	a808      	add	r0, sp, #32
 8000a40:	f7ff fc92 	bl	8000368 <_Z3MsgNSt7__cxx1112basic_stringIcSt11char_traitsIcESaIcEEE>
 8000a44:	9808      	ldr	r0, [sp, #32]
 8000a46:	42a8      	cmp	r0, r5
 8000a48:	d001      	beq.n	8000a4e <_Z9Main_functhh+0x2a>
 8000a4a:	f008 f939 	bl	8008cc0 <_ZdlPv>
 8000a4e:	48bb      	ldr	r0, [pc, #748]	; (8000d3c <_Z9Main_functhh+0x318>)
 8000a50:	4bbb      	ldr	r3, [pc, #748]	; (8000d40 <_Z9Main_functhh+0x31c>)
 8000a52:	9306      	str	r3, [sp, #24]
 8000a54:	230a      	movs	r3, #10
 8000a56:	9305      	str	r3, [sp, #20]
 8000a58:	2301      	movs	r3, #1
 8000a5a:	9304      	str	r3, [sp, #16]
 8000a5c:	2302      	movs	r3, #2
 8000a5e:	9303      	str	r3, [sp, #12]
 8000a60:	f44f 637a 	mov.w	r3, #4000	; 0xfa0
 8000a64:	9302      	str	r3, [sp, #8]
 8000a66:	f242 7310 	movw	r3, #10000	; 0x2710
 8000a6a:	9301      	str	r3, [sp, #4]
 8000a6c:	2378      	movs	r3, #120	; 0x78
 8000a6e:	9300      	str	r3, [sp, #0]
 8000a70:	f44f 4300 	mov.w	r3, #32768	; 0x8000
 8000a74:	4602      	mov	r2, r0
 8000a76:	f44f 7180 	mov.w	r1, #256	; 0x100
 8000a7a:	f7ff feb3 	bl	80007e4 <_Z8RunMotorP12GPIO_TypeDeftS0_ttltahtPKc>
 8000a7e:	ad10      	add	r5, sp, #64	; 0x40
 8000a80:	950e      	str	r5, [sp, #56]	; 0x38
 8000a82:	4ab0      	ldr	r2, [pc, #704]	; (8000d44 <_Z9Main_functhh+0x320>)
 8000a84:	f04f 0300 	mov.w	r3, #0
 8000a88:	f1a2 010d 	sub.w	r1, r2, #13
 8000a8c:	a80e      	add	r0, sp, #56	; 0x38
 8000a8e:	f7ff fcc9 	bl	8000424 <_ZNSt7__cxx1112basic_stringIcSt11char_traitsIcESaIcEE12_M_constructIPKcEEvT_S8_St20forward_iterator_tag>
 8000a92:	a80e      	add	r0, sp, #56	; 0x38
 8000a94:	f7ff fc68 	bl	8000368 <_Z3MsgNSt7__cxx1112basic_stringIcSt11char_traitsIcESaIcEEE>
 8000a98:	980e      	ldr	r0, [sp, #56]	; 0x38
 8000a9a:	42a8      	cmp	r0, r5
 8000a9c:	d001      	beq.n	8000aa2 <_Z9Main_functhh+0x7e>
 8000a9e:	f008 f90f 	bl	8008cc0 <_ZdlPv>
 8000aa2:	4ba9      	ldr	r3, [pc, #676]	; (8000d48 <_Z9Main_functhh+0x324>)
 8000aa4:	223c      	movs	r2, #60	; 0x3c
 8000aa6:	2101      	movs	r1, #1
 8000aa8:	2000      	movs	r0, #0
 8000aaa:	f7ff fd21 	bl	80004f0 <_Z17WaitForOptoStatushhhPKc>
 8000aae:	f44f 707a 	mov.w	r0, #1000	; 0x3e8
 8000ab2:	f001 fb07 	bl	80020c4 <HAL_Delay>
 8000ab6:	ad16      	add	r5, sp, #88	; 0x58
 8000ab8:	9514      	str	r5, [sp, #80]	; 0x50
 8000aba:	4aa4      	ldr	r2, [pc, #656]	; (8000d4c <_Z9Main_functhh+0x328>)
 8000abc:	f04f 0300 	mov.w	r3, #0
 8000ac0:	f1a2 010a 	sub.w	r1, r2, #10
 8000ac4:	a814      	add	r0, sp, #80	; 0x50
 8000ac6:	f7ff fcad 	bl	8000424 <_ZNSt7__cxx1112basic_stringIcSt11char_traitsIcESaIcEE12_M_constructIPKcEEvT_S8_St20forward_iterator_tag>
 8000aca:	a814      	add	r0, sp, #80	; 0x50
 8000acc:	f7ff fc4c 	bl	8000368 <_Z3MsgNSt7__cxx1112basic_stringIcSt11char_traitsIcESaIcEEE>
 8000ad0:	9814      	ldr	r0, [sp, #80]	; 0x50
 8000ad2:	42a8      	cmp	r0, r5
 8000ad4:	d001      	beq.n	8000ada <_Z9Main_functhh+0xb6>
 8000ad6:	f008 f8f3 	bl	8008cc0 <_ZdlPv>
 8000ada:	4e9d      	ldr	r6, [pc, #628]	; (8000d50 <_Z9Main_functhh+0x32c>)
 8000adc:	4d97      	ldr	r5, [pc, #604]	; (8000d3c <_Z9Main_functhh+0x318>)
 8000ade:	4633      	mov	r3, r6
 8000ae0:	2201      	movs	r2, #1
 8000ae2:	2110      	movs	r1, #16
 8000ae4:	4628      	mov	r0, r5
 8000ae6:	f7ff fce9 	bl	80004bc <_Z8SolenoidP12GPIO_TypeDefthPKc>
 8000aea:	f44f 70fa 	mov.w	r0, #500	; 0x1f4
 8000aee:	f001 fae9 	bl	80020c4 <HAL_Delay>
 8000af2:	4633      	mov	r3, r6
 8000af4:	2200      	movs	r2, #0
 8000af6:	2110      	movs	r1, #16
 8000af8:	4628      	mov	r0, r5
 8000afa:	f7ff fcdf 	bl	80004bc <_Z8SolenoidP12GPIO_TypeDefthPKc>
 8000afe:	f44f 70fa 	mov.w	r0, #500	; 0x1f4
 8000b02:	f001 fadf 	bl	80020c4 <HAL_Delay>
 8000b06:	4633      	mov	r3, r6
 8000b08:	2201      	movs	r2, #1
 8000b0a:	2110      	movs	r1, #16
 8000b0c:	4628      	mov	r0, r5
 8000b0e:	f7ff fcd5 	bl	80004bc <_Z8SolenoidP12GPIO_TypeDefthPKc>
 8000b12:	f44f 707a 	mov.w	r0, #1000	; 0x3e8
 8000b16:	f001 fad5 	bl	80020c4 <HAL_Delay>
 8000b1a:	ad1c      	add	r5, sp, #112	; 0x70
 8000b1c:	951a      	str	r5, [sp, #104]	; 0x68
 8000b1e:	4a8d      	ldr	r2, [pc, #564]	; (8000d54 <_Z9Main_functhh+0x330>)
 8000b20:	f04f 0300 	mov.w	r3, #0
 8000b24:	f1a2 010a 	sub.w	r1, r2, #10
 8000b28:	a81a      	add	r0, sp, #104	; 0x68
 8000b2a:	f7ff fc7b 	bl	8000424 <_ZNSt7__cxx1112basic_stringIcSt11char_traitsIcESaIcEE12_M_constructIPKcEEvT_S8_St20forward_iterator_tag>
 8000b2e:	a81a      	add	r0, sp, #104	; 0x68
 8000b30:	f7ff fc1a 	bl	8000368 <_Z3MsgNSt7__cxx1112basic_stringIcSt11char_traitsIcESaIcEEE>
 8000b34:	981a      	ldr	r0, [sp, #104]	; 0x68
 8000b36:	42a8      	cmp	r0, r5
 8000b38:	d001      	beq.n	8000b3e <_Z9Main_functhh+0x11a>
 8000b3a:	f008 f8c1 	bl	8008cc0 <_ZdlPv>
 8000b3e:	4b86      	ldr	r3, [pc, #536]	; (8000d58 <_Z9Main_functhh+0x334>)
 8000b40:	2201      	movs	r2, #1
 8000b42:	2120      	movs	r1, #32
 8000b44:	487d      	ldr	r0, [pc, #500]	; (8000d3c <_Z9Main_functhh+0x318>)
 8000b46:	f7ff fcb9 	bl	80004bc <_Z8SolenoidP12GPIO_TypeDefthPKc>
 8000b4a:	f44f 707a 	mov.w	r0, #1000	; 0x3e8
 8000b4e:	f001 fab9 	bl	80020c4 <HAL_Delay>
 8000b52:	ad22      	add	r5, sp, #136	; 0x88
 8000b54:	9520      	str	r5, [sp, #128]	; 0x80
 8000b56:	4a81      	ldr	r2, [pc, #516]	; (8000d5c <_Z9Main_functhh+0x338>)
 8000b58:	f04f 0300 	mov.w	r3, #0
 8000b5c:	f1a2 010b 	sub.w	r1, r2, #11
 8000b60:	a820      	add	r0, sp, #128	; 0x80
 8000b62:	f7ff fc5f 	bl	8000424 <_ZNSt7__cxx1112basic_stringIcSt11char_traitsIcESaIcEE12_M_constructIPKcEEvT_S8_St20forward_iterator_tag>
 8000b66:	a820      	add	r0, sp, #128	; 0x80
 8000b68:	f7ff fbfe 	bl	8000368 <_Z3MsgNSt7__cxx1112basic_stringIcSt11char_traitsIcESaIcEEE>
 8000b6c:	9820      	ldr	r0, [sp, #128]	; 0x80
 8000b6e:	42a8      	cmp	r0, r5
 8000b70:	d001      	beq.n	8000b76 <_Z9Main_functhh+0x152>
 8000b72:	f008 f8a5 	bl	8008cc0 <_ZdlPv>
 8000b76:	4b7a      	ldr	r3, [pc, #488]	; (8000d60 <_Z9Main_functhh+0x33c>)
 8000b78:	2200      	movs	r2, #0
 8000b7a:	2110      	movs	r1, #16
 8000b7c:	486f      	ldr	r0, [pc, #444]	; (8000d3c <_Z9Main_functhh+0x318>)
 8000b7e:	f7ff fc9d 	bl	80004bc <_Z8SolenoidP12GPIO_TypeDefthPKc>
 8000b82:	f44f 70fa 	mov.w	r0, #500	; 0x1f4
 8000b86:	f001 fa9d 	bl	80020c4 <HAL_Delay>
 8000b8a:	ad28      	add	r5, sp, #160	; 0xa0
 8000b8c:	9526      	str	r5, [sp, #152]	; 0x98
 8000b8e:	4a75      	ldr	r2, [pc, #468]	; (8000d64 <_Z9Main_functhh+0x340>)
 8000b90:	f04f 0300 	mov.w	r3, #0
 8000b94:	f1a2 0113 	sub.w	r1, r2, #19
 8000b98:	a826      	add	r0, sp, #152	; 0x98
 8000b9a:	f7ff fc43 	bl	8000424 <_ZNSt7__cxx1112basic_stringIcSt11char_traitsIcESaIcEE12_M_constructIPKcEEvT_S8_St20forward_iterator_tag>
 8000b9e:	a826      	add	r0, sp, #152	; 0x98
 8000ba0:	f7ff fbe2 	bl	8000368 <_Z3MsgNSt7__cxx1112basic_stringIcSt11char_traitsIcESaIcEEE>
 8000ba4:	9826      	ldr	r0, [sp, #152]	; 0x98
 8000ba6:	42a8      	cmp	r0, r5
 8000ba8:	d001      	beq.n	8000bae <_Z9Main_functhh+0x18a>
 8000baa:	f008 f889 	bl	8008cc0 <_ZdlPv>
 8000bae:	4b66      	ldr	r3, [pc, #408]	; (8000d48 <_Z9Main_functhh+0x324>)
 8000bb0:	9302      	str	r3, [sp, #8]
 8000bb2:	230a      	movs	r3, #10
 8000bb4:	9301      	str	r3, [sp, #4]
 8000bb6:	2300      	movs	r3, #0
 8000bb8:	9300      	str	r3, [sp, #0]
 8000bba:	f04f 33ff 	mov.w	r3, #4294967295
 8000bbe:	2201      	movs	r2, #1
 8000bc0:	2178      	movs	r1, #120	; 0x78
 8000bc2:	f242 7010 	movw	r0, #10000	; 0x2710
 8000bc6:	f7ff fcf5 	bl	80005b4 <_Z12RunStepMotorihmahtPKc>
 8000bca:	f44f 70fa 	mov.w	r0, #500	; 0x1f4
 8000bce:	f001 fa79 	bl	80020c4 <HAL_Delay>
 8000bd2:	ad2e      	add	r5, sp, #184	; 0xb8
 8000bd4:	952c      	str	r5, [sp, #176]	; 0xb0
 8000bd6:	4a64      	ldr	r2, [pc, #400]	; (8000d68 <_Z9Main_functhh+0x344>)
 8000bd8:	f04f 0300 	mov.w	r3, #0
 8000bdc:	f1a2 0111 	sub.w	r1, r2, #17
 8000be0:	a82c      	add	r0, sp, #176	; 0xb0
 8000be2:	f7ff fc1f 	bl	8000424 <_ZNSt7__cxx1112basic_stringIcSt11char_traitsIcESaIcEE12_M_constructIPKcEEvT_S8_St20forward_iterator_tag>
 8000be6:	a82c      	add	r0, sp, #176	; 0xb0
 8000be8:	f7ff fbbe 	bl	8000368 <_Z3MsgNSt7__cxx1112basic_stringIcSt11char_traitsIcESaIcEEE>
 8000bec:	982c      	ldr	r0, [sp, #176]	; 0xb0
 8000bee:	42a8      	cmp	r0, r5
 8000bf0:	d001      	beq.n	8000bf6 <_Z9Main_functhh+0x1d2>
 8000bf2:	f008 f865 	bl	8008cc0 <_ZdlPv>
 8000bf6:	4b58      	ldr	r3, [pc, #352]	; (8000d58 <_Z9Main_functhh+0x334>)
 8000bf8:	2200      	movs	r2, #0
 8000bfa:	2120      	movs	r1, #32
 8000bfc:	484f      	ldr	r0, [pc, #316]	; (8000d3c <_Z9Main_functhh+0x318>)
 8000bfe:	f7ff fc5d 	bl	80004bc <_Z8SolenoidP12GPIO_TypeDefthPKc>
 8000c02:	f44f 70fa 	mov.w	r0, #500	; 0x1f4
 8000c06:	f001 fa5d 	bl	80020c4 <HAL_Delay>
 8000c0a:	ad34      	add	r5, sp, #208	; 0xd0
 8000c0c:	9532      	str	r5, [sp, #200]	; 0xc8
 8000c0e:	4a57      	ldr	r2, [pc, #348]	; (8000d6c <_Z9Main_functhh+0x348>)
 8000c10:	f04f 0300 	mov.w	r3, #0
 8000c14:	f1a2 010f 	sub.w	r1, r2, #15
 8000c18:	a832      	add	r0, sp, #200	; 0xc8
 8000c1a:	f7ff fc03 	bl	8000424 <_ZNSt7__cxx1112basic_stringIcSt11char_traitsIcESaIcEE12_M_constructIPKcEEvT_S8_St20forward_iterator_tag>
 8000c1e:	a832      	add	r0, sp, #200	; 0xc8
 8000c20:	f7ff fba2 	bl	8000368 <_Z3MsgNSt7__cxx1112basic_stringIcSt11char_traitsIcESaIcEEE>
 8000c24:	9832      	ldr	r0, [sp, #200]	; 0xc8
 8000c26:	42a8      	cmp	r0, r5
 8000c28:	d001      	beq.n	8000c2e <_Z9Main_functhh+0x20a>
 8000c2a:	f008 f849 	bl	8008cc0 <_ZdlPv>
 8000c2e:	4b50      	ldr	r3, [pc, #320]	; (8000d70 <_Z9Main_functhh+0x34c>)
 8000c30:	2201      	movs	r2, #1
 8000c32:	2140      	movs	r1, #64	; 0x40
 8000c34:	4841      	ldr	r0, [pc, #260]	; (8000d3c <_Z9Main_functhh+0x318>)
 8000c36:	f7ff fc41 	bl	80004bc <_Z8SolenoidP12GPIO_TypeDefthPKc>
 8000c3a:	f44f 70fa 	mov.w	r0, #500	; 0x1f4
 8000c3e:	f001 fa41 	bl	80020c4 <HAL_Delay>
 8000c42:	ad3a      	add	r5, sp, #232	; 0xe8
 8000c44:	9538      	str	r5, [sp, #224]	; 0xe0
 8000c46:	4a4b      	ldr	r2, [pc, #300]	; (8000d74 <_Z9Main_functhh+0x350>)
 8000c48:	f04f 0300 	mov.w	r3, #0
 8000c4c:	f1a2 0112 	sub.w	r1, r2, #18
 8000c50:	a838      	add	r0, sp, #224	; 0xe0
 8000c52:	f7ff fbe7 	bl	8000424 <_ZNSt7__cxx1112basic_stringIcSt11char_traitsIcESaIcEE12_M_constructIPKcEEvT_S8_St20forward_iterator_tag>
 8000c56:	a838      	add	r0, sp, #224	; 0xe0
 8000c58:	f7ff fb86 	bl	8000368 <_Z3MsgNSt7__cxx1112basic_stringIcSt11char_traitsIcESaIcEEE>
 8000c5c:	9838      	ldr	r0, [sp, #224]	; 0xe0
 8000c5e:	42a8      	cmp	r0, r5
 8000c60:	d001      	beq.n	8000c66 <_Z9Main_functhh+0x242>
 8000c62:	f008 f82d 	bl	8008cc0 <_ZdlPv>
 8000c66:	4844      	ldr	r0, [pc, #272]	; (8000d78 <_Z9Main_functhh+0x354>)
 8000c68:	4b44      	ldr	r3, [pc, #272]	; (8000d7c <_Z9Main_functhh+0x358>)
 8000c6a:	9306      	str	r3, [sp, #24]
 8000c6c:	230a      	movs	r3, #10
 8000c6e:	9305      	str	r3, [sp, #20]
 8000c70:	2300      	movs	r3, #0
 8000c72:	9304      	str	r3, [sp, #16]
 8000c74:	2305      	movs	r3, #5
 8000c76:	9303      	str	r3, [sp, #12]
 8000c78:	f44f 637a 	mov.w	r3, #4000	; 0xfa0
 8000c7c:	9302      	str	r3, [sp, #8]
 8000c7e:	f242 7310 	movw	r3, #10000	; 0x2710
 8000c82:	9301      	str	r3, [sp, #4]
 8000c84:	2378      	movs	r3, #120	; 0x78
 8000c86:	9300      	str	r3, [sp, #0]
 8000c88:	f44f 6300 	mov.w	r3, #2048	; 0x800
 8000c8c:	4602      	mov	r2, r0
 8000c8e:	f44f 6180 	mov.w	r1, #1024	; 0x400
 8000c92:	f7ff fda7 	bl	80007e4 <_Z8RunMotorP12GPIO_TypeDeftS0_ttltahtPKc>
 8000c96:	f44f 70fa 	mov.w	r0, #500	; 0x1f4
 8000c9a:	f001 fa13 	bl	80020c4 <HAL_Delay>
 8000c9e:	ad40      	add	r5, sp, #256	; 0x100
 8000ca0:	953e      	str	r5, [sp, #248]	; 0xf8
 8000ca2:	4a37      	ldr	r2, [pc, #220]	; (8000d80 <_Z9Main_functhh+0x35c>)
 8000ca4:	f04f 0300 	mov.w	r3, #0
 8000ca8:	f1a2 010f 	sub.w	r1, r2, #15
 8000cac:	a83e      	add	r0, sp, #248	; 0xf8
 8000cae:	f7ff fbb9 	bl	8000424 <_ZNSt7__cxx1112basic_stringIcSt11char_traitsIcESaIcEE12_M_constructIPKcEEvT_S8_St20forward_iterator_tag>
 8000cb2:	a83e      	add	r0, sp, #248	; 0xf8
 8000cb4:	f7ff fb58 	bl	8000368 <_Z3MsgNSt7__cxx1112basic_stringIcSt11char_traitsIcESaIcEEE>
 8000cb8:	983e      	ldr	r0, [sp, #248]	; 0xf8
 8000cba:	42a8      	cmp	r0, r5
 8000cbc:	d001      	beq.n	8000cc2 <_Z9Main_functhh+0x29e>
 8000cbe:	f007 ffff 	bl	8008cc0 <_ZdlPv>
 8000cc2:	482d      	ldr	r0, [pc, #180]	; (8000d78 <_Z9Main_functhh+0x354>)
 8000cc4:	4b2f      	ldr	r3, [pc, #188]	; (8000d84 <_Z9Main_functhh+0x360>)
 8000cc6:	9306      	str	r3, [sp, #24]
 8000cc8:	230a      	movs	r3, #10
 8000cca:	9305      	str	r3, [sp, #20]
 8000ccc:	2300      	movs	r3, #0
 8000cce:	9304      	str	r3, [sp, #16]
 8000cd0:	2303      	movs	r3, #3
 8000cd2:	9303      	str	r3, [sp, #12]
 8000cd4:	f44f 637a 	mov.w	r3, #4000	; 0xfa0
 8000cd8:	9302      	str	r3, [sp, #8]
 8000cda:	f242 7310 	movw	r3, #10000	; 0x2710
 8000cde:	9301      	str	r3, [sp, #4]
 8000ce0:	2378      	movs	r3, #120	; 0x78
 8000ce2:	9300      	str	r3, [sp, #0]
 8000ce4:	f44f 6300 	mov.w	r3, #2048	; 0x800
 8000ce8:	4602      	mov	r2, r0
 8000cea:	f44f 6180 	mov.w	r1, #1024	; 0x400
 8000cee:	f7ff fd79 	bl	80007e4 <_Z8RunMotorP12GPIO_TypeDeftS0_ttltahtPKc>
 8000cf2:	f44f 70fa 	mov.w	r0, #500	; 0x1f4
 8000cf6:	f001 f9e5 	bl	80020c4 <HAL_Delay>
 8000cfa:	ad46      	add	r5, sp, #280	; 0x118
 8000cfc:	9544      	str	r5, [sp, #272]	; 0x110
 8000cfe:	4a22      	ldr	r2, [pc, #136]	; (8000d88 <_Z9Main_functhh+0x364>)
 8000d00:	f04f 0300 	mov.w	r3, #0
 8000d04:	f1a2 0113 	sub.w	r1, r2, #19
 8000d08:	a844      	add	r0, sp, #272	; 0x110
 8000d0a:	f7ff fb8b 	bl	8000424 <_ZNSt7__cxx1112basic_stringIcSt11char_traitsIcESaIcEE12_M_constructIPKcEEvT_S8_St20forward_iterator_tag>
 8000d0e:	a844      	add	r0, sp, #272	; 0x110
 8000d10:	f7ff fb2a 	bl	8000368 <_Z3MsgNSt7__cxx1112basic_stringIcSt11char_traitsIcESaIcEEE>
 8000d14:	9844      	ldr	r0, [sp, #272]	; 0x110
 8000d16:	42a8      	cmp	r0, r5
 8000d18:	d001      	beq.n	8000d1e <_Z9Main_functhh+0x2fa>
 8000d1a:	f007 ffd1 	bl	8008cc0 <_ZdlPv>
 8000d1e:	4b1b      	ldr	r3, [pc, #108]	; (8000d8c <_Z9Main_functhh+0x368>)
 8000d20:	9302      	str	r3, [sp, #8]
 8000d22:	230a      	movs	r3, #10
 8000d24:	9301      	str	r3, [sp, #4]
 8000d26:	2300      	movs	r3, #0
 8000d28:	9300      	str	r3, [sp, #0]
 8000d2a:	f04f 33ff 	mov.w	r3, #4294967295
 8000d2e:	2201      	movs	r2, #1
 8000d30:	2178      	movs	r1, #120	; 0x78
 8000d32:	4620      	mov	r0, r4
 8000d34:	e02c      	b.n	8000d90 <_Z9Main_functhh+0x36c>
 8000d36:	bf00      	nop
 8000d38:	0800957f 	.word	0x0800957f
 8000d3c:	40010800 	.word	0x40010800
 8000d40:	08009574 	.word	0x08009574
 8000d44:	0800958d 	.word	0x0800958d
 8000d48:	0800953c 	.word	0x0800953c
 8000d4c:	0800959a 	.word	0x0800959a
 8000d50:	0800959c 	.word	0x0800959c
 8000d54:	080095aa 	.word	0x080095aa
 8000d58:	080095ac 	.word	0x080095ac
 8000d5c:	080095bb 	.word	0x080095bb
 8000d60:	080095bc 	.word	0x080095bc
 8000d64:	080095d3 	.word	0x080095d3
 8000d68:	080095e5 	.word	0x080095e5
 8000d6c:	080095f7 	.word	0x080095f7
 8000d70:	080095f8 	.word	0x080095f8
 8000d74:	0800960e 	.word	0x0800960e
 8000d78:	40010c00 	.word	0x40010c00
 8000d7c:	08009610 	.word	0x08009610
 8000d80:	08009623 	.word	0x08009623
 8000d84:	08009624 	.word	0x08009624
 8000d88:	0800963b 	.word	0x0800963b
 8000d8c:	0800963c 	.word	0x0800963c
 8000d90:	f7ff fc10 	bl	80005b4 <_Z12RunStepMotorihmahtPKc>
 8000d94:	f44f 70fa 	mov.w	r0, #500	; 0x1f4
 8000d98:	f001 f994 	bl	80020c4 <HAL_Delay>
 8000d9c:	ac4c      	add	r4, sp, #304	; 0x130
 8000d9e:	944a      	str	r4, [sp, #296]	; 0x128
 8000da0:	4a49      	ldr	r2, [pc, #292]	; (8000ec8 <_Z9Main_functhh+0x4a4>)
 8000da2:	f04f 0300 	mov.w	r3, #0
 8000da6:	f1a2 0110 	sub.w	r1, r2, #16
 8000daa:	a84a      	add	r0, sp, #296	; 0x128
 8000dac:	f7ff fb3a 	bl	8000424 <_ZNSt7__cxx1112basic_stringIcSt11char_traitsIcESaIcEE12_M_constructIPKcEEvT_S8_St20forward_iterator_tag>
 8000db0:	a84a      	add	r0, sp, #296	; 0x128
 8000db2:	f7ff fad9 	bl	8000368 <_Z3MsgNSt7__cxx1112basic_stringIcSt11char_traitsIcESaIcEEE>
 8000db6:	984a      	ldr	r0, [sp, #296]	; 0x128
 8000db8:	42a0      	cmp	r0, r4
 8000dba:	d001      	beq.n	8000dc0 <_Z9Main_functhh+0x39c>
 8000dbc:	f007 ff80 	bl	8008cc0 <_ZdlPv>
 8000dc0:	4c42      	ldr	r4, [pc, #264]	; (8000ecc <_Z9Main_functhh+0x4a8>)
 8000dc2:	4b43      	ldr	r3, [pc, #268]	; (8000ed0 <_Z9Main_functhh+0x4ac>)
 8000dc4:	2200      	movs	r2, #0
 8000dc6:	2140      	movs	r1, #64	; 0x40
 8000dc8:	4620      	mov	r0, r4
 8000dca:	f7ff fb77 	bl	80004bc <_Z8SolenoidP12GPIO_TypeDefthPKc>
 8000dce:	f44f 70fa 	mov.w	r0, #500	; 0x1f4
 8000dd2:	f001 f977 	bl	80020c4 <HAL_Delay>
 8000dd6:	f8df 8108 	ldr.w	r8, [pc, #264]	; 8000ee0 <_Z9Main_functhh+0x4bc>
 8000dda:	f8cd 8018 	str.w	r8, [sp, #24]
 8000dde:	2732      	movs	r7, #50	; 0x32
 8000de0:	9705      	str	r7, [sp, #20]
 8000de2:	2600      	movs	r6, #0
 8000de4:	9604      	str	r6, [sp, #16]
 8000de6:	f04f 0b04 	mov.w	fp, #4
 8000dea:	f8cd b00c 	str.w	fp, [sp, #12]
 8000dee:	f640 3ab8 	movw	sl, #3000	; 0xbb8
 8000df2:	f8cd a008 	str.w	sl, [sp, #8]
 8000df6:	4b37      	ldr	r3, [pc, #220]	; (8000ed4 <_Z9Main_functhh+0x4b0>)
 8000df8:	9301      	str	r3, [sp, #4]
 8000dfa:	f04f 0978 	mov.w	r9, #120	; 0x78
 8000dfe:	f8cd 9000 	str.w	r9, [sp]
 8000e02:	f44f 7300 	mov.w	r3, #512	; 0x200
 8000e06:	4622      	mov	r2, r4
 8000e08:	f44f 6180 	mov.w	r1, #1024	; 0x400
 8000e0c:	4620      	mov	r0, r4
 8000e0e:	f7ff fce9 	bl	80007e4 <_Z8RunMotorP12GPIO_TypeDeftS0_ttltahtPKc>
 8000e12:	f44f 70fa 	mov.w	r0, #500	; 0x1f4
 8000e16:	f001 f955 	bl	80020c4 <HAL_Delay>
 8000e1a:	f8cd 8018 	str.w	r8, [sp, #24]
 8000e1e:	9705      	str	r7, [sp, #20]
 8000e20:	9604      	str	r6, [sp, #16]
 8000e22:	f04f 33ff 	mov.w	r3, #4294967295
 8000e26:	9303      	str	r3, [sp, #12]
 8000e28:	f44f 75fa 	mov.w	r5, #500	; 0x1f4
 8000e2c:	9502      	str	r5, [sp, #8]
 8000e2e:	f644 6320 	movw	r3, #20000	; 0x4e20
 8000e32:	9301      	str	r3, [sp, #4]
 8000e34:	2305      	movs	r3, #5
 8000e36:	9300      	str	r3, [sp, #0]
 8000e38:	f44f 7300 	mov.w	r3, #512	; 0x200
 8000e3c:	4622      	mov	r2, r4
 8000e3e:	f44f 6180 	mov.w	r1, #1024	; 0x400
 8000e42:	4620      	mov	r0, r4
 8000e44:	f7ff fcce 	bl	80007e4 <_Z8RunMotorP12GPIO_TypeDeftS0_ttltahtPKc>
 8000e48:	4628      	mov	r0, r5
 8000e4a:	f001 f93b 	bl	80020c4 <HAL_Delay>
 8000e4e:	f8cd 8018 	str.w	r8, [sp, #24]
 8000e52:	9705      	str	r7, [sp, #20]
 8000e54:	9604      	str	r6, [sp, #16]
 8000e56:	f8cd b00c 	str.w	fp, [sp, #12]
 8000e5a:	f8cd a008 	str.w	sl, [sp, #8]
 8000e5e:	4b1d      	ldr	r3, [pc, #116]	; (8000ed4 <_Z9Main_functhh+0x4b0>)
 8000e60:	9301      	str	r3, [sp, #4]
 8000e62:	f8cd 9000 	str.w	r9, [sp]
 8000e66:	f44f 7300 	mov.w	r3, #512	; 0x200
 8000e6a:	4622      	mov	r2, r4
 8000e6c:	f44f 6180 	mov.w	r1, #1024	; 0x400
 8000e70:	4620      	mov	r0, r4
 8000e72:	f7ff fcb7 	bl	80007e4 <_Z8RunMotorP12GPIO_TypeDeftS0_ttltahtPKc>
 8000e76:	4628      	mov	r0, r5
 8000e78:	f001 f924 	bl	80020c4 <HAL_Delay>
 8000e7c:	4628      	mov	r0, r5
 8000e7e:	f001 f921 	bl	80020c4 <HAL_Delay>
 8000e82:	ac52      	add	r4, sp, #328	; 0x148
 8000e84:	9450      	str	r4, [sp, #320]	; 0x140
 8000e86:	4a14      	ldr	r2, [pc, #80]	; (8000ed8 <_Z9Main_functhh+0x4b4>)
 8000e88:	f04f 0300 	mov.w	r3, #0
 8000e8c:	f1a2 0113 	sub.w	r1, r2, #19
 8000e90:	a850      	add	r0, sp, #320	; 0x140
 8000e92:	f7ff fac7 	bl	8000424 <_ZNSt7__cxx1112basic_stringIcSt11char_traitsIcESaIcEE12_M_constructIPKcEEvT_S8_St20forward_iterator_tag>
 8000e96:	a850      	add	r0, sp, #320	; 0x140
 8000e98:	f7ff fa66 	bl	8000368 <_Z3MsgNSt7__cxx1112basic_stringIcSt11char_traitsIcESaIcEEE>
 8000e9c:	9850      	ldr	r0, [sp, #320]	; 0x140
 8000e9e:	42a0      	cmp	r0, r4
 8000ea0:	d001      	beq.n	8000ea6 <_Z9Main_functhh+0x482>
 8000ea2:	f007 ff0d 	bl	8008cc0 <_ZdlPv>
 8000ea6:	4b0d      	ldr	r3, [pc, #52]	; (8000edc <_Z9Main_functhh+0x4b8>)
 8000ea8:	9302      	str	r3, [sp, #8]
 8000eaa:	230a      	movs	r3, #10
 8000eac:	9301      	str	r3, [sp, #4]
 8000eae:	2300      	movs	r3, #0
 8000eb0:	9300      	str	r3, [sp, #0]
 8000eb2:	f04f 33ff 	mov.w	r3, #4294967295
 8000eb6:	2201      	movs	r2, #1
 8000eb8:	2178      	movs	r1, #120	; 0x78
 8000eba:	f241 3088 	movw	r0, #5000	; 0x1388
 8000ebe:	f7ff fb79 	bl	80005b4 <_Z12RunStepMotorihmahtPKc>
 8000ec2:	b057      	add	sp, #348	; 0x15c
 8000ec4:	e8bd 8ff0 	ldmia.w	sp!, {r4, r5, r6, r7, r8, r9, sl, fp, pc}
 8000ec8:	08009650 	.word	0x08009650
 8000ecc:	40010800 	.word	0x40010800
 8000ed0:	080095f8 	.word	0x080095f8
 8000ed4:	ffffb1e0 	.word	0xffffb1e0
 8000ed8:	0800963b 	.word	0x0800963b
 8000edc:	08009654 	.word	0x08009654
 8000ee0:	08009574 	.word	0x08009574

08000ee4 <_ZNSt7__cxx1112basic_stringIcSt11char_traitsIcESaIcEE12_M_constructIPcEEvT_S7_St20forward_iterator_tag>:
 8000ee4:	b570      	push	{r4, r5, r6, lr}
 8000ee6:	b082      	sub	sp, #8
 8000ee8:	4605      	mov	r5, r0
 8000eea:	460e      	mov	r6, r1
 8000eec:	b161      	cbz	r1, 8000f08 <_ZNSt7__cxx1112basic_stringIcSt11char_traitsIcESaIcEE12_M_constructIPcEEvT_S7_St20forward_iterator_tag+0x24>
 8000eee:	1b94      	subs	r4, r2, r6
 8000ef0:	9401      	str	r4, [sp, #4]
 8000ef2:	2c0f      	cmp	r4, #15
 8000ef4:	d80d      	bhi.n	8000f12 <_ZNSt7__cxx1112basic_stringIcSt11char_traitsIcESaIcEE12_M_constructIPcEEvT_S7_St20forward_iterator_tag+0x2e>
 8000ef6:	6828      	ldr	r0, [r5, #0]
 8000ef8:	2c01      	cmp	r4, #1
 8000efa:	d013      	beq.n	8000f24 <_ZNSt7__cxx1112basic_stringIcSt11char_traitsIcESaIcEE12_M_constructIPcEEvT_S7_St20forward_iterator_tag+0x40>
 8000efc:	b1a4      	cbz	r4, 8000f28 <_ZNSt7__cxx1112basic_stringIcSt11char_traitsIcESaIcEE12_M_constructIPcEEvT_S7_St20forward_iterator_tag+0x44>
 8000efe:	4622      	mov	r2, r4
 8000f00:	4631      	mov	r1, r6
 8000f02:	f008 f90f 	bl	8009124 <memcpy>
 8000f06:	e00f      	b.n	8000f28 <_ZNSt7__cxx1112basic_stringIcSt11char_traitsIcESaIcEE12_M_constructIPcEEvT_S7_St20forward_iterator_tag+0x44>
 8000f08:	4291      	cmp	r1, r2
 8000f0a:	d0f0      	beq.n	8000eee <_ZNSt7__cxx1112basic_stringIcSt11char_traitsIcESaIcEE12_M_constructIPcEEvT_S7_St20forward_iterator_tag+0xa>
 8000f0c:	480a      	ldr	r0, [pc, #40]	; (8000f38 <_ZNSt7__cxx1112basic_stringIcSt11char_traitsIcESaIcEE12_M_constructIPcEEvT_S7_St20forward_iterator_tag+0x54>)
 8000f0e:	f007 fedc 	bl	8008cca <_ZSt19__throw_logic_errorPKc>
 8000f12:	2200      	movs	r2, #0
 8000f14:	a901      	add	r1, sp, #4
 8000f16:	4628      	mov	r0, r5
 8000f18:	f007 ffa2 	bl	8008e60 <_ZNSt7__cxx1112basic_stringIcSt11char_traitsIcESaIcEE9_M_createERjj>
 8000f1c:	6028      	str	r0, [r5, #0]
 8000f1e:	9b01      	ldr	r3, [sp, #4]
 8000f20:	60ab      	str	r3, [r5, #8]
 8000f22:	e7e8      	b.n	8000ef6 <_ZNSt7__cxx1112basic_stringIcSt11char_traitsIcESaIcEE12_M_constructIPcEEvT_S7_St20forward_iterator_tag+0x12>
 8000f24:	7833      	ldrb	r3, [r6, #0]
 8000f26:	7003      	strb	r3, [r0, #0]
 8000f28:	9b01      	ldr	r3, [sp, #4]
 8000f2a:	606b      	str	r3, [r5, #4]
 8000f2c:	682a      	ldr	r2, [r5, #0]
 8000f2e:	2100      	movs	r1, #0
 8000f30:	54d1      	strb	r1, [r2, r3]
 8000f32:	b002      	add	sp, #8
 8000f34:	bd70      	pop	{r4, r5, r6, pc}
 8000f36:	bf00      	nop
 8000f38:	080094c0 	.word	0x080094c0

08000f3c <_Z23convertCommandToIntListRNSt7__cxx1112basic_stringIcSt11char_traitsIcESaIcEEEPt>:
 8000f3c:	e92d 43f0 	stmdb	sp!, {r4, r5, r6, r7, r8, r9, lr}
 8000f40:	b09b      	sub	sp, #108	; 0x6c
 8000f42:	4607      	mov	r7, r0
 8000f44:	460c      	mov	r4, r1
 8000f46:	4690      	mov	r8, r2
 8000f48:	2200      	movs	r2, #0
 8000f4a:	212c      	movs	r1, #44	; 0x2c
 8000f4c:	4620      	mov	r0, r4
 8000f4e:	f008 f846 	bl	8008fde <_ZNKSt7__cxx1112basic_stringIcSt11char_traitsIcESaIcEE4findEcj>
 8000f52:	f1b0 3fff 	cmp.w	r0, #4294967295
 8000f56:	f000 8113 	beq.w	8001180 <_Z23convertCommandToIntListRNSt7__cxx1112basic_stringIcSt11char_traitsIcESaIcEEEPt+0x244>
 8000f5a:	2200      	movs	r2, #0
 8000f5c:	2128      	movs	r1, #40	; 0x28
 8000f5e:	4620      	mov	r0, r4
 8000f60:	f008 f83d 	bl	8008fde <_ZNKSt7__cxx1112basic_stringIcSt11char_traitsIcESaIcEE4findEcj>
 8000f64:	4605      	mov	r5, r0
 8000f66:	ab04      	add	r3, sp, #16
 8000f68:	9302      	str	r3, [sp, #8]
 8000f6a:	6821      	ldr	r1, [r4, #0]
 8000f6c:	6862      	ldr	r2, [r4, #4]
 8000f6e:	4290      	cmp	r0, r2
 8000f70:	d200      	bcs.n	8000f74 <_Z23convertCommandToIntListRNSt7__cxx1112basic_stringIcSt11char_traitsIcESaIcEEEPt+0x38>
 8000f72:	4602      	mov	r2, r0
 8000f74:	f04f 0300 	mov.w	r3, #0
 8000f78:	440a      	add	r2, r1
 8000f7a:	a802      	add	r0, sp, #8
 8000f7c:	f7ff fa52 	bl	8000424 <_ZNSt7__cxx1112basic_stringIcSt11char_traitsIcESaIcEE12_M_constructIPKcEEvT_S8_St20forward_iterator_tag>
 8000f80:	3501      	adds	r5, #1
 8000f82:	2200      	movs	r2, #0
 8000f84:	2129      	movs	r1, #41	; 0x29
 8000f86:	4620      	mov	r0, r4
 8000f88:	f008 f829 	bl	8008fde <_ZNKSt7__cxx1112basic_stringIcSt11char_traitsIcESaIcEE4findEcj>
 8000f8c:	6863      	ldr	r3, [r4, #4]
 8000f8e:	429d      	cmp	r5, r3
 8000f90:	d82e      	bhi.n	8000ff0 <_Z23convertCommandToIntListRNSt7__cxx1112basic_stringIcSt11char_traitsIcESaIcEEEPt+0xb4>
 8000f92:	ab10      	add	r3, sp, #64	; 0x40
 8000f94:	930e      	str	r3, [sp, #56]	; 0x38
 8000f96:	6821      	ldr	r1, [r4, #0]
 8000f98:	6862      	ldr	r2, [r4, #4]
 8000f9a:	4295      	cmp	r5, r2
 8000f9c:	d82d      	bhi.n	8000ffa <_Z23convertCommandToIntListRNSt7__cxx1112basic_stringIcSt11char_traitsIcESaIcEEEPt+0xbe>
 8000f9e:	4429      	add	r1, r5
 8000fa0:	1b52      	subs	r2, r2, r5
 8000fa2:	4290      	cmp	r0, r2
 8000fa4:	d200      	bcs.n	8000fa8 <_Z23convertCommandToIntListRNSt7__cxx1112basic_stringIcSt11char_traitsIcESaIcEEEPt+0x6c>
 8000fa6:	4602      	mov	r2, r0
 8000fa8:	f04f 0300 	mov.w	r3, #0
 8000fac:	440a      	add	r2, r1
 8000fae:	a80e      	add	r0, sp, #56	; 0x38
 8000fb0:	f7ff fa38 	bl	8000424 <_ZNSt7__cxx1112basic_stringIcSt11char_traitsIcESaIcEE12_M_constructIPKcEEvT_S8_St20forward_iterator_tag>
 8000fb4:	4623      	mov	r3, r4
 8000fb6:	f853 0b08 	ldr.w	r0, [r3], #8
 8000fba:	990e      	ldr	r1, [sp, #56]	; 0x38
 8000fbc:	aa10      	add	r2, sp, #64	; 0x40
 8000fbe:	4291      	cmp	r1, r2
 8000fc0:	d021      	beq.n	8001006 <_Z23convertCommandToIntListRNSt7__cxx1112basic_stringIcSt11char_traitsIcESaIcEEEPt+0xca>
 8000fc2:	4298      	cmp	r0, r3
 8000fc4:	d02e      	beq.n	8001024 <_Z23convertCommandToIntListRNSt7__cxx1112basic_stringIcSt11char_traitsIcESaIcEEEPt+0xe8>
 8000fc6:	68a6      	ldr	r6, [r4, #8]
 8000fc8:	6021      	str	r1, [r4, #0]
 8000fca:	9b0f      	ldr	r3, [sp, #60]	; 0x3c
 8000fcc:	6063      	str	r3, [r4, #4]
 8000fce:	9b10      	ldr	r3, [sp, #64]	; 0x40
 8000fd0:	60a3      	str	r3, [r4, #8]
 8000fd2:	b348      	cbz	r0, 8001028 <_Z23convertCommandToIntListRNSt7__cxx1112basic_stringIcSt11char_traitsIcESaIcEEEPt+0xec>
 8000fd4:	900e      	str	r0, [sp, #56]	; 0x38
 8000fd6:	9610      	str	r6, [sp, #64]	; 0x40
 8000fd8:	2300      	movs	r3, #0
 8000fda:	930f      	str	r3, [sp, #60]	; 0x3c
 8000fdc:	9a0e      	ldr	r2, [sp, #56]	; 0x38
 8000fde:	7013      	strb	r3, [r2, #0]
 8000fe0:	980e      	ldr	r0, [sp, #56]	; 0x38
 8000fe2:	ab10      	add	r3, sp, #64	; 0x40
 8000fe4:	4298      	cmp	r0, r3
 8000fe6:	d001      	beq.n	8000fec <_Z23convertCommandToIntListRNSt7__cxx1112basic_stringIcSt11char_traitsIcESaIcEEEPt+0xb0>
 8000fe8:	f007 fe6a 	bl	8008cc0 <_ZdlPv>
 8000fec:	2600      	movs	r6, #0
 8000fee:	e04a      	b.n	8001086 <_Z23convertCommandToIntListRNSt7__cxx1112basic_stringIcSt11char_traitsIcESaIcEEEPt+0x14a>
 8000ff0:	462a      	mov	r2, r5
 8000ff2:	4969      	ldr	r1, [pc, #420]	; (8001198 <_Z23convertCommandToIntListRNSt7__cxx1112basic_stringIcSt11char_traitsIcESaIcEEEPt+0x25c>)
 8000ff4:	4869      	ldr	r0, [pc, #420]	; (800119c <_Z23convertCommandToIntListRNSt7__cxx1112basic_stringIcSt11char_traitsIcESaIcEEEPt+0x260>)
 8000ff6:	f007 fe74 	bl	8008ce2 <_ZSt24__throw_out_of_range_fmtPKcz>
 8000ffa:	4613      	mov	r3, r2
 8000ffc:	462a      	mov	r2, r5
 8000ffe:	4968      	ldr	r1, [pc, #416]	; (80011a0 <_Z23convertCommandToIntListRNSt7__cxx1112basic_stringIcSt11char_traitsIcESaIcEEEPt+0x264>)
 8001000:	4866      	ldr	r0, [pc, #408]	; (800119c <_Z23convertCommandToIntListRNSt7__cxx1112basic_stringIcSt11char_traitsIcESaIcEEEPt+0x260>)
 8001002:	f007 fe6e 	bl	8008ce2 <_ZSt24__throw_out_of_range_fmtPKcz>
 8001006:	9a0f      	ldr	r2, [sp, #60]	; 0x3c
 8001008:	b11a      	cbz	r2, 8001012 <_Z23convertCommandToIntListRNSt7__cxx1112basic_stringIcSt11char_traitsIcESaIcEEEPt+0xd6>
 800100a:	2a01      	cmp	r2, #1
 800100c:	d007      	beq.n	800101e <_Z23convertCommandToIntListRNSt7__cxx1112basic_stringIcSt11char_traitsIcESaIcEEEPt+0xe2>
 800100e:	f008 f889 	bl	8009124 <memcpy>
 8001012:	9b0f      	ldr	r3, [sp, #60]	; 0x3c
 8001014:	6063      	str	r3, [r4, #4]
 8001016:	6822      	ldr	r2, [r4, #0]
 8001018:	2100      	movs	r1, #0
 800101a:	54d1      	strb	r1, [r2, r3]
 800101c:	e7dc      	b.n	8000fd8 <_Z23convertCommandToIntListRNSt7__cxx1112basic_stringIcSt11char_traitsIcESaIcEEEPt+0x9c>
 800101e:	780b      	ldrb	r3, [r1, #0]
 8001020:	7003      	strb	r3, [r0, #0]
 8001022:	e7f6      	b.n	8001012 <_Z23convertCommandToIntListRNSt7__cxx1112basic_stringIcSt11char_traitsIcESaIcEEEPt+0xd6>
 8001024:	2000      	movs	r0, #0
 8001026:	e7cf      	b.n	8000fc8 <_Z23convertCommandToIntListRNSt7__cxx1112basic_stringIcSt11char_traitsIcESaIcEEEPt+0x8c>
 8001028:	ab10      	add	r3, sp, #64	; 0x40
 800102a:	930e      	str	r3, [sp, #56]	; 0x38
 800102c:	e7d4      	b.n	8000fd8 <_Z23convertCommandToIntListRNSt7__cxx1112basic_stringIcSt11char_traitsIcESaIcEEEPt+0x9c>
 800102e:	6865      	ldr	r5, [r4, #4]
 8001030:	3d01      	subs	r5, #1
 8001032:	b26d      	sxtb	r5, r5
 8001034:	e037      	b.n	80010a6 <_Z23convertCommandToIntListRNSt7__cxx1112basic_stringIcSt11char_traitsIcESaIcEEEPt+0x16a>
 8001036:	4958      	ldr	r1, [pc, #352]	; (8001198 <_Z23convertCommandToIntListRNSt7__cxx1112basic_stringIcSt11char_traitsIcESaIcEEEPt+0x25c>)
 8001038:	4858      	ldr	r0, [pc, #352]	; (800119c <_Z23convertCommandToIntListRNSt7__cxx1112basic_stringIcSt11char_traitsIcESaIcEEEPt+0x260>)
 800103a:	f007 fe52 	bl	8008ce2 <_ZSt24__throw_out_of_range_fmtPKcz>
 800103e:	4958      	ldr	r1, [pc, #352]	; (80011a0 <_Z23convertCommandToIntListRNSt7__cxx1112basic_stringIcSt11char_traitsIcESaIcEEEPt+0x264>)
 8001040:	4856      	ldr	r0, [pc, #344]	; (800119c <_Z23convertCommandToIntListRNSt7__cxx1112basic_stringIcSt11char_traitsIcESaIcEEEPt+0x260>)
 8001042:	f007 fe4e 	bl	8008ce2 <_ZSt24__throw_out_of_range_fmtPKcz>
 8001046:	9a15      	ldr	r2, [sp, #84]	; 0x54
 8001048:	b11a      	cbz	r2, 8001052 <_Z23convertCommandToIntListRNSt7__cxx1112basic_stringIcSt11char_traitsIcESaIcEEEPt+0x116>
 800104a:	2a01      	cmp	r2, #1
 800104c:	d069      	beq.n	8001122 <_Z23convertCommandToIntListRNSt7__cxx1112basic_stringIcSt11char_traitsIcESaIcEEEPt+0x1e6>
 800104e:	f008 f869 	bl	8009124 <memcpy>
 8001052:	9b15      	ldr	r3, [sp, #84]	; 0x54
 8001054:	6063      	str	r3, [r4, #4]
 8001056:	6822      	ldr	r2, [r4, #0]
 8001058:	2100      	movs	r1, #0
 800105a:	54d1      	strb	r1, [r2, r3]
 800105c:	2300      	movs	r3, #0
 800105e:	9315      	str	r3, [sp, #84]	; 0x54
 8001060:	9a14      	ldr	r2, [sp, #80]	; 0x50
 8001062:	7013      	strb	r3, [r2, #0]
 8001064:	9814      	ldr	r0, [sp, #80]	; 0x50
 8001066:	ab16      	add	r3, sp, #88	; 0x58
 8001068:	4298      	cmp	r0, r3
 800106a:	d001      	beq.n	8001070 <_Z23convertCommandToIntListRNSt7__cxx1112basic_stringIcSt11char_traitsIcESaIcEEEPt+0x134>
 800106c:	f007 fe28 	bl	8008cc0 <_ZdlPv>
 8001070:	2005      	movs	r0, #5
 8001072:	f001 f827 	bl	80020c4 <HAL_Delay>
 8001076:	9808      	ldr	r0, [sp, #32]
 8001078:	ab0a      	add	r3, sp, #40	; 0x28
 800107a:	4298      	cmp	r0, r3
 800107c:	d001      	beq.n	8001082 <_Z23convertCommandToIntListRNSt7__cxx1112basic_stringIcSt11char_traitsIcESaIcEEEPt+0x146>
 800107e:	f007 fe1f 	bl	8008cc0 <_ZdlPv>
 8001082:	3601      	adds	r6, #1
 8001084:	b276      	sxtb	r6, r6
 8001086:	2e02      	cmp	r6, #2
 8001088:	dc53      	bgt.n	8001132 <_Z23convertCommandToIntListRNSt7__cxx1112basic_stringIcSt11char_traitsIcESaIcEEEPt+0x1f6>
 800108a:	2200      	movs	r2, #0
 800108c:	212c      	movs	r1, #44	; 0x2c
 800108e:	4620      	mov	r0, r4
 8001090:	f007 ffa5 	bl	8008fde <_ZNKSt7__cxx1112basic_stringIcSt11char_traitsIcESaIcEE4findEcj>
 8001094:	b245      	sxtb	r5, r0
 8001096:	2200      	movs	r2, #0
 8001098:	212c      	movs	r1, #44	; 0x2c
 800109a:	4620      	mov	r0, r4
 800109c:	f007 ff9f 	bl	8008fde <_ZNKSt7__cxx1112basic_stringIcSt11char_traitsIcESaIcEE4findEcj>
 80010a0:	f1b0 3fff 	cmp.w	r0, #4294967295
 80010a4:	d0c3      	beq.n	800102e <_Z23convertCommandToIntListRNSt7__cxx1112basic_stringIcSt11char_traitsIcESaIcEEEPt+0xf2>
 80010a6:	ab0a      	add	r3, sp, #40	; 0x28
 80010a8:	9308      	str	r3, [sp, #32]
 80010aa:	6821      	ldr	r1, [r4, #0]
 80010ac:	6862      	ldr	r2, [r4, #4]
 80010ae:	4295      	cmp	r5, r2
 80010b0:	d200      	bcs.n	80010b4 <_Z23convertCommandToIntListRNSt7__cxx1112basic_stringIcSt11char_traitsIcESaIcEEEPt+0x178>
 80010b2:	462a      	mov	r2, r5
 80010b4:	f04f 0300 	mov.w	r3, #0
 80010b8:	440a      	add	r2, r1
 80010ba:	a808      	add	r0, sp, #32
 80010bc:	f7ff f9b2 	bl	8000424 <_ZNSt7__cxx1112basic_stringIcSt11char_traitsIcESaIcEE12_M_constructIPKcEEvT_S8_St20forward_iterator_tag>
 80010c0:	230a      	movs	r3, #10
 80010c2:	9300      	str	r3, [sp, #0]
 80010c4:	2300      	movs	r3, #0
 80010c6:	9a08      	ldr	r2, [sp, #32]
 80010c8:	4936      	ldr	r1, [pc, #216]	; (80011a4 <_Z23convertCommandToIntListRNSt7__cxx1112basic_stringIcSt11char_traitsIcESaIcEEEPt+0x268>)
 80010ca:	4837      	ldr	r0, [pc, #220]	; (80011a8 <_Z23convertCommandToIntListRNSt7__cxx1112basic_stringIcSt11char_traitsIcESaIcEEEPt+0x26c>)
 80010cc:	f7ff f978 	bl	80003c0 <_ZN9__gnu_cxx6__stoaIlicJiEEET0_PFT_PKT1_PPS3_DpT2_EPKcS5_PjS9_>
 80010d0:	f828 0016 	strh.w	r0, [r8, r6, lsl #1]
 80010d4:	1c6a      	adds	r2, r5, #1
 80010d6:	6863      	ldr	r3, [r4, #4]
 80010d8:	429a      	cmp	r2, r3
 80010da:	d8ac      	bhi.n	8001036 <_Z23convertCommandToIntListRNSt7__cxx1112basic_stringIcSt11char_traitsIcESaIcEEEPt+0xfa>
 80010dc:	ab16      	add	r3, sp, #88	; 0x58
 80010de:	9314      	str	r3, [sp, #80]	; 0x50
 80010e0:	6821      	ldr	r1, [r4, #0]
 80010e2:	6863      	ldr	r3, [r4, #4]
 80010e4:	429a      	cmp	r2, r3
 80010e6:	d8aa      	bhi.n	800103e <_Z23convertCommandToIntListRNSt7__cxx1112basic_stringIcSt11char_traitsIcESaIcEEEPt+0x102>
 80010e8:	4411      	add	r1, r2
 80010ea:	1a9a      	subs	r2, r3, r2
 80010ec:	f04f 0300 	mov.w	r3, #0
 80010f0:	440a      	add	r2, r1
 80010f2:	a814      	add	r0, sp, #80	; 0x50
 80010f4:	f7ff f996 	bl	8000424 <_ZNSt7__cxx1112basic_stringIcSt11char_traitsIcESaIcEE12_M_constructIPKcEEvT_S8_St20forward_iterator_tag>
 80010f8:	4623      	mov	r3, r4
 80010fa:	f853 0b08 	ldr.w	r0, [r3], #8
 80010fe:	9914      	ldr	r1, [sp, #80]	; 0x50
 8001100:	aa16      	add	r2, sp, #88	; 0x58
 8001102:	4291      	cmp	r1, r2
 8001104:	d09f      	beq.n	8001046 <_Z23convertCommandToIntListRNSt7__cxx1112basic_stringIcSt11char_traitsIcESaIcEEEPt+0x10a>
 8001106:	4298      	cmp	r0, r3
 8001108:	d00e      	beq.n	8001128 <_Z23convertCommandToIntListRNSt7__cxx1112basic_stringIcSt11char_traitsIcESaIcEEEPt+0x1ec>
 800110a:	f8d4 9008 	ldr.w	r9, [r4, #8]
 800110e:	6021      	str	r1, [r4, #0]
 8001110:	9b15      	ldr	r3, [sp, #84]	; 0x54
 8001112:	6063      	str	r3, [r4, #4]
 8001114:	9b16      	ldr	r3, [sp, #88]	; 0x58
 8001116:	60a3      	str	r3, [r4, #8]
 8001118:	b140      	cbz	r0, 800112c <_Z23convertCommandToIntListRNSt7__cxx1112basic_stringIcSt11char_traitsIcESaIcEEEPt+0x1f0>
 800111a:	9014      	str	r0, [sp, #80]	; 0x50
 800111c:	f8cd 9058 	str.w	r9, [sp, #88]	; 0x58
 8001120:	e79c      	b.n	800105c <_Z23convertCommandToIntListRNSt7__cxx1112basic_stringIcSt11char_traitsIcESaIcEEEPt+0x120>
 8001122:	780b      	ldrb	r3, [r1, #0]
 8001124:	7003      	strb	r3, [r0, #0]
 8001126:	e794      	b.n	8001052 <_Z23convertCommandToIntListRNSt7__cxx1112basic_stringIcSt11char_traitsIcESaIcEEEPt+0x116>
 8001128:	2000      	movs	r0, #0
 800112a:	e7f0      	b.n	800110e <_Z23convertCommandToIntListRNSt7__cxx1112basic_stringIcSt11char_traitsIcESaIcEEEPt+0x1d2>
 800112c:	ab16      	add	r3, sp, #88	; 0x58
 800112e:	9314      	str	r3, [sp, #80]	; 0x50
 8001130:	e794      	b.n	800105c <_Z23convertCommandToIntListRNSt7__cxx1112basic_stringIcSt11char_traitsIcESaIcEEEPt+0x120>
 8001132:	9b03      	ldr	r3, [sp, #12]
 8001134:	f1c3 537f 	rsb	r3, r3, #1069547520	; 0x3fc00000
 8001138:	f503 137f 	add.w	r3, r3, #4177920	; 0x3fc000
 800113c:	f503 537f 	add.w	r3, r3, #16320	; 0x3fc0
 8001140:	333f      	adds	r3, #63	; 0x3f
 8001142:	2b01      	cmp	r3, #1
 8001144:	d919      	bls.n	800117a <_Z23convertCommandToIntListRNSt7__cxx1112basic_stringIcSt11char_traitsIcESaIcEEEPt+0x23e>
 8001146:	2202      	movs	r2, #2
 8001148:	4918      	ldr	r1, [pc, #96]	; (80011ac <_Z23convertCommandToIntListRNSt7__cxx1112basic_stringIcSt11char_traitsIcESaIcEEEPt+0x270>)
 800114a:	a802      	add	r0, sp, #8
 800114c:	f007 fef6 	bl	8008f3c <_ZNSt7__cxx1112basic_stringIcSt11char_traitsIcESaIcEE9_M_appendEPKcj>
 8001150:	f107 0308 	add.w	r3, r7, #8
 8001154:	603b      	str	r3, [r7, #0]
 8001156:	6801      	ldr	r1, [r0, #0]
 8001158:	6842      	ldr	r2, [r0, #4]
 800115a:	f04f 0300 	mov.w	r3, #0
 800115e:	440a      	add	r2, r1
 8001160:	4638      	mov	r0, r7
 8001162:	f7ff febf 	bl	8000ee4 <_ZNSt7__cxx1112basic_stringIcSt11char_traitsIcESaIcEE12_M_constructIPcEEvT_S7_St20forward_iterator_tag>
 8001166:	9802      	ldr	r0, [sp, #8]
 8001168:	ab04      	add	r3, sp, #16
 800116a:	4298      	cmp	r0, r3
 800116c:	d001      	beq.n	8001172 <_Z23convertCommandToIntListRNSt7__cxx1112basic_stringIcSt11char_traitsIcESaIcEEEPt+0x236>
 800116e:	f007 fda7 	bl	8008cc0 <_ZdlPv>
 8001172:	4638      	mov	r0, r7
 8001174:	b01b      	add	sp, #108	; 0x6c
 8001176:	e8bd 83f0 	ldmia.w	sp!, {r4, r5, r6, r7, r8, r9, pc}
 800117a:	480d      	ldr	r0, [pc, #52]	; (80011b0 <_Z23convertCommandToIntListRNSt7__cxx1112basic_stringIcSt11char_traitsIcESaIcEEEPt+0x274>)
 800117c:	f007 fdab 	bl	8008cd6 <_ZSt20__throw_length_errorPKc>
 8001180:	f107 0308 	add.w	r3, r7, #8
 8001184:	603b      	str	r3, [r7, #0]
 8001186:	6821      	ldr	r1, [r4, #0]
 8001188:	6862      	ldr	r2, [r4, #4]
 800118a:	f04f 0300 	mov.w	r3, #0
 800118e:	440a      	add	r2, r1
 8001190:	4638      	mov	r0, r7
 8001192:	f7ff fea7 	bl	8000ee4 <_ZNSt7__cxx1112basic_stringIcSt11char_traitsIcESaIcEE12_M_constructIPcEEvT_S7_St20forward_iterator_tag>
 8001196:	e7ec      	b.n	8001172 <_Z23convertCommandToIntListRNSt7__cxx1112basic_stringIcSt11char_traitsIcESaIcEEEPt+0x236>
 8001198:	08009658 	.word	0x08009658
 800119c:	08009670 	.word	0x08009670
 80011a0:	080096a8 	.word	0x080096a8
 80011a4:	080096c4 	.word	0x080096c4
 80011a8:	08009461 	.word	0x08009461
 80011ac:	080096cc 	.word	0x080096cc
 80011b0:	080094a8 	.word	0x080094a8

080011b4 <_Z14executeCommandNSt7__cxx1112basic_stringIcSt11char_traitsIcESaIcEEE>:
 80011b4:	b510      	push	{r4, lr}
 80011b6:	b0a0      	sub	sp, #128	; 0x80
 80011b8:	4601      	mov	r1, r0
 80011ba:	4a57      	ldr	r2, [pc, #348]	; (8001318 <_Z14executeCommandNSt7__cxx1112basic_stringIcSt11char_traitsIcESaIcEEE+0x164>)
 80011bc:	a801      	add	r0, sp, #4
 80011be:	f7ff febd 	bl	8000f3c <_Z23convertCommandToIntListRNSt7__cxx1112basic_stringIcSt11char_traitsIcESaIcEEEPt>
 80011c2:	2308      	movs	r3, #8
 80011c4:	2200      	movs	r2, #0
 80011c6:	4955      	ldr	r1, [pc, #340]	; (800131c <_Z14executeCommandNSt7__cxx1112basic_stringIcSt11char_traitsIcESaIcEEE+0x168>)
 80011c8:	a801      	add	r0, sp, #4
 80011ca:	f007 fed7 	bl	8008f7c <_ZNKSt7__cxx1112basic_stringIcSt11char_traitsIcESaIcEE4findEPKcjj>
 80011ce:	f1b0 3fff 	cmp.w	r0, #4294967295
 80011d2:	d129      	bne.n	8001228 <_Z14executeCommandNSt7__cxx1112basic_stringIcSt11char_traitsIcESaIcEEE+0x74>
 80011d4:	2309      	movs	r3, #9
 80011d6:	2200      	movs	r2, #0
 80011d8:	4951      	ldr	r1, [pc, #324]	; (8001320 <_Z14executeCommandNSt7__cxx1112basic_stringIcSt11char_traitsIcESaIcEEE+0x16c>)
 80011da:	a801      	add	r0, sp, #4
 80011dc:	f007 fece 	bl	8008f7c <_ZNKSt7__cxx1112basic_stringIcSt11char_traitsIcESaIcEE4findEPKcjj>
 80011e0:	f1b0 3fff 	cmp.w	r0, #4294967295
 80011e4:	d03e      	beq.n	8001264 <_Z14executeCommandNSt7__cxx1112basic_stringIcSt11char_traitsIcESaIcEEE+0xb0>
 80011e6:	ac10      	add	r4, sp, #64	; 0x40
 80011e8:	940e      	str	r4, [sp, #56]	; 0x38
 80011ea:	4a4e      	ldr	r2, [pc, #312]	; (8001324 <_Z14executeCommandNSt7__cxx1112basic_stringIcSt11char_traitsIcESaIcEEE+0x170>)
 80011ec:	f04f 0300 	mov.w	r3, #0
 80011f0:	f1a2 0112 	sub.w	r1, r2, #18
 80011f4:	a80e      	add	r0, sp, #56	; 0x38
 80011f6:	f7ff f915 	bl	8000424 <_ZNSt7__cxx1112basic_stringIcSt11char_traitsIcESaIcEE12_M_constructIPKcEEvT_S8_St20forward_iterator_tag>
 80011fa:	a80e      	add	r0, sp, #56	; 0x38
 80011fc:	f7ff f8b4 	bl	8000368 <_Z3MsgNSt7__cxx1112basic_stringIcSt11char_traitsIcESaIcEEE>
 8001200:	980e      	ldr	r0, [sp, #56]	; 0x38
 8001202:	42a0      	cmp	r0, r4
 8001204:	d001      	beq.n	800120a <_Z14executeCommandNSt7__cxx1112basic_stringIcSt11char_traitsIcESaIcEEE+0x56>
 8001206:	f007 fd5b 	bl	8008cc0 <_ZdlPv>
 800120a:	4a47      	ldr	r2, [pc, #284]	; (8001328 <_Z14executeCommandNSt7__cxx1112basic_stringIcSt11char_traitsIcESaIcEEE+0x174>)
 800120c:	2300      	movs	r3, #0
 800120e:	6053      	str	r3, [r2, #4]
 8001210:	6812      	ldr	r2, [r2, #0]
 8001212:	7013      	strb	r3, [r2, #0]
 8001214:	4a45      	ldr	r2, [pc, #276]	; (800132c <_Z14executeCommandNSt7__cxx1112basic_stringIcSt11char_traitsIcESaIcEEE+0x178>)
 8001216:	7013      	strb	r3, [r2, #0]
 8001218:	9801      	ldr	r0, [sp, #4]
 800121a:	ab03      	add	r3, sp, #12
 800121c:	4298      	cmp	r0, r3
 800121e:	d001      	beq.n	8001224 <_Z14executeCommandNSt7__cxx1112basic_stringIcSt11char_traitsIcESaIcEEE+0x70>
 8001220:	f007 fd4e 	bl	8008cc0 <_ZdlPv>
 8001224:	b020      	add	sp, #128	; 0x80
 8001226:	bd10      	pop	{r4, pc}
 8001228:	aa0d      	add	r2, sp, #52	; 0x34
 800122a:	4941      	ldr	r1, [pc, #260]	; (8001330 <_Z14executeCommandNSt7__cxx1112basic_stringIcSt11char_traitsIcESaIcEEE+0x17c>)
 800122c:	a807      	add	r0, sp, #28
 800122e:	f007 feeb 	bl	8009008 <_ZNSt7__cxx1112basic_stringIcSt11char_traitsIcESaIcEEC1EPKcRKS3_>
 8001232:	a807      	add	r0, sp, #28
 8001234:	f7ff f898 	bl	8000368 <_Z3MsgNSt7__cxx1112basic_stringIcSt11char_traitsIcESaIcEEE>
 8001238:	9807      	ldr	r0, [sp, #28]
 800123a:	ab09      	add	r3, sp, #36	; 0x24
 800123c:	4298      	cmp	r0, r3
 800123e:	d001      	beq.n	8001244 <_Z14executeCommandNSt7__cxx1112basic_stringIcSt11char_traitsIcESaIcEEE+0x90>
 8001240:	f007 fd3e 	bl	8008cc0 <_ZdlPv>
 8001244:	2301      	movs	r3, #1
 8001246:	f383 8813 	msr	FAULTMASK, r3
 800124a:	f3bf 8f4f 	dsb	sy
 800124e:	4939      	ldr	r1, [pc, #228]	; (8001334 <_Z14executeCommandNSt7__cxx1112basic_stringIcSt11char_traitsIcESaIcEEE+0x180>)
 8001250:	68ca      	ldr	r2, [r1, #12]
 8001252:	f402 62e0 	and.w	r2, r2, #1792	; 0x700
 8001256:	4b38      	ldr	r3, [pc, #224]	; (8001338 <_Z14executeCommandNSt7__cxx1112basic_stringIcSt11char_traitsIcESaIcEEE+0x184>)
 8001258:	4313      	orrs	r3, r2
 800125a:	60cb      	str	r3, [r1, #12]
 800125c:	f3bf 8f4f 	dsb	sy
 8001260:	bf00      	nop
 8001262:	e7fd      	b.n	8001260 <_Z14executeCommandNSt7__cxx1112basic_stringIcSt11char_traitsIcESaIcEEE+0xac>
 8001264:	2308      	movs	r3, #8
 8001266:	2200      	movs	r2, #0
 8001268:	4934      	ldr	r1, [pc, #208]	; (800133c <_Z14executeCommandNSt7__cxx1112basic_stringIcSt11char_traitsIcESaIcEEE+0x188>)
 800126a:	a801      	add	r0, sp, #4
 800126c:	f007 fe86 	bl	8008f7c <_ZNKSt7__cxx1112basic_stringIcSt11char_traitsIcESaIcEE4findEPKcjj>
 8001270:	f1b0 3fff 	cmp.w	r0, #4294967295
 8001274:	d018      	beq.n	80012a8 <_Z14executeCommandNSt7__cxx1112basic_stringIcSt11char_traitsIcESaIcEEE+0xf4>
 8001276:	ac16      	add	r4, sp, #88	; 0x58
 8001278:	9414      	str	r4, [sp, #80]	; 0x50
 800127a:	4a31      	ldr	r2, [pc, #196]	; (8001340 <_Z14executeCommandNSt7__cxx1112basic_stringIcSt11char_traitsIcESaIcEEE+0x18c>)
 800127c:	f04f 0300 	mov.w	r3, #0
 8001280:	f1a2 010f 	sub.w	r1, r2, #15
 8001284:	a814      	add	r0, sp, #80	; 0x50
 8001286:	f7ff f8cd 	bl	8000424 <_ZNSt7__cxx1112basic_stringIcSt11char_traitsIcESaIcEE12_M_constructIPKcEEvT_S8_St20forward_iterator_tag>
 800128a:	a814      	add	r0, sp, #80	; 0x50
 800128c:	f7ff f86c 	bl	8000368 <_Z3MsgNSt7__cxx1112basic_stringIcSt11char_traitsIcESaIcEEE>
 8001290:	9814      	ldr	r0, [sp, #80]	; 0x50
 8001292:	42a0      	cmp	r0, r4
 8001294:	d001      	beq.n	800129a <_Z14executeCommandNSt7__cxx1112basic_stringIcSt11char_traitsIcESaIcEEE+0xe6>
 8001296:	f007 fd13 	bl	8008cc0 <_ZdlPv>
 800129a:	4b1f      	ldr	r3, [pc, #124]	; (8001318 <_Z14executeCommandNSt7__cxx1112basic_stringIcSt11char_traitsIcESaIcEEE+0x164>)
 800129c:	791a      	ldrb	r2, [r3, #4]
 800129e:	7899      	ldrb	r1, [r3, #2]
 80012a0:	8818      	ldrh	r0, [r3, #0]
 80012a2:	f7ff fbbf 	bl	8000a24 <_Z9Main_functhh>
 80012a6:	e7b0      	b.n	800120a <_Z14executeCommandNSt7__cxx1112basic_stringIcSt11char_traitsIcESaIcEEE+0x56>
 80012a8:	230c      	movs	r3, #12
 80012aa:	2200      	movs	r2, #0
 80012ac:	4925      	ldr	r1, [pc, #148]	; (8001344 <_Z14executeCommandNSt7__cxx1112basic_stringIcSt11char_traitsIcESaIcEEE+0x190>)
 80012ae:	a801      	add	r0, sp, #4
 80012b0:	f007 fe64 	bl	8008f7c <_ZNKSt7__cxx1112basic_stringIcSt11char_traitsIcESaIcEE4findEPKcjj>
 80012b4:	f1b0 3fff 	cmp.w	r0, #4294967295
 80012b8:	d015      	beq.n	80012e6 <_Z14executeCommandNSt7__cxx1112basic_stringIcSt11char_traitsIcESaIcEEE+0x132>
 80012ba:	ac1c      	add	r4, sp, #112	; 0x70
 80012bc:	941a      	str	r4, [sp, #104]	; 0x68
 80012be:	4a22      	ldr	r2, [pc, #136]	; (8001348 <_Z14executeCommandNSt7__cxx1112basic_stringIcSt11char_traitsIcESaIcEEE+0x194>)
 80012c0:	f04f 0300 	mov.w	r3, #0
 80012c4:	f1a2 010f 	sub.w	r1, r2, #15
 80012c8:	a81a      	add	r0, sp, #104	; 0x68
 80012ca:	f7ff f8ab 	bl	8000424 <_ZNSt7__cxx1112basic_stringIcSt11char_traitsIcESaIcEE12_M_constructIPKcEEvT_S8_St20forward_iterator_tag>
 80012ce:	a81a      	add	r0, sp, #104	; 0x68
 80012d0:	f7ff f84a 	bl	8000368 <_Z3MsgNSt7__cxx1112basic_stringIcSt11char_traitsIcESaIcEEE>
 80012d4:	981a      	ldr	r0, [sp, #104]	; 0x68
 80012d6:	42a0      	cmp	r0, r4
 80012d8:	d001      	beq.n	80012de <_Z14executeCommandNSt7__cxx1112basic_stringIcSt11char_traitsIcESaIcEEE+0x12a>
 80012da:	f007 fcf1 	bl	8008cc0 <_ZdlPv>
 80012de:	4b1b      	ldr	r3, [pc, #108]	; (800134c <_Z14executeCommandNSt7__cxx1112basic_stringIcSt11char_traitsIcESaIcEEE+0x198>)
 80012e0:	2200      	movs	r2, #0
 80012e2:	701a      	strb	r2, [r3, #0]
 80012e4:	e791      	b.n	800120a <_Z14executeCommandNSt7__cxx1112basic_stringIcSt11char_traitsIcESaIcEEE+0x56>
 80012e6:	230b      	movs	r3, #11
 80012e8:	2200      	movs	r2, #0
 80012ea:	4919      	ldr	r1, [pc, #100]	; (8001350 <_Z14executeCommandNSt7__cxx1112basic_stringIcSt11char_traitsIcESaIcEEE+0x19c>)
 80012ec:	a801      	add	r0, sp, #4
 80012ee:	f007 fe45 	bl	8008f7c <_ZNKSt7__cxx1112basic_stringIcSt11char_traitsIcESaIcEE4findEPKcjj>
 80012f2:	f1b0 3fff 	cmp.w	r0, #4294967295
 80012f6:	d002      	beq.n	80012fe <_Z14executeCommandNSt7__cxx1112basic_stringIcSt11char_traitsIcESaIcEEE+0x14a>
 80012f8:	f7ff fa58 	bl	80007ac <_Z9PrintFotov>
 80012fc:	e785      	b.n	800120a <_Z14executeCommandNSt7__cxx1112basic_stringIcSt11char_traitsIcESaIcEEE+0x56>
 80012fe:	2309      	movs	r3, #9
 8001300:	2200      	movs	r2, #0
 8001302:	4914      	ldr	r1, [pc, #80]	; (8001354 <_Z14executeCommandNSt7__cxx1112basic_stringIcSt11char_traitsIcESaIcEEE+0x1a0>)
 8001304:	a801      	add	r0, sp, #4
 8001306:	f007 fe39 	bl	8008f7c <_ZNKSt7__cxx1112basic_stringIcSt11char_traitsIcESaIcEE4findEPKcjj>
 800130a:	f1b0 3fff 	cmp.w	r0, #4294967295
 800130e:	f43f af7c 	beq.w	800120a <_Z14executeCommandNSt7__cxx1112basic_stringIcSt11char_traitsIcESaIcEEE+0x56>
 8001312:	f7ff fb61 	bl	80009d8 <_Z7MagnFrvv>
 8001316:	e778      	b.n	800120a <_Z14executeCommandNSt7__cxx1112basic_stringIcSt11char_traitsIcESaIcEEE+0x56>
 8001318:	20000240 	.word	0x20000240
 800131c:	080096d0 	.word	0x080096d0
 8001320:	080096f0 	.word	0x080096f0
 8001324:	0800970e 	.word	0x0800970e
 8001328:	20000204 	.word	0x20000204
 800132c:	20000233 	.word	0x20000233
 8001330:	080096dc 	.word	0x080096dc
 8001334:	e000ed00 	.word	0xe000ed00
 8001338:	05fa0004 	.word	0x05fa0004
 800133c:	08009710 	.word	0x08009710
 8001340:	0800972b 	.word	0x0800972b
 8001344:	0800972c 	.word	0x0800972c
 8001348:	0800974b 	.word	0x0800974b
 800134c:	20000231 	.word	0x20000231
 8001350:	0800974c 	.word	0x0800974c
 8001354:	08009758 	.word	0x08009758

08001358 <_GLOBAL__sub_I_fl_er>:
 8001358:	b508      	push	{r3, lr}
 800135a:	f64f 71ff 	movw	r1, #65535	; 0xffff
 800135e:	2001      	movs	r0, #1
 8001360:	f7fe fefc 	bl	800015c <_Z41__static_initialization_and_destruction_0ii>
 8001364:	bd08      	pop	{r3, pc}

08001366 <_GLOBAL__sub_D_fl_er>:
 8001366:	b508      	push	{r3, lr}
 8001368:	f64f 71ff 	movw	r1, #65535	; 0xffff
 800136c:	2000      	movs	r0, #0
 800136e:	f7fe fef5 	bl	800015c <_Z41__static_initialization_and_destruction_0ii>
 8001372:	bd08      	pop	{r3, pc}

08001374 <_ZL12MX_GPIO_Initv>:
 8001374:	e92d 41f0 	stmdb	sp!, {r4, r5, r6, r7, r8, lr}
 8001378:	b088      	sub	sp, #32
 800137a:	2400      	movs	r4, #0
 800137c:	9404      	str	r4, [sp, #16]
 800137e:	9405      	str	r4, [sp, #20]
 8001380:	9406      	str	r4, [sp, #24]
 8001382:	9407      	str	r4, [sp, #28]
 8001384:	4b38      	ldr	r3, [pc, #224]	; (8001468 <_ZL12MX_GPIO_Initv+0xf4>)
 8001386:	699a      	ldr	r2, [r3, #24]
 8001388:	f042 0210 	orr.w	r2, r2, #16
 800138c:	619a      	str	r2, [r3, #24]
 800138e:	699a      	ldr	r2, [r3, #24]
 8001390:	f002 0210 	and.w	r2, r2, #16
 8001394:	9200      	str	r2, [sp, #0]
 8001396:	9a00      	ldr	r2, [sp, #0]
 8001398:	699a      	ldr	r2, [r3, #24]
 800139a:	f042 0220 	orr.w	r2, r2, #32
 800139e:	619a      	str	r2, [r3, #24]
 80013a0:	699a      	ldr	r2, [r3, #24]
 80013a2:	f002 0220 	and.w	r2, r2, #32
 80013a6:	9201      	str	r2, [sp, #4]
 80013a8:	9a01      	ldr	r2, [sp, #4]
 80013aa:	699a      	ldr	r2, [r3, #24]
 80013ac:	f042 0204 	orr.w	r2, r2, #4
 80013b0:	619a      	str	r2, [r3, #24]
 80013b2:	699a      	ldr	r2, [r3, #24]
 80013b4:	f002 0204 	and.w	r2, r2, #4
 80013b8:	9202      	str	r2, [sp, #8]
 80013ba:	9a02      	ldr	r2, [sp, #8]
 80013bc:	699a      	ldr	r2, [r3, #24]
 80013be:	f042 0208 	orr.w	r2, r2, #8
 80013c2:	619a      	str	r2, [r3, #24]
 80013c4:	699b      	ldr	r3, [r3, #24]
 80013c6:	f003 0308 	and.w	r3, r3, #8
 80013ca:	9303      	str	r3, [sp, #12]
 80013cc:	9b03      	ldr	r3, [sp, #12]
 80013ce:	4d27      	ldr	r5, [pc, #156]	; (800146c <_ZL12MX_GPIO_Initv+0xf8>)
 80013d0:	4622      	mov	r2, r4
 80013d2:	f44f 61fe 	mov.w	r1, #2032	; 0x7f0
 80013d6:	4628      	mov	r0, r5
 80013d8:	f001 fcaf 	bl	8002d3a <HAL_GPIO_WritePin>
 80013dc:	4f24      	ldr	r7, [pc, #144]	; (8001470 <_ZL12MX_GPIO_Initv+0xfc>)
 80013de:	4622      	mov	r2, r4
 80013e0:	f64d 4103 	movw	r1, #56323	; 0xdc03
 80013e4:	4638      	mov	r0, r7
 80013e6:	f001 fca8 	bl	8002d3a <HAL_GPIO_WritePin>
 80013ea:	f44f 43c0 	mov.w	r3, #24576	; 0x6000
 80013ee:	9304      	str	r3, [sp, #16]
 80013f0:	9405      	str	r4, [sp, #20]
 80013f2:	9406      	str	r4, [sp, #24]
 80013f4:	a904      	add	r1, sp, #16
 80013f6:	481f      	ldr	r0, [pc, #124]	; (8001474 <_ZL12MX_GPIO_Initv+0x100>)
 80013f8:	f001 fb88 	bl	8002b0c <HAL_GPIO_Init>
 80013fc:	f44f 63fe 	mov.w	r3, #2032	; 0x7f0
 8001400:	9304      	str	r3, [sp, #16]
 8001402:	2601      	movs	r6, #1
 8001404:	9605      	str	r6, [sp, #20]
 8001406:	9406      	str	r4, [sp, #24]
 8001408:	f04f 0802 	mov.w	r8, #2
 800140c:	f8cd 801c 	str.w	r8, [sp, #28]
 8001410:	a904      	add	r1, sp, #16
 8001412:	4628      	mov	r0, r5
 8001414:	f001 fb7a 	bl	8002b0c <HAL_GPIO_Init>
 8001418:	f64d 4303 	movw	r3, #56323	; 0xdc03
 800141c:	9304      	str	r3, [sp, #16]
 800141e:	9605      	str	r6, [sp, #20]
 8001420:	9406      	str	r4, [sp, #24]
 8001422:	f8cd 801c 	str.w	r8, [sp, #28]
 8001426:	a904      	add	r1, sp, #16
 8001428:	4638      	mov	r0, r7
 800142a:	f001 fb6f 	bl	8002b0c <HAL_GPIO_Init>
 800142e:	f44f 4300 	mov.w	r3, #32768	; 0x8000
 8001432:	9304      	str	r3, [sp, #16]
 8001434:	9405      	str	r4, [sp, #20]
 8001436:	9606      	str	r6, [sp, #24]
 8001438:	a904      	add	r1, sp, #16
 800143a:	4628      	mov	r0, r5
 800143c:	f001 fb66 	bl	8002b0c <HAL_GPIO_Init>
 8001440:	2320      	movs	r3, #32
 8001442:	9304      	str	r3, [sp, #16]
 8001444:	9405      	str	r4, [sp, #20]
 8001446:	9406      	str	r4, [sp, #24]
 8001448:	a904      	add	r1, sp, #16
 800144a:	4638      	mov	r0, r7
 800144c:	f001 fb5e 	bl	8002b0c <HAL_GPIO_Init>
 8001450:	2304      	movs	r3, #4
 8001452:	9304      	str	r3, [sp, #16]
 8001454:	9405      	str	r4, [sp, #20]
 8001456:	9606      	str	r6, [sp, #24]
 8001458:	a904      	add	r1, sp, #16
 800145a:	4628      	mov	r0, r5
 800145c:	f001 fb56 	bl	8002b0c <HAL_GPIO_Init>
 8001460:	b008      	add	sp, #32
 8001462:	e8bd 81f0 	ldmia.w	sp!, {r4, r5, r6, r7, r8, pc}
 8001466:	bf00      	nop
 8001468:	40021000 	.word	0x40021000
 800146c:	40010800 	.word	0x40010800
 8001470:	40010c00 	.word	0x40010c00
 8001474:	40011000 	.word	0x40011000

08001478 <_ZL11MX_DMA_Initv>:
 8001478:	b500      	push	{lr}
 800147a:	b083      	sub	sp, #12
 800147c:	4b0e      	ldr	r3, [pc, #56]	; (80014b8 <_ZL11MX_DMA_Initv+0x40>)
 800147e:	695a      	ldr	r2, [r3, #20]
 8001480:	f042 0201 	orr.w	r2, r2, #1
 8001484:	615a      	str	r2, [r3, #20]
 8001486:	695b      	ldr	r3, [r3, #20]
 8001488:	f003 0301 	and.w	r3, r3, #1
 800148c:	9301      	str	r3, [sp, #4]
 800148e:	9b01      	ldr	r3, [sp, #4]
 8001490:	2200      	movs	r2, #0
 8001492:	4611      	mov	r1, r2
 8001494:	200c      	movs	r0, #12
 8001496:	f001 f9b9 	bl	800280c <HAL_NVIC_SetPriority>
 800149a:	200c      	movs	r0, #12
 800149c:	f001 f9ea 	bl	8002874 <HAL_NVIC_EnableIRQ>
 80014a0:	2200      	movs	r2, #0
 80014a2:	4611      	mov	r1, r2
 80014a4:	2011      	movs	r0, #17
 80014a6:	f001 f9b1 	bl	800280c <HAL_NVIC_SetPriority>
 80014aa:	2011      	movs	r0, #17
 80014ac:	f001 f9e2 	bl	8002874 <HAL_NVIC_EnableIRQ>
 80014b0:	b003      	add	sp, #12
 80014b2:	f85d fb04 	ldr.w	pc, [sp], #4
 80014b6:	bf00      	nop
 80014b8:	40021000 	.word	0x40021000

080014bc <HAL_ADCEx_InjectedConvCpltCallback>:
 80014bc:	b510      	push	{r4, lr}
 80014be:	6802      	ldr	r2, [r0, #0]
 80014c0:	4b17      	ldr	r3, [pc, #92]	; (8001520 <HAL_ADCEx_InjectedConvCpltCallback+0x64>)
 80014c2:	429a      	cmp	r2, r3
 80014c4:	d015      	beq.n	80014f2 <HAL_ADCEx_InjectedConvCpltCallback+0x36>
 80014c6:	4b17      	ldr	r3, [pc, #92]	; (8001524 <HAL_ADCEx_InjectedConvCpltCallback+0x68>)
 80014c8:	881b      	ldrh	r3, [r3, #0]
 80014ca:	f5b3 6f00 	cmp.w	r3, #2048	; 0x800
 80014ce:	d31e      	bcc.n	800150e <HAL_ADCEx_InjectedConvCpltCallback+0x52>
 80014d0:	f5a3 6300 	sub.w	r3, r3, #2048	; 0x800
 80014d4:	4a13      	ldr	r2, [pc, #76]	; (8001524 <HAL_ADCEx_InjectedConvCpltCallback+0x68>)
 80014d6:	8013      	strh	r3, [r2, #0]
 80014d8:	4813      	ldr	r0, [pc, #76]	; (8001528 <HAL_ADCEx_InjectedConvCpltCallback+0x6c>)
 80014da:	f001 f803 	bl	80024e4 <HAL_ADCEx_InjectedStart_IT>
 80014de:	4b13      	ldr	r3, [pc, #76]	; (800152c <HAL_ADCEx_InjectedConvCpltCallback+0x70>)
 80014e0:	881a      	ldrh	r2, [r3, #0]
 80014e2:	f640 53ac 	movw	r3, #3500	; 0xdac
 80014e6:	429a      	cmp	r2, r3
 80014e8:	d816      	bhi.n	8001518 <HAL_ADCEx_InjectedConvCpltCallback+0x5c>
 80014ea:	4b11      	ldr	r3, [pc, #68]	; (8001530 <HAL_ADCEx_InjectedConvCpltCallback+0x74>)
 80014ec:	2201      	movs	r2, #1
 80014ee:	701a      	strb	r2, [r3, #0]
 80014f0:	bd10      	pop	{r4, pc}
 80014f2:	4c0d      	ldr	r4, [pc, #52]	; (8001528 <HAL_ADCEx_InjectedConvCpltCallback+0x6c>)
 80014f4:	2101      	movs	r1, #1
 80014f6:	4620      	mov	r0, r4
 80014f8:	f001 f854 	bl	80025a4 <HAL_ADCEx_InjectedGetValue>
 80014fc:	4b0b      	ldr	r3, [pc, #44]	; (800152c <HAL_ADCEx_InjectedConvCpltCallback+0x70>)
 80014fe:	8018      	strh	r0, [r3, #0]
 8001500:	2102      	movs	r1, #2
 8001502:	4620      	mov	r0, r4
 8001504:	f001 f84e 	bl	80025a4 <HAL_ADCEx_InjectedGetValue>
 8001508:	4b06      	ldr	r3, [pc, #24]	; (8001524 <HAL_ADCEx_InjectedConvCpltCallback+0x68>)
 800150a:	8018      	strh	r0, [r3, #0]
 800150c:	e7db      	b.n	80014c6 <HAL_ADCEx_InjectedConvCpltCallback+0xa>
 800150e:	f5c3 6300 	rsb	r3, r3, #2048	; 0x800
 8001512:	4a04      	ldr	r2, [pc, #16]	; (8001524 <HAL_ADCEx_InjectedConvCpltCallback+0x68>)
 8001514:	8013      	strh	r3, [r2, #0]
 8001516:	e7df      	b.n	80014d8 <HAL_ADCEx_InjectedConvCpltCallback+0x1c>
 8001518:	4b05      	ldr	r3, [pc, #20]	; (8001530 <HAL_ADCEx_InjectedConvCpltCallback+0x74>)
 800151a:	2200      	movs	r2, #0
 800151c:	701a      	strb	r2, [r3, #0]
 800151e:	e7e7      	b.n	80014f0 <HAL_ADCEx_InjectedConvCpltCallback+0x34>
 8001520:	40012400 	.word	0x40012400
 8001524:	2000021e 	.word	0x2000021e
 8001528:	20000250 	.word	0x20000250
 800152c:	20000220 	.word	0x20000220
 8001530:	20000231 	.word	0x20000231

08001534 <HAL_TIM_IC_CaptureCallback>:
 8001534:	6803      	ldr	r3, [r0, #0]
 8001536:	f1b3 4f80 	cmp.w	r3, #1073741824	; 0x40000000
 800153a:	d000      	beq.n	800153e <HAL_TIM_IC_CaptureCallback+0xa>
 800153c:	4770      	bx	lr
 800153e:	7f03      	ldrb	r3, [r0, #28]
 8001540:	2b04      	cmp	r3, #4
 8001542:	d1fb      	bne.n	800153c <HAL_TIM_IC_CaptureCallback+0x8>
 8001544:	4a02      	ldr	r2, [pc, #8]	; (8001550 <HAL_TIM_IC_CaptureCallback+0x1c>)
 8001546:	6813      	ldr	r3, [r2, #0]
 8001548:	3301      	adds	r3, #1
 800154a:	6013      	str	r3, [r2, #0]
 800154c:	e7f6      	b.n	800153c <HAL_TIM_IC_CaptureCallback+0x8>
 800154e:	bf00      	nop
 8001550:	2000022c 	.word	0x2000022c

08001554 <Error_Handler>:
 8001554:	b672      	cpsid	i
 8001556:	e7fe      	b.n	8001556 <Error_Handler+0x2>

08001558 <_ZL12MX_TIM1_Initv>:
 8001558:	b510      	push	{r4, lr}
 800155a:	b096      	sub	sp, #88	; 0x58
 800155c:	2400      	movs	r4, #0
 800155e:	9412      	str	r4, [sp, #72]	; 0x48
 8001560:	9413      	str	r4, [sp, #76]	; 0x4c
 8001562:	9414      	str	r4, [sp, #80]	; 0x50
 8001564:	9415      	str	r4, [sp, #84]	; 0x54
 8001566:	9410      	str	r4, [sp, #64]	; 0x40
 8001568:	9411      	str	r4, [sp, #68]	; 0x44
 800156a:	9409      	str	r4, [sp, #36]	; 0x24
 800156c:	940a      	str	r4, [sp, #40]	; 0x28
 800156e:	940b      	str	r4, [sp, #44]	; 0x2c
 8001570:	940c      	str	r4, [sp, #48]	; 0x30
 8001572:	940d      	str	r4, [sp, #52]	; 0x34
 8001574:	940e      	str	r4, [sp, #56]	; 0x38
 8001576:	940f      	str	r4, [sp, #60]	; 0x3c
 8001578:	2220      	movs	r2, #32
 800157a:	4621      	mov	r1, r4
 800157c:	a801      	add	r0, sp, #4
 800157e:	f007 fddf 	bl	8009140 <memset>
 8001582:	482b      	ldr	r0, [pc, #172]	; (8001630 <_ZL12MX_TIM1_Initv+0xd8>)
 8001584:	4b2b      	ldr	r3, [pc, #172]	; (8001634 <_ZL12MX_TIM1_Initv+0xdc>)
 8001586:	6003      	str	r3, [r0, #0]
 8001588:	f44f 73f0 	mov.w	r3, #480	; 0x1e0
 800158c:	6043      	str	r3, [r0, #4]
 800158e:	6084      	str	r4, [r0, #8]
 8001590:	f44f 737a 	mov.w	r3, #1000	; 0x3e8
 8001594:	60c3      	str	r3, [r0, #12]
 8001596:	6104      	str	r4, [r0, #16]
 8001598:	6144      	str	r4, [r0, #20]
 800159a:	2380      	movs	r3, #128	; 0x80
 800159c:	6183      	str	r3, [r0, #24]
 800159e:	f004 fe59 	bl	8006254 <HAL_TIM_Base_Init>
 80015a2:	2800      	cmp	r0, #0
 80015a4:	d137      	bne.n	8001616 <_ZL12MX_TIM1_Initv+0xbe>
 80015a6:	f44f 5380 	mov.w	r3, #4096	; 0x1000
 80015aa:	9312      	str	r3, [sp, #72]	; 0x48
 80015ac:	a912      	add	r1, sp, #72	; 0x48
 80015ae:	4820      	ldr	r0, [pc, #128]	; (8001630 <_ZL12MX_TIM1_Initv+0xd8>)
 80015b0:	f004 ffff 	bl	80065b2 <HAL_TIM_ConfigClockSource>
 80015b4:	2800      	cmp	r0, #0
 80015b6:	d130      	bne.n	800161a <_ZL12MX_TIM1_Initv+0xc2>
 80015b8:	481d      	ldr	r0, [pc, #116]	; (8001630 <_ZL12MX_TIM1_Initv+0xd8>)
 80015ba:	f004 fe77 	bl	80062ac <HAL_TIM_PWM_Init>
 80015be:	2800      	cmp	r0, #0
 80015c0:	d12d      	bne.n	800161e <_ZL12MX_TIM1_Initv+0xc6>
 80015c2:	2300      	movs	r3, #0
 80015c4:	9310      	str	r3, [sp, #64]	; 0x40
 80015c6:	9311      	str	r3, [sp, #68]	; 0x44
 80015c8:	a910      	add	r1, sp, #64	; 0x40
 80015ca:	4819      	ldr	r0, [pc, #100]	; (8001630 <_ZL12MX_TIM1_Initv+0xd8>)
 80015cc:	f005 fab0 	bl	8006b30 <HAL_TIMEx_MasterConfigSynchronization>
 80015d0:	bb38      	cbnz	r0, 8001622 <_ZL12MX_TIM1_Initv+0xca>
 80015d2:	2360      	movs	r3, #96	; 0x60
 80015d4:	9309      	str	r3, [sp, #36]	; 0x24
 80015d6:	2200      	movs	r2, #0
 80015d8:	920a      	str	r2, [sp, #40]	; 0x28
 80015da:	920b      	str	r2, [sp, #44]	; 0x2c
 80015dc:	920c      	str	r2, [sp, #48]	; 0x30
 80015de:	920d      	str	r2, [sp, #52]	; 0x34
 80015e0:	920e      	str	r2, [sp, #56]	; 0x38
 80015e2:	920f      	str	r2, [sp, #60]	; 0x3c
 80015e4:	a909      	add	r1, sp, #36	; 0x24
 80015e6:	4812      	ldr	r0, [pc, #72]	; (8001630 <_ZL12MX_TIM1_Initv+0xd8>)
 80015e8:	f004 feea 	bl	80063c0 <HAL_TIM_PWM_ConfigChannel>
 80015ec:	b9d8      	cbnz	r0, 8001626 <_ZL12MX_TIM1_Initv+0xce>
 80015ee:	2300      	movs	r3, #0
 80015f0:	9301      	str	r3, [sp, #4]
 80015f2:	9302      	str	r3, [sp, #8]
 80015f4:	9303      	str	r3, [sp, #12]
 80015f6:	9304      	str	r3, [sp, #16]
 80015f8:	9305      	str	r3, [sp, #20]
 80015fa:	f44f 5200 	mov.w	r2, #8192	; 0x2000
 80015fe:	9206      	str	r2, [sp, #24]
 8001600:	9308      	str	r3, [sp, #32]
 8001602:	a901      	add	r1, sp, #4
 8001604:	480a      	ldr	r0, [pc, #40]	; (8001630 <_ZL12MX_TIM1_Initv+0xd8>)
 8001606:	f005 fac7 	bl	8006b98 <HAL_TIMEx_ConfigBreakDeadTime>
 800160a:	b970      	cbnz	r0, 800162a <_ZL12MX_TIM1_Initv+0xd2>
 800160c:	4808      	ldr	r0, [pc, #32]	; (8001630 <_ZL12MX_TIM1_Initv+0xd8>)
 800160e:	f000 fb9b 	bl	8001d48 <HAL_TIM_MspPostInit>
 8001612:	b016      	add	sp, #88	; 0x58
 8001614:	bd10      	pop	{r4, pc}
 8001616:	f7ff ff9d 	bl	8001554 <Error_Handler>
 800161a:	f7ff ff9b 	bl	8001554 <Error_Handler>
 800161e:	f7ff ff99 	bl	8001554 <Error_Handler>
 8001622:	f7ff ff97 	bl	8001554 <Error_Handler>
 8001626:	f7ff ff95 	bl	8001554 <Error_Handler>
 800162a:	f7ff ff93 	bl	8001554 <Error_Handler>
 800162e:	bf00      	nop
 8001630:	2000035c 	.word	0x2000035c
 8001634:	40012c00 	.word	0x40012c00

08001638 <_ZL12MX_TIM2_Initv>:
 8001638:	b500      	push	{lr}
 800163a:	b093      	sub	sp, #76	; 0x4c
 800163c:	2300      	movs	r3, #0
 800163e:	930e      	str	r3, [sp, #56]	; 0x38
 8001640:	930f      	str	r3, [sp, #60]	; 0x3c
 8001642:	9310      	str	r3, [sp, #64]	; 0x40
 8001644:	9311      	str	r3, [sp, #68]	; 0x44
 8001646:	930c      	str	r3, [sp, #48]	; 0x30
 8001648:	930d      	str	r3, [sp, #52]	; 0x34
 800164a:	9308      	str	r3, [sp, #32]
 800164c:	9309      	str	r3, [sp, #36]	; 0x24
 800164e:	930a      	str	r3, [sp, #40]	; 0x28
 8001650:	930b      	str	r3, [sp, #44]	; 0x2c
 8001652:	9301      	str	r3, [sp, #4]
 8001654:	9302      	str	r3, [sp, #8]
 8001656:	9303      	str	r3, [sp, #12]
 8001658:	9304      	str	r3, [sp, #16]
 800165a:	9305      	str	r3, [sp, #20]
 800165c:	9306      	str	r3, [sp, #24]
 800165e:	9307      	str	r3, [sp, #28]
 8001660:	482b      	ldr	r0, [pc, #172]	; (8001710 <_ZL12MX_TIM2_Initv+0xd8>)
 8001662:	f04f 4280 	mov.w	r2, #1073741824	; 0x40000000
 8001666:	6002      	str	r2, [r0, #0]
 8001668:	6043      	str	r3, [r0, #4]
 800166a:	6083      	str	r3, [r0, #8]
 800166c:	f240 42ef 	movw	r2, #1263	; 0x4ef
 8001670:	60c2      	str	r2, [r0, #12]
 8001672:	6103      	str	r3, [r0, #16]
 8001674:	6183      	str	r3, [r0, #24]
 8001676:	f004 fded 	bl	8006254 <HAL_TIM_Base_Init>
 800167a:	2800      	cmp	r0, #0
 800167c:	d139      	bne.n	80016f2 <_ZL12MX_TIM2_Initv+0xba>
 800167e:	f44f 5380 	mov.w	r3, #4096	; 0x1000
 8001682:	930e      	str	r3, [sp, #56]	; 0x38
 8001684:	a90e      	add	r1, sp, #56	; 0x38
 8001686:	4822      	ldr	r0, [pc, #136]	; (8001710 <_ZL12MX_TIM2_Initv+0xd8>)
 8001688:	f004 ff93 	bl	80065b2 <HAL_TIM_ConfigClockSource>
 800168c:	2800      	cmp	r0, #0
 800168e:	d132      	bne.n	80016f6 <_ZL12MX_TIM2_Initv+0xbe>
 8001690:	481f      	ldr	r0, [pc, #124]	; (8001710 <_ZL12MX_TIM2_Initv+0xd8>)
 8001692:	f004 fe37 	bl	8006304 <HAL_TIM_IC_Init>
 8001696:	2800      	cmp	r0, #0
 8001698:	d12f      	bne.n	80016fa <_ZL12MX_TIM2_Initv+0xc2>
 800169a:	481d      	ldr	r0, [pc, #116]	; (8001710 <_ZL12MX_TIM2_Initv+0xd8>)
 800169c:	f004 fe06 	bl	80062ac <HAL_TIM_PWM_Init>
 80016a0:	bb68      	cbnz	r0, 80016fe <_ZL12MX_TIM2_Initv+0xc6>
 80016a2:	2300      	movs	r3, #0
 80016a4:	930c      	str	r3, [sp, #48]	; 0x30
 80016a6:	930d      	str	r3, [sp, #52]	; 0x34
 80016a8:	a90c      	add	r1, sp, #48	; 0x30
 80016aa:	4819      	ldr	r0, [pc, #100]	; (8001710 <_ZL12MX_TIM2_Initv+0xd8>)
 80016ac:	f005 fa40 	bl	8006b30 <HAL_TIMEx_MasterConfigSynchronization>
 80016b0:	bb38      	cbnz	r0, 8001702 <_ZL12MX_TIM2_Initv+0xca>
 80016b2:	2300      	movs	r3, #0
 80016b4:	9308      	str	r3, [sp, #32]
 80016b6:	2201      	movs	r2, #1
 80016b8:	9209      	str	r2, [sp, #36]	; 0x24
 80016ba:	930a      	str	r3, [sp, #40]	; 0x28
 80016bc:	930b      	str	r3, [sp, #44]	; 0x2c
 80016be:	2208      	movs	r2, #8
 80016c0:	a908      	add	r1, sp, #32
 80016c2:	4813      	ldr	r0, [pc, #76]	; (8001710 <_ZL12MX_TIM2_Initv+0xd8>)
 80016c4:	f004 ff10 	bl	80064e8 <HAL_TIM_IC_ConfigChannel>
 80016c8:	b9e8      	cbnz	r0, 8001706 <_ZL12MX_TIM2_Initv+0xce>
 80016ca:	2360      	movs	r3, #96	; 0x60
 80016cc:	9301      	str	r3, [sp, #4]
 80016ce:	f44f 7348 	mov.w	r3, #800	; 0x320
 80016d2:	9302      	str	r3, [sp, #8]
 80016d4:	2300      	movs	r3, #0
 80016d6:	9303      	str	r3, [sp, #12]
 80016d8:	9305      	str	r3, [sp, #20]
 80016da:	220c      	movs	r2, #12
 80016dc:	a901      	add	r1, sp, #4
 80016de:	480c      	ldr	r0, [pc, #48]	; (8001710 <_ZL12MX_TIM2_Initv+0xd8>)
 80016e0:	f004 fe6e 	bl	80063c0 <HAL_TIM_PWM_ConfigChannel>
 80016e4:	b988      	cbnz	r0, 800170a <_ZL12MX_TIM2_Initv+0xd2>
 80016e6:	480a      	ldr	r0, [pc, #40]	; (8001710 <_ZL12MX_TIM2_Initv+0xd8>)
 80016e8:	f000 fb2e 	bl	8001d48 <HAL_TIM_MspPostInit>
 80016ec:	b013      	add	sp, #76	; 0x4c
 80016ee:	f85d fb04 	ldr.w	pc, [sp], #4
 80016f2:	f7ff ff2f 	bl	8001554 <Error_Handler>
 80016f6:	f7ff ff2d 	bl	8001554 <Error_Handler>
 80016fa:	f7ff ff2b 	bl	8001554 <Error_Handler>
 80016fe:	f7ff ff29 	bl	8001554 <Error_Handler>
 8001702:	f7ff ff27 	bl	8001554 <Error_Handler>
 8001706:	f7ff ff25 	bl	8001554 <Error_Handler>
 800170a:	f7ff ff23 	bl	8001554 <Error_Handler>
 800170e:	bf00      	nop
 8001710:	200003a4 	.word	0x200003a4

08001714 <_ZL12MX_I2C1_Initv>:
 8001714:	b508      	push	{r3, lr}
 8001716:	480a      	ldr	r0, [pc, #40]	; (8001740 <_ZL12MX_I2C1_Initv+0x2c>)
 8001718:	4b0a      	ldr	r3, [pc, #40]	; (8001744 <_ZL12MX_I2C1_Initv+0x30>)
 800171a:	6003      	str	r3, [r0, #0]
 800171c:	4b0a      	ldr	r3, [pc, #40]	; (8001748 <_ZL12MX_I2C1_Initv+0x34>)
 800171e:	6043      	str	r3, [r0, #4]
 8001720:	2300      	movs	r3, #0
 8001722:	6083      	str	r3, [r0, #8]
 8001724:	60c3      	str	r3, [r0, #12]
 8001726:	f44f 4280 	mov.w	r2, #16384	; 0x4000
 800172a:	6102      	str	r2, [r0, #16]
 800172c:	6143      	str	r3, [r0, #20]
 800172e:	6183      	str	r3, [r0, #24]
 8001730:	61c3      	str	r3, [r0, #28]
 8001732:	6203      	str	r3, [r0, #32]
 8001734:	f001 fe24 	bl	8003380 <HAL_I2C_Init>
 8001738:	b900      	cbnz	r0, 800173c <_ZL12MX_I2C1_Initv+0x28>
 800173a:	bd08      	pop	{r3, pc}
 800173c:	f7ff ff0a 	bl	8001554 <Error_Handler>
 8001740:	20000308 	.word	0x20000308
 8001744:	40005400 	.word	0x40005400
 8001748:	000186a0 	.word	0x000186a0

0800174c <_ZL12MX_ADC1_Initv>:
 800174c:	b500      	push	{lr}
 800174e:	b089      	sub	sp, #36	; 0x24
 8001750:	2300      	movs	r3, #0
 8001752:	9301      	str	r3, [sp, #4]
 8001754:	9302      	str	r3, [sp, #8]
 8001756:	9303      	str	r3, [sp, #12]
 8001758:	9304      	str	r3, [sp, #16]
 800175a:	9305      	str	r3, [sp, #20]
 800175c:	9306      	str	r3, [sp, #24]
 800175e:	9307      	str	r3, [sp, #28]
 8001760:	481b      	ldr	r0, [pc, #108]	; (80017d0 <_ZL12MX_ADC1_Initv+0x84>)
 8001762:	4a1c      	ldr	r2, [pc, #112]	; (80017d4 <_ZL12MX_ADC1_Initv+0x88>)
 8001764:	6002      	str	r2, [r0, #0]
 8001766:	f44f 7280 	mov.w	r2, #256	; 0x100
 800176a:	6082      	str	r2, [r0, #8]
 800176c:	2201      	movs	r2, #1
 800176e:	7302      	strb	r2, [r0, #12]
 8001770:	7503      	strb	r3, [r0, #20]
 8001772:	f44f 2160 	mov.w	r1, #917504	; 0xe0000
 8001776:	61c1      	str	r1, [r0, #28]
 8001778:	6043      	str	r3, [r0, #4]
 800177a:	6102      	str	r2, [r0, #16]
 800177c:	f000 fdae 	bl	80022dc <HAL_ADC_Init>
 8001780:	bb00      	cbnz	r0, 80017c4 <_ZL12MX_ADC1_Initv+0x78>
 8001782:	2300      	movs	r3, #0
 8001784:	9301      	str	r3, [sp, #4]
 8001786:	2201      	movs	r2, #1
 8001788:	9202      	str	r2, [sp, #8]
 800178a:	2202      	movs	r2, #2
 800178c:	9205      	str	r2, [sp, #20]
 800178e:	2207      	movs	r2, #7
 8001790:	9203      	str	r2, [sp, #12]
 8001792:	f44f 42e0 	mov.w	r2, #28672	; 0x7000
 8001796:	9207      	str	r2, [sp, #28]
 8001798:	f88d 3019 	strb.w	r3, [sp, #25]
 800179c:	f88d 3018 	strb.w	r3, [sp, #24]
 80017a0:	9304      	str	r3, [sp, #16]
 80017a2:	a901      	add	r1, sp, #4
 80017a4:	480a      	ldr	r0, [pc, #40]	; (80017d0 <_ZL12MX_ADC1_Initv+0x84>)
 80017a6:	f000 ff0f 	bl	80025c8 <HAL_ADCEx_InjectedConfigChannel>
 80017aa:	b968      	cbnz	r0, 80017c8 <_ZL12MX_ADC1_Initv+0x7c>
 80017ac:	2301      	movs	r3, #1
 80017ae:	9301      	str	r3, [sp, #4]
 80017b0:	2302      	movs	r3, #2
 80017b2:	9302      	str	r3, [sp, #8]
 80017b4:	a901      	add	r1, sp, #4
 80017b6:	4806      	ldr	r0, [pc, #24]	; (80017d0 <_ZL12MX_ADC1_Initv+0x84>)
 80017b8:	f000 ff06 	bl	80025c8 <HAL_ADCEx_InjectedConfigChannel>
 80017bc:	b930      	cbnz	r0, 80017cc <_ZL12MX_ADC1_Initv+0x80>
 80017be:	b009      	add	sp, #36	; 0x24
 80017c0:	f85d fb04 	ldr.w	pc, [sp], #4
 80017c4:	f7ff fec6 	bl	8001554 <Error_Handler>
 80017c8:	f7ff fec4 	bl	8001554 <Error_Handler>
 80017cc:	f7ff fec2 	bl	8001554 <Error_Handler>
 80017d0:	20000250 	.word	0x20000250
 80017d4:	40012400 	.word	0x40012400

080017d8 <_ZL12MX_TIM4_Initv>:
 80017d8:	b500      	push	{lr}
 80017da:	b087      	sub	sp, #28
 80017dc:	2300      	movs	r3, #0
 80017de:	9302      	str	r3, [sp, #8]
 80017e0:	9303      	str	r3, [sp, #12]
 80017e2:	9304      	str	r3, [sp, #16]
 80017e4:	9305      	str	r3, [sp, #20]
 80017e6:	9300      	str	r3, [sp, #0]
 80017e8:	9301      	str	r3, [sp, #4]
 80017ea:	4813      	ldr	r0, [pc, #76]	; (8001838 <_ZL12MX_TIM4_Initv+0x60>)
 80017ec:	4a13      	ldr	r2, [pc, #76]	; (800183c <_ZL12MX_TIM4_Initv+0x64>)
 80017ee:	6002      	str	r2, [r0, #0]
 80017f0:	f44f 5296 	mov.w	r2, #4800	; 0x12c0
 80017f4:	6042      	str	r2, [r0, #4]
 80017f6:	6083      	str	r3, [r0, #8]
 80017f8:	2264      	movs	r2, #100	; 0x64
 80017fa:	60c2      	str	r2, [r0, #12]
 80017fc:	6103      	str	r3, [r0, #16]
 80017fe:	6183      	str	r3, [r0, #24]
 8001800:	f004 fd28 	bl	8006254 <HAL_TIM_Base_Init>
 8001804:	b990      	cbnz	r0, 800182c <_ZL12MX_TIM4_Initv+0x54>
 8001806:	f44f 5380 	mov.w	r3, #4096	; 0x1000
 800180a:	9302      	str	r3, [sp, #8]
 800180c:	a902      	add	r1, sp, #8
 800180e:	480a      	ldr	r0, [pc, #40]	; (8001838 <_ZL12MX_TIM4_Initv+0x60>)
 8001810:	f004 fecf 	bl	80065b2 <HAL_TIM_ConfigClockSource>
 8001814:	b960      	cbnz	r0, 8001830 <_ZL12MX_TIM4_Initv+0x58>
 8001816:	2300      	movs	r3, #0
 8001818:	9300      	str	r3, [sp, #0]
 800181a:	9301      	str	r3, [sp, #4]
 800181c:	4669      	mov	r1, sp
 800181e:	4806      	ldr	r0, [pc, #24]	; (8001838 <_ZL12MX_TIM4_Initv+0x60>)
 8001820:	f005 f986 	bl	8006b30 <HAL_TIMEx_MasterConfigSynchronization>
 8001824:	b930      	cbnz	r0, 8001834 <_ZL12MX_TIM4_Initv+0x5c>
 8001826:	b007      	add	sp, #28
 8001828:	f85d fb04 	ldr.w	pc, [sp], #4
 800182c:	f7ff fe92 	bl	8001554 <Error_Handler>
 8001830:	f7ff fe90 	bl	8001554 <Error_Handler>
 8001834:	f7ff fe8e 	bl	8001554 <Error_Handler>
 8001838:	20000434 	.word	0x20000434
 800183c:	40000800 	.word	0x40000800

08001840 <_ZL12MX_TIM3_Initv>:
 8001840:	b500      	push	{lr}
 8001842:	b08f      	sub	sp, #60	; 0x3c
 8001844:	2300      	movs	r3, #0
 8001846:	930a      	str	r3, [sp, #40]	; 0x28
 8001848:	930b      	str	r3, [sp, #44]	; 0x2c
 800184a:	930c      	str	r3, [sp, #48]	; 0x30
 800184c:	930d      	str	r3, [sp, #52]	; 0x34
 800184e:	9308      	str	r3, [sp, #32]
 8001850:	9309      	str	r3, [sp, #36]	; 0x24
 8001852:	9301      	str	r3, [sp, #4]
 8001854:	9302      	str	r3, [sp, #8]
 8001856:	9303      	str	r3, [sp, #12]
 8001858:	9304      	str	r3, [sp, #16]
 800185a:	9305      	str	r3, [sp, #20]
 800185c:	9306      	str	r3, [sp, #24]
 800185e:	9307      	str	r3, [sp, #28]
 8001860:	481e      	ldr	r0, [pc, #120]	; (80018dc <_ZL12MX_TIM3_Initv+0x9c>)
 8001862:	4a1f      	ldr	r2, [pc, #124]	; (80018e0 <_ZL12MX_TIM3_Initv+0xa0>)
 8001864:	6002      	str	r2, [r0, #0]
 8001866:	f44f 72f0 	mov.w	r2, #480	; 0x1e0
 800186a:	6042      	str	r2, [r0, #4]
 800186c:	6083      	str	r3, [r0, #8]
 800186e:	f44f 62c8 	mov.w	r2, #1600	; 0x640
 8001872:	60c2      	str	r2, [r0, #12]
 8001874:	6103      	str	r3, [r0, #16]
 8001876:	6183      	str	r3, [r0, #24]
 8001878:	f004 fcec 	bl	8006254 <HAL_TIM_Base_Init>
 800187c:	bb20      	cbnz	r0, 80018c8 <_ZL12MX_TIM3_Initv+0x88>
 800187e:	f44f 5380 	mov.w	r3, #4096	; 0x1000
 8001882:	930a      	str	r3, [sp, #40]	; 0x28
 8001884:	a90a      	add	r1, sp, #40	; 0x28
 8001886:	4815      	ldr	r0, [pc, #84]	; (80018dc <_ZL12MX_TIM3_Initv+0x9c>)
 8001888:	f004 fe93 	bl	80065b2 <HAL_TIM_ConfigClockSource>
 800188c:	b9f0      	cbnz	r0, 80018cc <_ZL12MX_TIM3_Initv+0x8c>
 800188e:	4813      	ldr	r0, [pc, #76]	; (80018dc <_ZL12MX_TIM3_Initv+0x9c>)
 8001890:	f004 fd0c 	bl	80062ac <HAL_TIM_PWM_Init>
 8001894:	b9e0      	cbnz	r0, 80018d0 <_ZL12MX_TIM3_Initv+0x90>
 8001896:	2300      	movs	r3, #0
 8001898:	9308      	str	r3, [sp, #32]
 800189a:	9309      	str	r3, [sp, #36]	; 0x24
 800189c:	a908      	add	r1, sp, #32
 800189e:	480f      	ldr	r0, [pc, #60]	; (80018dc <_ZL12MX_TIM3_Initv+0x9c>)
 80018a0:	f005 f946 	bl	8006b30 <HAL_TIMEx_MasterConfigSynchronization>
 80018a4:	b9b0      	cbnz	r0, 80018d4 <_ZL12MX_TIM3_Initv+0x94>
 80018a6:	2360      	movs	r3, #96	; 0x60
 80018a8:	9301      	str	r3, [sp, #4]
 80018aa:	2200      	movs	r2, #0
 80018ac:	9202      	str	r2, [sp, #8]
 80018ae:	9203      	str	r2, [sp, #12]
 80018b0:	9205      	str	r2, [sp, #20]
 80018b2:	a901      	add	r1, sp, #4
 80018b4:	4809      	ldr	r0, [pc, #36]	; (80018dc <_ZL12MX_TIM3_Initv+0x9c>)
 80018b6:	f004 fd83 	bl	80063c0 <HAL_TIM_PWM_ConfigChannel>
 80018ba:	b968      	cbnz	r0, 80018d8 <_ZL12MX_TIM3_Initv+0x98>
 80018bc:	4807      	ldr	r0, [pc, #28]	; (80018dc <_ZL12MX_TIM3_Initv+0x9c>)
 80018be:	f000 fa43 	bl	8001d48 <HAL_TIM_MspPostInit>
 80018c2:	b00f      	add	sp, #60	; 0x3c
 80018c4:	f85d fb04 	ldr.w	pc, [sp], #4
 80018c8:	f7ff fe44 	bl	8001554 <Error_Handler>
 80018cc:	f7ff fe42 	bl	8001554 <Error_Handler>
 80018d0:	f7ff fe40 	bl	8001554 <Error_Handler>
 80018d4:	f7ff fe3e 	bl	8001554 <Error_Handler>
 80018d8:	f7ff fe3c 	bl	8001554 <Error_Handler>
 80018dc:	200003ec 	.word	0x200003ec
 80018e0:	40000400 	.word	0x40000400

080018e4 <_Z18SystemClock_Configv>:
 80018e4:	b500      	push	{lr}
 80018e6:	b095      	sub	sp, #84	; 0x54
 80018e8:	2300      	movs	r3, #0
 80018ea:	930d      	str	r3, [sp, #52]	; 0x34
 80018ec:	930f      	str	r3, [sp, #60]	; 0x3c
 80018ee:	9310      	str	r3, [sp, #64]	; 0x40
 80018f0:	9305      	str	r3, [sp, #20]
 80018f2:	9306      	str	r3, [sp, #24]
 80018f4:	9307      	str	r3, [sp, #28]
 80018f6:	9308      	str	r3, [sp, #32]
 80018f8:	9309      	str	r3, [sp, #36]	; 0x24
 80018fa:	9301      	str	r3, [sp, #4]
 80018fc:	9302      	str	r3, [sp, #8]
 80018fe:	9303      	str	r3, [sp, #12]
 8001900:	9304      	str	r3, [sp, #16]
 8001902:	2101      	movs	r1, #1
 8001904:	910a      	str	r1, [sp, #40]	; 0x28
 8001906:	f44f 3280 	mov.w	r2, #65536	; 0x10000
 800190a:	920b      	str	r2, [sp, #44]	; 0x2c
 800190c:	930c      	str	r3, [sp, #48]	; 0x30
 800190e:	910e      	str	r1, [sp, #56]	; 0x38
 8001910:	2302      	movs	r3, #2
 8001912:	9311      	str	r3, [sp, #68]	; 0x44
 8001914:	9212      	str	r2, [sp, #72]	; 0x48
 8001916:	f44f 1380 	mov.w	r3, #1048576	; 0x100000
 800191a:	9313      	str	r3, [sp, #76]	; 0x4c
 800191c:	a80a      	add	r0, sp, #40	; 0x28
 800191e:	f003 fe4b 	bl	80055b8 <HAL_RCC_OscConfig>
 8001922:	b9e8      	cbnz	r0, 8001960 <_Z18SystemClock_Configv+0x7c>
 8001924:	230f      	movs	r3, #15
 8001926:	9305      	str	r3, [sp, #20]
 8001928:	2302      	movs	r3, #2
 800192a:	9306      	str	r3, [sp, #24]
 800192c:	2300      	movs	r3, #0
 800192e:	9307      	str	r3, [sp, #28]
 8001930:	f44f 6280 	mov.w	r2, #1024	; 0x400
 8001934:	9208      	str	r2, [sp, #32]
 8001936:	9309      	str	r3, [sp, #36]	; 0x24
 8001938:	2101      	movs	r1, #1
 800193a:	a805      	add	r0, sp, #20
 800193c:	f004 f87a 	bl	8005a34 <HAL_RCC_ClockConfig>
 8001940:	b980      	cbnz	r0, 8001964 <_Z18SystemClock_Configv+0x80>
 8001942:	2312      	movs	r3, #18
 8001944:	9301      	str	r3, [sp, #4]
 8001946:	f44f 4380 	mov.w	r3, #16384	; 0x4000
 800194a:	9303      	str	r3, [sp, #12]
 800194c:	f44f 0380 	mov.w	r3, #4194304	; 0x400000
 8001950:	9304      	str	r3, [sp, #16]
 8001952:	a801      	add	r0, sp, #4
 8001954:	f004 f94a 	bl	8005bec <HAL_RCCEx_PeriphCLKConfig>
 8001958:	b930      	cbnz	r0, 8001968 <_Z18SystemClock_Configv+0x84>
 800195a:	b015      	add	sp, #84	; 0x54
 800195c:	f85d fb04 	ldr.w	pc, [sp], #4
 8001960:	f7ff fdf8 	bl	8001554 <Error_Handler>
 8001964:	f7ff fdf6 	bl	8001554 <Error_Handler>
 8001968:	f7ff fdf4 	bl	8001554 <Error_Handler>

0800196c <main>:
 800196c:	b500      	push	{lr}
 800196e:	b087      	sub	sp, #28
 8001970:	f000 fb84 	bl	800207c <HAL_Init>
 8001974:	f7ff ffb6 	bl	80018e4 <_Z18SystemClock_Configv>
 8001978:	f7ff fcfc 	bl	8001374 <_ZL12MX_GPIO_Initv>
 800197c:	f7ff fd7c 	bl	8001478 <_ZL11MX_DMA_Initv>
 8001980:	f7ff fdea 	bl	8001558 <_ZL12MX_TIM1_Initv>
 8001984:	f7ff fe58 	bl	8001638 <_ZL12MX_TIM2_Initv>
 8001988:	f7ff fec4 	bl	8001714 <_ZL12MX_I2C1_Initv>
 800198c:	f7ff fede 	bl	800174c <_ZL12MX_ADC1_Initv>
 8001990:	f7ff ff22 	bl	80017d8 <_ZL12MX_TIM4_Initv>
 8001994:	f006 ff52 	bl	800883c <MX_USB_DEVICE_Init>
 8001998:	f7ff ff52 	bl	8001840 <_ZL12MX_TIM3_Initv>
 800199c:	f7fe fc8a 	bl	80002b4 <_Z7InitDevv>
 80019a0:	2100      	movs	r1, #0
 80019a2:	4829      	ldr	r0, [pc, #164]	; (8001a48 <main+0xdc>)
 80019a4:	f005 f83c 	bl	8006a20 <HAL_TIMEx_PWMN_Start_IT>
 80019a8:	4c28      	ldr	r4, [pc, #160]	; (8001a4c <main+0xe0>)
 80019aa:	210c      	movs	r1, #12
 80019ac:	4620      	mov	r0, r4
 80019ae:	f004 feed 	bl	800678c <HAL_TIM_PWM_Start_IT>
 80019b2:	2108      	movs	r1, #8
 80019b4:	4620      	mov	r0, r4
 80019b6:	f004 ff79 	bl	80068ac <HAL_TIM_IC_Start_IT>
 80019ba:	2100      	movs	r1, #0
 80019bc:	4824      	ldr	r0, [pc, #144]	; (8001a50 <main+0xe4>)
 80019be:	f004 fe77 	bl	80066b0 <HAL_TIM_PWM_Start>
 80019c2:	4824      	ldr	r0, [pc, #144]	; (8001a54 <main+0xe8>)
 80019c4:	f004 fb14 	bl	8005ff0 <HAL_TIM_Base_Start_IT>
 80019c8:	4c23      	ldr	r4, [pc, #140]	; (8001a58 <main+0xec>)
 80019ca:	4620      	mov	r0, r4
 80019cc:	f000 fd0a 	bl	80023e4 <HAL_ADCEx_Calibration_Start>
 80019d0:	4620      	mov	r0, r4
 80019d2:	f000 fd87 	bl	80024e4 <HAL_ADCEx_InjectedStart_IT>
 80019d6:	4a21      	ldr	r2, [pc, #132]	; (8001a5c <main+0xf0>)
 80019d8:	4b21      	ldr	r3, [pc, #132]	; (8001a60 <main+0xf4>)
 80019da:	7819      	ldrb	r1, [r3, #0]
 80019dc:	4821      	ldr	r0, [pc, #132]	; (8001a64 <main+0xf8>)
 80019de:	f7fe fbf1 	bl	80001c4 <_Z8PortReadP17I2C_HandleTypeDefhPh>
 80019e2:	f44f 70fa 	mov.w	r0, #500	; 0x1f4
 80019e6:	f000 fb6d 	bl	80020c4 <HAL_Delay>
 80019ea:	e004      	b.n	80019f6 <main+0x8a>
 80019ec:	f7fe fc20 	bl	8000230 <_Z7Servicev>
 80019f0:	2005      	movs	r0, #5
 80019f2:	f000 fb67 	bl	80020c4 <HAL_Delay>
 80019f6:	2120      	movs	r1, #32
 80019f8:	481b      	ldr	r0, [pc, #108]	; (8001a68 <main+0xfc>)
 80019fa:	f001 f997 	bl	8002d2c <HAL_GPIO_ReadPin>
 80019fe:	2801      	cmp	r0, #1
 8001a00:	d1f4      	bne.n	80019ec <main+0x80>
 8001a02:	4b1a      	ldr	r3, [pc, #104]	; (8001a6c <main+0x100>)
 8001a04:	781b      	ldrb	r3, [r3, #0]
 8001a06:	2b00      	cmp	r3, #0
 8001a08:	d1f2      	bne.n	80019f0 <main+0x84>
 8001a0a:	4b19      	ldr	r3, [pc, #100]	; (8001a70 <main+0x104>)
 8001a0c:	781b      	ldrb	r3, [r3, #0]
 8001a0e:	2b01      	cmp	r3, #1
 8001a10:	d1ee      	bne.n	80019f0 <main+0x84>
 8001a12:	4b16      	ldr	r3, [pc, #88]	; (8001a6c <main+0x100>)
 8001a14:	2201      	movs	r2, #1
 8001a16:	701a      	strb	r2, [r3, #0]
 8001a18:	ac02      	add	r4, sp, #8
 8001a1a:	9400      	str	r4, [sp, #0]
 8001a1c:	4b15      	ldr	r3, [pc, #84]	; (8001a74 <main+0x108>)
 8001a1e:	6819      	ldr	r1, [r3, #0]
 8001a20:	685a      	ldr	r2, [r3, #4]
 8001a22:	f04f 0300 	mov.w	r3, #0
 8001a26:	440a      	add	r2, r1
 8001a28:	4668      	mov	r0, sp
 8001a2a:	f7ff fa5b 	bl	8000ee4 <_ZNSt7__cxx1112basic_stringIcSt11char_traitsIcESaIcEE12_M_constructIPcEEvT_S7_St20forward_iterator_tag>
 8001a2e:	4668      	mov	r0, sp
 8001a30:	f7ff fbc0 	bl	80011b4 <_Z14executeCommandNSt7__cxx1112basic_stringIcSt11char_traitsIcESaIcEEE>
 8001a34:	9800      	ldr	r0, [sp, #0]
 8001a36:	42a0      	cmp	r0, r4
 8001a38:	d001      	beq.n	8001a3e <main+0xd2>
 8001a3a:	f007 f941 	bl	8008cc0 <_ZdlPv>
 8001a3e:	4b0b      	ldr	r3, [pc, #44]	; (8001a6c <main+0x100>)
 8001a40:	2200      	movs	r2, #0
 8001a42:	701a      	strb	r2, [r3, #0]
 8001a44:	e7d4      	b.n	80019f0 <main+0x84>
 8001a46:	bf00      	nop
 8001a48:	2000035c 	.word	0x2000035c
 8001a4c:	200003a4 	.word	0x200003a4
 8001a50:	200003ec 	.word	0x200003ec
 8001a54:	20000434 	.word	0x20000434
 8001a58:	20000250 	.word	0x20000250
 8001a5c:	20000002 	.word	0x20000002
 8001a60:	20000001 	.word	0x20000001
 8001a64:	20000308 	.word	0x20000308
 8001a68:	40010c00 	.word	0x40010c00
 8001a6c:	20000232 	.word	0x20000232
 8001a70:	20000233 	.word	0x20000233
 8001a74:	20000204 	.word	0x20000204

08001a78 <HAL_MspInit>:
 8001a78:	b082      	sub	sp, #8
 8001a7a:	4b0e      	ldr	r3, [pc, #56]	; (8001ab4 <HAL_MspInit+0x3c>)
 8001a7c:	699a      	ldr	r2, [r3, #24]
 8001a7e:	f042 0201 	orr.w	r2, r2, #1
 8001a82:	619a      	str	r2, [r3, #24]
 8001a84:	699a      	ldr	r2, [r3, #24]
 8001a86:	f002 0201 	and.w	r2, r2, #1
 8001a8a:	9200      	str	r2, [sp, #0]
 8001a8c:	9a00      	ldr	r2, [sp, #0]
 8001a8e:	69da      	ldr	r2, [r3, #28]
 8001a90:	f042 5280 	orr.w	r2, r2, #268435456	; 0x10000000
 8001a94:	61da      	str	r2, [r3, #28]
 8001a96:	69db      	ldr	r3, [r3, #28]
 8001a98:	f003 5380 	and.w	r3, r3, #268435456	; 0x10000000
 8001a9c:	9301      	str	r3, [sp, #4]
 8001a9e:	9b01      	ldr	r3, [sp, #4]
 8001aa0:	4a05      	ldr	r2, [pc, #20]	; (8001ab8 <HAL_MspInit+0x40>)
 8001aa2:	6853      	ldr	r3, [r2, #4]
 8001aa4:	f023 63e0 	bic.w	r3, r3, #117440512	; 0x7000000
 8001aa8:	f043 7300 	orr.w	r3, r3, #33554432	; 0x2000000
 8001aac:	6053      	str	r3, [r2, #4]
 8001aae:	b002      	add	sp, #8
 8001ab0:	4770      	bx	lr
 8001ab2:	bf00      	nop
 8001ab4:	40021000 	.word	0x40021000
 8001ab8:	40010000 	.word	0x40010000

08001abc <HAL_ADC_MspInit>:
 8001abc:	b500      	push	{lr}
 8001abe:	b087      	sub	sp, #28
 8001ac0:	2300      	movs	r3, #0
 8001ac2:	9302      	str	r3, [sp, #8]
 8001ac4:	9303      	str	r3, [sp, #12]
 8001ac6:	9304      	str	r3, [sp, #16]
 8001ac8:	9305      	str	r3, [sp, #20]
 8001aca:	6802      	ldr	r2, [r0, #0]
 8001acc:	4b14      	ldr	r3, [pc, #80]	; (8001b20 <HAL_ADC_MspInit+0x64>)
 8001ace:	429a      	cmp	r2, r3
 8001ad0:	d002      	beq.n	8001ad8 <HAL_ADC_MspInit+0x1c>
 8001ad2:	b007      	add	sp, #28
 8001ad4:	f85d fb04 	ldr.w	pc, [sp], #4
 8001ad8:	f503 436c 	add.w	r3, r3, #60416	; 0xec00
 8001adc:	699a      	ldr	r2, [r3, #24]
 8001ade:	f442 7200 	orr.w	r2, r2, #512	; 0x200
 8001ae2:	619a      	str	r2, [r3, #24]
 8001ae4:	699a      	ldr	r2, [r3, #24]
 8001ae6:	f402 7200 	and.w	r2, r2, #512	; 0x200
 8001aea:	9200      	str	r2, [sp, #0]
 8001aec:	9a00      	ldr	r2, [sp, #0]
 8001aee:	699a      	ldr	r2, [r3, #24]
 8001af0:	f042 0204 	orr.w	r2, r2, #4
 8001af4:	619a      	str	r2, [r3, #24]
 8001af6:	699b      	ldr	r3, [r3, #24]
 8001af8:	f003 0304 	and.w	r3, r3, #4
 8001afc:	9301      	str	r3, [sp, #4]
 8001afe:	9b01      	ldr	r3, [sp, #4]
 8001b00:	2303      	movs	r3, #3
 8001b02:	9302      	str	r3, [sp, #8]
 8001b04:	9303      	str	r3, [sp, #12]
 8001b06:	a902      	add	r1, sp, #8
 8001b08:	4806      	ldr	r0, [pc, #24]	; (8001b24 <HAL_ADC_MspInit+0x68>)
 8001b0a:	f000 ffff 	bl	8002b0c <HAL_GPIO_Init>
 8001b0e:	2200      	movs	r2, #0
 8001b10:	4611      	mov	r1, r2
 8001b12:	2012      	movs	r0, #18
 8001b14:	f000 fe7a 	bl	800280c <HAL_NVIC_SetPriority>
 8001b18:	2012      	movs	r0, #18
 8001b1a:	f000 feab 	bl	8002874 <HAL_NVIC_EnableIRQ>
 8001b1e:	e7d8      	b.n	8001ad2 <HAL_ADC_MspInit+0x16>
 8001b20:	40012400 	.word	0x40012400
 8001b24:	40010800 	.word	0x40010800

08001b28 <HAL_I2C_MspInit>:
 8001b28:	b510      	push	{r4, lr}
 8001b2a:	b086      	sub	sp, #24
 8001b2c:	2300      	movs	r3, #0
 8001b2e:	9302      	str	r3, [sp, #8]
 8001b30:	9303      	str	r3, [sp, #12]
 8001b32:	9304      	str	r3, [sp, #16]
 8001b34:	9305      	str	r3, [sp, #20]
 8001b36:	6802      	ldr	r2, [r0, #0]
 8001b38:	4b1d      	ldr	r3, [pc, #116]	; (8001bb0 <HAL_I2C_MspInit+0x88>)
 8001b3a:	429a      	cmp	r2, r3
 8001b3c:	d001      	beq.n	8001b42 <HAL_I2C_MspInit+0x1a>
 8001b3e:	b006      	add	sp, #24
 8001b40:	bd10      	pop	{r4, pc}
 8001b42:	4c1c      	ldr	r4, [pc, #112]	; (8001bb4 <HAL_I2C_MspInit+0x8c>)
 8001b44:	69a3      	ldr	r3, [r4, #24]
 8001b46:	f043 0308 	orr.w	r3, r3, #8
 8001b4a:	61a3      	str	r3, [r4, #24]
 8001b4c:	69a3      	ldr	r3, [r4, #24]
 8001b4e:	f003 0308 	and.w	r3, r3, #8
 8001b52:	9300      	str	r3, [sp, #0]
 8001b54:	9b00      	ldr	r3, [sp, #0]
 8001b56:	f44f 7340 	mov.w	r3, #768	; 0x300
 8001b5a:	9302      	str	r3, [sp, #8]
 8001b5c:	2312      	movs	r3, #18
 8001b5e:	9303      	str	r3, [sp, #12]
 8001b60:	2303      	movs	r3, #3
 8001b62:	9305      	str	r3, [sp, #20]
 8001b64:	a902      	add	r1, sp, #8
 8001b66:	4814      	ldr	r0, [pc, #80]	; (8001bb8 <HAL_I2C_MspInit+0x90>)
 8001b68:	f000 ffd0 	bl	8002b0c <HAL_GPIO_Init>
 8001b6c:	4a13      	ldr	r2, [pc, #76]	; (8001bbc <HAL_I2C_MspInit+0x94>)
 8001b6e:	6853      	ldr	r3, [r2, #4]
 8001b70:	f043 63e0 	orr.w	r3, r3, #117440512	; 0x7000000
 8001b74:	f043 0302 	orr.w	r3, r3, #2
 8001b78:	6053      	str	r3, [r2, #4]
 8001b7a:	69e3      	ldr	r3, [r4, #28]
 8001b7c:	f443 1300 	orr.w	r3, r3, #2097152	; 0x200000
 8001b80:	61e3      	str	r3, [r4, #28]
 8001b82:	69e3      	ldr	r3, [r4, #28]
 8001b84:	f403 1300 	and.w	r3, r3, #2097152	; 0x200000
 8001b88:	9301      	str	r3, [sp, #4]
 8001b8a:	9b01      	ldr	r3, [sp, #4]
 8001b8c:	2200      	movs	r2, #0
 8001b8e:	4611      	mov	r1, r2
 8001b90:	201f      	movs	r0, #31
 8001b92:	f000 fe3b 	bl	800280c <HAL_NVIC_SetPriority>
 8001b96:	201f      	movs	r0, #31
 8001b98:	f000 fe6c 	bl	8002874 <HAL_NVIC_EnableIRQ>
 8001b9c:	2200      	movs	r2, #0
 8001b9e:	4611      	mov	r1, r2
 8001ba0:	2020      	movs	r0, #32
 8001ba2:	f000 fe33 	bl	800280c <HAL_NVIC_SetPriority>
 8001ba6:	2020      	movs	r0, #32
 8001ba8:	f000 fe64 	bl	8002874 <HAL_NVIC_EnableIRQ>
 8001bac:	e7c7      	b.n	8001b3e <HAL_I2C_MspInit+0x16>
 8001bae:	bf00      	nop
 8001bb0:	40005400 	.word	0x40005400
 8001bb4:	40021000 	.word	0x40021000
 8001bb8:	40010c00 	.word	0x40010c00
 8001bbc:	40010000 	.word	0x40010000

08001bc0 <HAL_TIM_Base_MspInit>:
 8001bc0:	b510      	push	{r4, lr}
 8001bc2:	b08a      	sub	sp, #40	; 0x28
 8001bc4:	4604      	mov	r4, r0
 8001bc6:	2300      	movs	r3, #0
 8001bc8:	9306      	str	r3, [sp, #24]
 8001bca:	9307      	str	r3, [sp, #28]
 8001bcc:	9308      	str	r3, [sp, #32]
 8001bce:	9309      	str	r3, [sp, #36]	; 0x24
 8001bd0:	6803      	ldr	r3, [r0, #0]
 8001bd2:	4a54      	ldr	r2, [pc, #336]	; (8001d24 <HAL_TIM_Base_MspInit+0x164>)
 8001bd4:	4293      	cmp	r3, r2
 8001bd6:	d00a      	beq.n	8001bee <HAL_TIM_Base_MspInit+0x2e>
 8001bd8:	f1b3 4f80 	cmp.w	r3, #1073741824	; 0x40000000
 8001bdc:	d03c      	beq.n	8001c58 <HAL_TIM_Base_MspInit+0x98>
 8001bde:	4a52      	ldr	r2, [pc, #328]	; (8001d28 <HAL_TIM_Base_MspInit+0x168>)
 8001be0:	4293      	cmp	r3, r2
 8001be2:	d05f      	beq.n	8001ca4 <HAL_TIM_Base_MspInit+0xe4>
 8001be4:	4a51      	ldr	r2, [pc, #324]	; (8001d2c <HAL_TIM_Base_MspInit+0x16c>)
 8001be6:	4293      	cmp	r3, r2
 8001be8:	d06f      	beq.n	8001cca <HAL_TIM_Base_MspInit+0x10a>
 8001bea:	b00a      	add	sp, #40	; 0x28
 8001bec:	bd10      	pop	{r4, pc}
 8001bee:	4b50      	ldr	r3, [pc, #320]	; (8001d30 <HAL_TIM_Base_MspInit+0x170>)
 8001bf0:	699a      	ldr	r2, [r3, #24]
 8001bf2:	f442 6200 	orr.w	r2, r2, #2048	; 0x800
 8001bf6:	619a      	str	r2, [r3, #24]
 8001bf8:	699b      	ldr	r3, [r3, #24]
 8001bfa:	f403 6300 	and.w	r3, r3, #2048	; 0x800
 8001bfe:	9301      	str	r3, [sp, #4]
 8001c00:	9b01      	ldr	r3, [sp, #4]
 8001c02:	484c      	ldr	r0, [pc, #304]	; (8001d34 <HAL_TIM_Base_MspInit+0x174>)
 8001c04:	4b4c      	ldr	r3, [pc, #304]	; (8001d38 <HAL_TIM_Base_MspInit+0x178>)
 8001c06:	6003      	str	r3, [r0, #0]
 8001c08:	2300      	movs	r3, #0
 8001c0a:	6043      	str	r3, [r0, #4]
 8001c0c:	6083      	str	r3, [r0, #8]
 8001c0e:	2280      	movs	r2, #128	; 0x80
 8001c10:	60c2      	str	r2, [r0, #12]
 8001c12:	f44f 7280 	mov.w	r2, #256	; 0x100
 8001c16:	6102      	str	r2, [r0, #16]
 8001c18:	f44f 6280 	mov.w	r2, #1024	; 0x400
 8001c1c:	6142      	str	r2, [r0, #20]
 8001c1e:	2220      	movs	r2, #32
 8001c20:	6182      	str	r2, [r0, #24]
 8001c22:	61c3      	str	r3, [r0, #28]
 8001c24:	f000 fe4a 	bl	80028bc <HAL_DMA_Init>
 8001c28:	b998      	cbnz	r0, 8001c52 <HAL_TIM_Base_MspInit+0x92>
 8001c2a:	4b42      	ldr	r3, [pc, #264]	; (8001d34 <HAL_TIM_Base_MspInit+0x174>)
 8001c2c:	6263      	str	r3, [r4, #36]	; 0x24
 8001c2e:	625c      	str	r4, [r3, #36]	; 0x24
 8001c30:	2200      	movs	r2, #0
 8001c32:	4611      	mov	r1, r2
 8001c34:	2019      	movs	r0, #25
 8001c36:	f000 fde9 	bl	800280c <HAL_NVIC_SetPriority>
 8001c3a:	2019      	movs	r0, #25
 8001c3c:	f000 fe1a 	bl	8002874 <HAL_NVIC_EnableIRQ>
 8001c40:	2200      	movs	r2, #0
 8001c42:	4611      	mov	r1, r2
 8001c44:	201b      	movs	r0, #27
 8001c46:	f000 fde1 	bl	800280c <HAL_NVIC_SetPriority>
 8001c4a:	201b      	movs	r0, #27
 8001c4c:	f000 fe12 	bl	8002874 <HAL_NVIC_EnableIRQ>
 8001c50:	e7cb      	b.n	8001bea <HAL_TIM_Base_MspInit+0x2a>
 8001c52:	f7ff fc7f 	bl	8001554 <Error_Handler>
 8001c56:	e7e8      	b.n	8001c2a <HAL_TIM_Base_MspInit+0x6a>
 8001c58:	f503 3304 	add.w	r3, r3, #135168	; 0x21000
 8001c5c:	69da      	ldr	r2, [r3, #28]
 8001c5e:	f042 0201 	orr.w	r2, r2, #1
 8001c62:	61da      	str	r2, [r3, #28]
 8001c64:	69da      	ldr	r2, [r3, #28]
 8001c66:	f002 0201 	and.w	r2, r2, #1
 8001c6a:	9202      	str	r2, [sp, #8]
 8001c6c:	9a02      	ldr	r2, [sp, #8]
 8001c6e:	699a      	ldr	r2, [r3, #24]
 8001c70:	f042 0204 	orr.w	r2, r2, #4
 8001c74:	619a      	str	r2, [r3, #24]
 8001c76:	699b      	ldr	r3, [r3, #24]
 8001c78:	f003 0304 	and.w	r3, r3, #4
 8001c7c:	9303      	str	r3, [sp, #12]
 8001c7e:	9b03      	ldr	r3, [sp, #12]
 8001c80:	2304      	movs	r3, #4
 8001c82:	9306      	str	r3, [sp, #24]
 8001c84:	2400      	movs	r4, #0
 8001c86:	9407      	str	r4, [sp, #28]
 8001c88:	9408      	str	r4, [sp, #32]
 8001c8a:	a906      	add	r1, sp, #24
 8001c8c:	482b      	ldr	r0, [pc, #172]	; (8001d3c <HAL_TIM_Base_MspInit+0x17c>)
 8001c8e:	f000 ff3d 	bl	8002b0c <HAL_GPIO_Init>
 8001c92:	4622      	mov	r2, r4
 8001c94:	4621      	mov	r1, r4
 8001c96:	201c      	movs	r0, #28
 8001c98:	f000 fdb8 	bl	800280c <HAL_NVIC_SetPriority>
 8001c9c:	201c      	movs	r0, #28
 8001c9e:	f000 fde9 	bl	8002874 <HAL_NVIC_EnableIRQ>
 8001ca2:	e7a2      	b.n	8001bea <HAL_TIM_Base_MspInit+0x2a>
 8001ca4:	4b22      	ldr	r3, [pc, #136]	; (8001d30 <HAL_TIM_Base_MspInit+0x170>)
 8001ca6:	69da      	ldr	r2, [r3, #28]
 8001ca8:	f042 0202 	orr.w	r2, r2, #2
 8001cac:	61da      	str	r2, [r3, #28]
 8001cae:	69db      	ldr	r3, [r3, #28]
 8001cb0:	f003 0302 	and.w	r3, r3, #2
 8001cb4:	9304      	str	r3, [sp, #16]
 8001cb6:	9b04      	ldr	r3, [sp, #16]
 8001cb8:	2200      	movs	r2, #0
 8001cba:	4611      	mov	r1, r2
 8001cbc:	201d      	movs	r0, #29
 8001cbe:	f000 fda5 	bl	800280c <HAL_NVIC_SetPriority>
 8001cc2:	201d      	movs	r0, #29
 8001cc4:	f000 fdd6 	bl	8002874 <HAL_NVIC_EnableIRQ>
 8001cc8:	e78f      	b.n	8001bea <HAL_TIM_Base_MspInit+0x2a>
 8001cca:	4b19      	ldr	r3, [pc, #100]	; (8001d30 <HAL_TIM_Base_MspInit+0x170>)
 8001ccc:	69da      	ldr	r2, [r3, #28]
 8001cce:	f042 0204 	orr.w	r2, r2, #4
 8001cd2:	61da      	str	r2, [r3, #28]
 8001cd4:	69db      	ldr	r3, [r3, #28]
 8001cd6:	f003 0304 	and.w	r3, r3, #4
 8001cda:	9305      	str	r3, [sp, #20]
 8001cdc:	9b05      	ldr	r3, [sp, #20]
 8001cde:	4818      	ldr	r0, [pc, #96]	; (8001d40 <HAL_TIM_Base_MspInit+0x180>)
 8001ce0:	4b18      	ldr	r3, [pc, #96]	; (8001d44 <HAL_TIM_Base_MspInit+0x184>)
 8001ce2:	6003      	str	r3, [r0, #0]
 8001ce4:	2300      	movs	r3, #0
 8001ce6:	6043      	str	r3, [r0, #4]
 8001ce8:	6083      	str	r3, [r0, #8]
 8001cea:	2280      	movs	r2, #128	; 0x80
 8001cec:	60c2      	str	r2, [r0, #12]
 8001cee:	f44f 7280 	mov.w	r2, #256	; 0x100
 8001cf2:	6102      	str	r2, [r0, #16]
 8001cf4:	f44f 6280 	mov.w	r2, #1024	; 0x400
 8001cf8:	6142      	str	r2, [r0, #20]
 8001cfa:	2220      	movs	r2, #32
 8001cfc:	6182      	str	r2, [r0, #24]
 8001cfe:	61c3      	str	r3, [r0, #28]
 8001d00:	f000 fddc 	bl	80028bc <HAL_DMA_Init>
 8001d04:	b958      	cbnz	r0, 8001d1e <HAL_TIM_Base_MspInit+0x15e>
 8001d06:	4b0e      	ldr	r3, [pc, #56]	; (8001d40 <HAL_TIM_Base_MspInit+0x180>)
 8001d08:	6223      	str	r3, [r4, #32]
 8001d0a:	625c      	str	r4, [r3, #36]	; 0x24
 8001d0c:	2200      	movs	r2, #0
 8001d0e:	4611      	mov	r1, r2
 8001d10:	201e      	movs	r0, #30
 8001d12:	f000 fd7b 	bl	800280c <HAL_NVIC_SetPriority>
 8001d16:	201e      	movs	r0, #30
 8001d18:	f000 fdac 	bl	8002874 <HAL_NVIC_EnableIRQ>
 8001d1c:	e765      	b.n	8001bea <HAL_TIM_Base_MspInit+0x2a>
 8001d1e:	f7ff fc19 	bl	8001554 <Error_Handler>
 8001d22:	e7f0      	b.n	8001d06 <HAL_TIM_Base_MspInit+0x146>
 8001d24:	40012c00 	.word	0x40012c00
 8001d28:	40000400 	.word	0x40000400
 8001d2c:	40000800 	.word	0x40000800
 8001d30:	40021000 	.word	0x40021000
 8001d34:	20000280 	.word	0x20000280
 8001d38:	4002001c 	.word	0x4002001c
 8001d3c:	40010800 	.word	0x40010800
 8001d40:	200002c4 	.word	0x200002c4
 8001d44:	40020080 	.word	0x40020080

08001d48 <HAL_TIM_MspPostInit>:
 8001d48:	b500      	push	{lr}
 8001d4a:	b089      	sub	sp, #36	; 0x24
 8001d4c:	2300      	movs	r3, #0
 8001d4e:	9304      	str	r3, [sp, #16]
 8001d50:	9305      	str	r3, [sp, #20]
 8001d52:	9306      	str	r3, [sp, #24]
 8001d54:	9307      	str	r3, [sp, #28]
 8001d56:	6803      	ldr	r3, [r0, #0]
 8001d58:	4a29      	ldr	r2, [pc, #164]	; (8001e00 <HAL_TIM_MspPostInit+0xb8>)
 8001d5a:	4293      	cmp	r3, r2
 8001d5c:	d008      	beq.n	8001d70 <HAL_TIM_MspPostInit+0x28>
 8001d5e:	f1b3 4f80 	cmp.w	r3, #1073741824	; 0x40000000
 8001d62:	d01a      	beq.n	8001d9a <HAL_TIM_MspPostInit+0x52>
 8001d64:	4a27      	ldr	r2, [pc, #156]	; (8001e04 <HAL_TIM_MspPostInit+0xbc>)
 8001d66:	4293      	cmp	r3, r2
 8001d68:	d02c      	beq.n	8001dc4 <HAL_TIM_MspPostInit+0x7c>
 8001d6a:	b009      	add	sp, #36	; 0x24
 8001d6c:	f85d fb04 	ldr.w	pc, [sp], #4
 8001d70:	4b25      	ldr	r3, [pc, #148]	; (8001e08 <HAL_TIM_MspPostInit+0xc0>)
 8001d72:	699a      	ldr	r2, [r3, #24]
 8001d74:	f042 0208 	orr.w	r2, r2, #8
 8001d78:	619a      	str	r2, [r3, #24]
 8001d7a:	699b      	ldr	r3, [r3, #24]
 8001d7c:	f003 0308 	and.w	r3, r3, #8
 8001d80:	9301      	str	r3, [sp, #4]
 8001d82:	9b01      	ldr	r3, [sp, #4]
 8001d84:	f44f 5300 	mov.w	r3, #8192	; 0x2000
 8001d88:	9304      	str	r3, [sp, #16]
 8001d8a:	2302      	movs	r3, #2
 8001d8c:	9305      	str	r3, [sp, #20]
 8001d8e:	9307      	str	r3, [sp, #28]
 8001d90:	a904      	add	r1, sp, #16
 8001d92:	481e      	ldr	r0, [pc, #120]	; (8001e0c <HAL_TIM_MspPostInit+0xc4>)
 8001d94:	f000 feba 	bl	8002b0c <HAL_GPIO_Init>
 8001d98:	e7e7      	b.n	8001d6a <HAL_TIM_MspPostInit+0x22>
 8001d9a:	f503 3304 	add.w	r3, r3, #135168	; 0x21000
 8001d9e:	699a      	ldr	r2, [r3, #24]
 8001da0:	f042 0204 	orr.w	r2, r2, #4
 8001da4:	619a      	str	r2, [r3, #24]
 8001da6:	699b      	ldr	r3, [r3, #24]
 8001da8:	f003 0304 	and.w	r3, r3, #4
 8001dac:	9302      	str	r3, [sp, #8]
 8001dae:	9b02      	ldr	r3, [sp, #8]
 8001db0:	2308      	movs	r3, #8
 8001db2:	9304      	str	r3, [sp, #16]
 8001db4:	2302      	movs	r3, #2
 8001db6:	9305      	str	r3, [sp, #20]
 8001db8:	9307      	str	r3, [sp, #28]
 8001dba:	a904      	add	r1, sp, #16
 8001dbc:	4814      	ldr	r0, [pc, #80]	; (8001e10 <HAL_TIM_MspPostInit+0xc8>)
 8001dbe:	f000 fea5 	bl	8002b0c <HAL_GPIO_Init>
 8001dc2:	e7d2      	b.n	8001d6a <HAL_TIM_MspPostInit+0x22>
 8001dc4:	4b10      	ldr	r3, [pc, #64]	; (8001e08 <HAL_TIM_MspPostInit+0xc0>)
 8001dc6:	699a      	ldr	r2, [r3, #24]
 8001dc8:	f042 0208 	orr.w	r2, r2, #8
 8001dcc:	619a      	str	r2, [r3, #24]
 8001dce:	699b      	ldr	r3, [r3, #24]
 8001dd0:	f003 0308 	and.w	r3, r3, #8
 8001dd4:	9303      	str	r3, [sp, #12]
 8001dd6:	9b03      	ldr	r3, [sp, #12]
 8001dd8:	2310      	movs	r3, #16
 8001dda:	9304      	str	r3, [sp, #16]
 8001ddc:	2302      	movs	r3, #2
 8001dde:	9305      	str	r3, [sp, #20]
 8001de0:	9307      	str	r3, [sp, #28]
 8001de2:	a904      	add	r1, sp, #16
 8001de4:	4809      	ldr	r0, [pc, #36]	; (8001e0c <HAL_TIM_MspPostInit+0xc4>)
 8001de6:	f000 fe91 	bl	8002b0c <HAL_GPIO_Init>
 8001dea:	4a0a      	ldr	r2, [pc, #40]	; (8001e14 <HAL_TIM_MspPostInit+0xcc>)
 8001dec:	6853      	ldr	r3, [r2, #4]
 8001dee:	f423 6340 	bic.w	r3, r3, #3072	; 0xc00
 8001df2:	f043 63e0 	orr.w	r3, r3, #117440512	; 0x7000000
 8001df6:	f443 6300 	orr.w	r3, r3, #2048	; 0x800
 8001dfa:	6053      	str	r3, [r2, #4]
 8001dfc:	e7b5      	b.n	8001d6a <HAL_TIM_MspPostInit+0x22>
 8001dfe:	bf00      	nop
 8001e00:	40012c00 	.word	0x40012c00
 8001e04:	40000400 	.word	0x40000400
 8001e08:	40021000 	.word	0x40021000
 8001e0c:	40010c00 	.word	0x40010c00
 8001e10:	40010800 	.word	0x40010800
 8001e14:	40010000 	.word	0x40010000

08001e18 <NMI_Handler>:
 8001e18:	e7fe      	b.n	8001e18 <NMI_Handler>

08001e1a <HardFault_Handler>:
 8001e1a:	e7fe      	b.n	8001e1a <HardFault_Handler>

08001e1c <MemManage_Handler>:
 8001e1c:	e7fe      	b.n	8001e1c <MemManage_Handler>

08001e1e <BusFault_Handler>:
 8001e1e:	e7fe      	b.n	8001e1e <BusFault_Handler>

08001e20 <UsageFault_Handler>:
 8001e20:	e7fe      	b.n	8001e20 <UsageFault_Handler>

08001e22 <SVC_Handler>:
 8001e22:	4770      	bx	lr

08001e24 <DebugMon_Handler>:
 8001e24:	4770      	bx	lr

08001e26 <PendSV_Handler>:
 8001e26:	4770      	bx	lr

08001e28 <SysTick_Handler>:
 8001e28:	b508      	push	{r3, lr}
 8001e2a:	f000 f939 	bl	80020a0 <HAL_IncTick>
 8001e2e:	bd08      	pop	{r3, pc}

08001e30 <DMA1_Channel2_IRQHandler>:
 8001e30:	b508      	push	{r3, lr}
 8001e32:	4802      	ldr	r0, [pc, #8]	; (8001e3c <DMA1_Channel2_IRQHandler+0xc>)
 8001e34:	f000 fdc4 	bl	80029c0 <HAL_DMA_IRQHandler>
 8001e38:	bd08      	pop	{r3, pc}
 8001e3a:	bf00      	nop
 8001e3c:	20000280 	.word	0x20000280

08001e40 <DMA1_Channel7_IRQHandler>:
 8001e40:	b508      	push	{r3, lr}
 8001e42:	4802      	ldr	r0, [pc, #8]	; (8001e4c <DMA1_Channel7_IRQHandler+0xc>)
 8001e44:	f000 fdbc 	bl	80029c0 <HAL_DMA_IRQHandler>
 8001e48:	bd08      	pop	{r3, pc}
 8001e4a:	bf00      	nop
 8001e4c:	200002c4 	.word	0x200002c4

08001e50 <ADC1_2_IRQHandler>:
 8001e50:	b508      	push	{r3, lr}
 8001e52:	4802      	ldr	r0, [pc, #8]	; (8001e5c <ADC1_2_IRQHandler+0xc>)
 8001e54:	f000 f94c 	bl	80020f0 <HAL_ADC_IRQHandler>
 8001e58:	bd08      	pop	{r3, pc}
 8001e5a:	bf00      	nop
 8001e5c:	20000250 	.word	0x20000250

08001e60 <USB_HP_CAN1_TX_IRQHandler>:
 8001e60:	b508      	push	{r3, lr}
 8001e62:	4802      	ldr	r0, [pc, #8]	; (8001e6c <USB_HP_CAN1_TX_IRQHandler+0xc>)
 8001e64:	f003 f959 	bl	800511a <HAL_PCD_IRQHandler>
 8001e68:	bd08      	pop	{r3, pc}
 8001e6a:	bf00      	nop
 8001e6c:	20000af8 	.word	0x20000af8

08001e70 <USB_LP_CAN1_RX0_IRQHandler>:
 8001e70:	b508      	push	{r3, lr}
 8001e72:	4802      	ldr	r0, [pc, #8]	; (8001e7c <USB_LP_CAN1_RX0_IRQHandler+0xc>)
 8001e74:	f003 f951 	bl	800511a <HAL_PCD_IRQHandler>
 8001e78:	bd08      	pop	{r3, pc}
 8001e7a:	bf00      	nop
 8001e7c:	20000af8 	.word	0x20000af8

08001e80 <TIM1_UP_IRQHandler>:
 8001e80:	b508      	push	{r3, lr}
 8001e82:	4802      	ldr	r0, [pc, #8]	; (8001e8c <TIM1_UP_IRQHandler+0xc>)
 8001e84:	f004 f8ee 	bl	8006064 <HAL_TIM_IRQHandler>
 8001e88:	bd08      	pop	{r3, pc}
 8001e8a:	bf00      	nop
 8001e8c:	2000035c 	.word	0x2000035c

08001e90 <TIM1_CC_IRQHandler>:
 8001e90:	b508      	push	{r3, lr}
 8001e92:	4a09      	ldr	r2, [pc, #36]	; (8001eb8 <TIM1_CC_IRQHandler+0x28>)
 8001e94:	6813      	ldr	r3, [r2, #0]
 8001e96:	3301      	adds	r3, #1
 8001e98:	6013      	str	r3, [r2, #0]
 8001e9a:	4a08      	ldr	r2, [pc, #32]	; (8001ebc <TIM1_CC_IRQHandler+0x2c>)
 8001e9c:	6812      	ldr	r2, [r2, #0]
 8001e9e:	4293      	cmp	r3, r2
 8001ea0:	da03      	bge.n	8001eaa <TIM1_CC_IRQHandler+0x1a>
 8001ea2:	4807      	ldr	r0, [pc, #28]	; (8001ec0 <TIM1_CC_IRQHandler+0x30>)
 8001ea4:	f004 f8de 	bl	8006064 <HAL_TIM_IRQHandler>
 8001ea8:	bd08      	pop	{r3, pc}
 8001eaa:	2200      	movs	r2, #0
 8001eac:	f44f 5180 	mov.w	r1, #4096	; 0x1000
 8001eb0:	4804      	ldr	r0, [pc, #16]	; (8001ec4 <TIM1_CC_IRQHandler+0x34>)
 8001eb2:	f000 ff42 	bl	8002d3a <HAL_GPIO_WritePin>
 8001eb6:	e7f4      	b.n	8001ea2 <TIM1_CC_IRQHandler+0x12>
 8001eb8:	20000228 	.word	0x20000228
 8001ebc:	2000024c 	.word	0x2000024c
 8001ec0:	2000035c 	.word	0x2000035c
 8001ec4:	40010c00 	.word	0x40010c00

08001ec8 <TIM2_IRQHandler>:
 8001ec8:	b508      	push	{r3, lr}
 8001eca:	4802      	ldr	r0, [pc, #8]	; (8001ed4 <TIM2_IRQHandler+0xc>)
 8001ecc:	f004 f8ca 	bl	8006064 <HAL_TIM_IRQHandler>
 8001ed0:	bd08      	pop	{r3, pc}
 8001ed2:	bf00      	nop
 8001ed4:	200003a4 	.word	0x200003a4

08001ed8 <TIM3_IRQHandler>:
 8001ed8:	b508      	push	{r3, lr}
 8001eda:	4802      	ldr	r0, [pc, #8]	; (8001ee4 <TIM3_IRQHandler+0xc>)
 8001edc:	f004 f8c2 	bl	8006064 <HAL_TIM_IRQHandler>
 8001ee0:	bd08      	pop	{r3, pc}
 8001ee2:	bf00      	nop
 8001ee4:	200003ec 	.word	0x200003ec

08001ee8 <TIM4_IRQHandler>:
 8001ee8:	b508      	push	{r3, lr}
 8001eea:	4a14      	ldr	r2, [pc, #80]	; (8001f3c <TIM4_IRQHandler+0x54>)
 8001eec:	6813      	ldr	r3, [r2, #0]
 8001eee:	3301      	adds	r3, #1
 8001ef0:	6013      	str	r3, [r2, #0]
 8001ef2:	4b13      	ldr	r3, [pc, #76]	; (8001f40 <TIM4_IRQHandler+0x58>)
 8001ef4:	6adb      	ldr	r3, [r3, #44]	; 0x2c
 8001ef6:	4a13      	ldr	r2, [pc, #76]	; (8001f44 <TIM4_IRQHandler+0x5c>)
 8001ef8:	7812      	ldrb	r2, [r2, #0]
 8001efa:	b99a      	cbnz	r2, 8001f24 <TIM4_IRQHandler+0x3c>
 8001efc:	b29b      	uxth	r3, r3
 8001efe:	4a12      	ldr	r2, [pc, #72]	; (8001f48 <TIM4_IRQHandler+0x60>)
 8001f00:	8812      	ldrh	r2, [r2, #0]
 8001f02:	429a      	cmp	r2, r3
 8001f04:	d012      	beq.n	8001f2c <TIM4_IRQHandler+0x44>
 8001f06:	4911      	ldr	r1, [pc, #68]	; (8001f4c <TIM4_IRQHandler+0x64>)
 8001f08:	2000      	movs	r0, #0
 8001f0a:	7008      	strb	r0, [r1, #0]
 8001f0c:	4910      	ldr	r1, [pc, #64]	; (8001f50 <TIM4_IRQHandler+0x68>)
 8001f0e:	7809      	ldrb	r1, [r1, #0]
 8001f10:	1a5b      	subs	r3, r3, r1
 8001f12:	b29b      	uxth	r3, r3
 8001f14:	429a      	cmp	r2, r3
 8001f16:	d90d      	bls.n	8001f34 <TIM4_IRQHandler+0x4c>
 8001f18:	4b09      	ldr	r3, [pc, #36]	; (8001f40 <TIM4_IRQHandler+0x58>)
 8001f1a:	62da      	str	r2, [r3, #44]	; 0x2c
 8001f1c:	4a08      	ldr	r2, [pc, #32]	; (8001f40 <TIM4_IRQHandler+0x58>)
 8001f1e:	6ad3      	ldr	r3, [r2, #44]	; 0x2c
 8001f20:	085b      	lsrs	r3, r3, #1
 8001f22:	6353      	str	r3, [r2, #52]	; 0x34
 8001f24:	480b      	ldr	r0, [pc, #44]	; (8001f54 <TIM4_IRQHandler+0x6c>)
 8001f26:	f004 f89d 	bl	8006064 <HAL_TIM_IRQHandler>
 8001f2a:	bd08      	pop	{r3, pc}
 8001f2c:	4b07      	ldr	r3, [pc, #28]	; (8001f4c <TIM4_IRQHandler+0x64>)
 8001f2e:	2201      	movs	r2, #1
 8001f30:	701a      	strb	r2, [r3, #0]
 8001f32:	e7f7      	b.n	8001f24 <TIM4_IRQHandler+0x3c>
 8001f34:	4a02      	ldr	r2, [pc, #8]	; (8001f40 <TIM4_IRQHandler+0x58>)
 8001f36:	62d3      	str	r3, [r2, #44]	; 0x2c
 8001f38:	e7f0      	b.n	8001f1c <TIM4_IRQHandler+0x34>
 8001f3a:	bf00      	nop
 8001f3c:	20000224 	.word	0x20000224
 8001f40:	40012c00 	.word	0x40012c00
 8001f44:	20000234 	.word	0x20000234
 8001f48:	20000004 	.word	0x20000004
 8001f4c:	20000230 	.word	0x20000230
 8001f50:	2000021c 	.word	0x2000021c
 8001f54:	20000434 	.word	0x20000434

08001f58 <I2C1_EV_IRQHandler>:
 8001f58:	b508      	push	{r3, lr}
 8001f5a:	4802      	ldr	r0, [pc, #8]	; (8001f64 <I2C1_EV_IRQHandler+0xc>)
 8001f5c:	f002 fa38 	bl	80043d0 <HAL_I2C_EV_IRQHandler>
 8001f60:	bd08      	pop	{r3, pc}
 8001f62:	bf00      	nop
 8001f64:	20000308 	.word	0x20000308

08001f68 <I2C1_ER_IRQHandler>:
 8001f68:	b508      	push	{r3, lr}
 8001f6a:	4802      	ldr	r0, [pc, #8]	; (8001f74 <I2C1_ER_IRQHandler+0xc>)
 8001f6c:	f002 fb00 	bl	8004570 <HAL_I2C_ER_IRQHandler>
 8001f70:	bd08      	pop	{r3, pc}
 8001f72:	bf00      	nop
 8001f74:	20000308 	.word	0x20000308

08001f78 <_getpid>:
 8001f78:	2001      	movs	r0, #1
 8001f7a:	4770      	bx	lr

08001f7c <_kill>:
 8001f7c:	b508      	push	{r3, lr}
 8001f7e:	f007 f87b 	bl	8009078 <__errno>
 8001f82:	2316      	movs	r3, #22
 8001f84:	6003      	str	r3, [r0, #0]
 8001f86:	f04f 30ff 	mov.w	r0, #4294967295
 8001f8a:	bd08      	pop	{r3, pc}

08001f8c <_exit>:
 8001f8c:	b508      	push	{r3, lr}
 8001f8e:	f04f 31ff 	mov.w	r1, #4294967295
 8001f92:	f7ff fff3 	bl	8001f7c <_kill>
 8001f96:	e7fe      	b.n	8001f96 <_exit+0xa>

08001f98 <_sbrk>:
 8001f98:	b510      	push	{r4, lr}
 8001f9a:	4603      	mov	r3, r0
 8001f9c:	4a0c      	ldr	r2, [pc, #48]	; (8001fd0 <_sbrk+0x38>)
 8001f9e:	490d      	ldr	r1, [pc, #52]	; (8001fd4 <_sbrk+0x3c>)
 8001fa0:	480d      	ldr	r0, [pc, #52]	; (8001fd8 <_sbrk+0x40>)
 8001fa2:	6800      	ldr	r0, [r0, #0]
 8001fa4:	b140      	cbz	r0, 8001fb8 <_sbrk+0x20>
 8001fa6:	480c      	ldr	r0, [pc, #48]	; (8001fd8 <_sbrk+0x40>)
 8001fa8:	6800      	ldr	r0, [r0, #0]
 8001faa:	4403      	add	r3, r0
 8001fac:	1a52      	subs	r2, r2, r1
 8001fae:	4293      	cmp	r3, r2
 8001fb0:	d806      	bhi.n	8001fc0 <_sbrk+0x28>
 8001fb2:	4a09      	ldr	r2, [pc, #36]	; (8001fd8 <_sbrk+0x40>)
 8001fb4:	6013      	str	r3, [r2, #0]
 8001fb6:	bd10      	pop	{r4, pc}
 8001fb8:	4807      	ldr	r0, [pc, #28]	; (8001fd8 <_sbrk+0x40>)
 8001fba:	4c08      	ldr	r4, [pc, #32]	; (8001fdc <_sbrk+0x44>)
 8001fbc:	6004      	str	r4, [r0, #0]
 8001fbe:	e7f2      	b.n	8001fa6 <_sbrk+0xe>
 8001fc0:	f007 f85a 	bl	8009078 <__errno>
 8001fc4:	230c      	movs	r3, #12
 8001fc6:	6003      	str	r3, [r0, #0]
 8001fc8:	f04f 30ff 	mov.w	r0, #4294967295
 8001fcc:	e7f3      	b.n	8001fb6 <_sbrk+0x1e>
 8001fce:	bf00      	nop
 8001fd0:	20005000 	.word	0x20005000
 8001fd4:	00000400 	.word	0x00000400
 8001fd8:	2000047c 	.word	0x2000047c
 8001fdc:	20000df8 	.word	0x20000df8

08001fe0 <SystemInit>:
 8001fe0:	4770      	bx	lr
	...

08001fe4 <Reset_Handler>:
 8001fe4:	480c      	ldr	r0, [pc, #48]	; (8002018 <LoopFillZerobss+0x12>)
 8001fe6:	490d      	ldr	r1, [pc, #52]	; (800201c <LoopFillZerobss+0x16>)
 8001fe8:	4a0d      	ldr	r2, [pc, #52]	; (8002020 <LoopFillZerobss+0x1a>)
 8001fea:	2300      	movs	r3, #0
 8001fec:	e002      	b.n	8001ff4 <LoopCopyDataInit>

08001fee <CopyDataInit>:
 8001fee:	58d4      	ldr	r4, [r2, r3]
 8001ff0:	50c4      	str	r4, [r0, r3]
 8001ff2:	3304      	adds	r3, #4

08001ff4 <LoopCopyDataInit>:
 8001ff4:	18c4      	adds	r4, r0, r3
 8001ff6:	428c      	cmp	r4, r1
 8001ff8:	d3f9      	bcc.n	8001fee <CopyDataInit>
 8001ffa:	4a0a      	ldr	r2, [pc, #40]	; (8002024 <LoopFillZerobss+0x1e>)
 8001ffc:	4c0a      	ldr	r4, [pc, #40]	; (8002028 <LoopFillZerobss+0x22>)
 8001ffe:	2300      	movs	r3, #0
 8002000:	e001      	b.n	8002006 <LoopFillZerobss>

08002002 <FillZerobss>:
 8002002:	6013      	str	r3, [r2, #0]
 8002004:	3204      	adds	r2, #4

08002006 <LoopFillZerobss>:
 8002006:	42a2      	cmp	r2, r4
 8002008:	d3fb      	bcc.n	8002002 <FillZerobss>
 800200a:	f7ff ffe9 	bl	8001fe0 <SystemInit>
 800200e:	f007 f839 	bl	8009084 <__libc_init_array>
 8002012:	f7ff fcab 	bl	800196c <main>
 8002016:	4770      	bx	lr
 8002018:	20000000 	.word	0x20000000
 800201c:	200001e8 	.word	0x200001e8
 8002020:	08009974 	.word	0x08009974
 8002024:	200001e8 	.word	0x200001e8
 8002028:	20000df4 	.word	0x20000df4

0800202c <CAN1_RX1_IRQHandler>:
 800202c:	e7fe      	b.n	800202c <CAN1_RX1_IRQHandler>
	...

08002030 <HAL_InitTick>:
 8002030:	b510      	push	{r4, lr}
 8002032:	4604      	mov	r4, r0
 8002034:	4b0e      	ldr	r3, [pc, #56]	; (8002070 <HAL_InitTick+0x40>)
 8002036:	7818      	ldrb	r0, [r3, #0]
 8002038:	f44f 737a 	mov.w	r3, #1000	; 0x3e8
 800203c:	fbb3 f3f0 	udiv	r3, r3, r0
 8002040:	4a0c      	ldr	r2, [pc, #48]	; (8002074 <HAL_InitTick+0x44>)
 8002042:	6810      	ldr	r0, [r2, #0]
 8002044:	fbb0 f0f3 	udiv	r0, r0, r3
 8002048:	f000 fc22 	bl	8002890 <HAL_SYSTICK_Config>
 800204c:	b968      	cbnz	r0, 800206a <HAL_InitTick+0x3a>
 800204e:	2c0f      	cmp	r4, #15
 8002050:	d901      	bls.n	8002056 <HAL_InitTick+0x26>
 8002052:	2001      	movs	r0, #1
 8002054:	e00a      	b.n	800206c <HAL_InitTick+0x3c>
 8002056:	2200      	movs	r2, #0
 8002058:	4621      	mov	r1, r4
 800205a:	f04f 30ff 	mov.w	r0, #4294967295
 800205e:	f000 fbd5 	bl	800280c <HAL_NVIC_SetPriority>
 8002062:	4b05      	ldr	r3, [pc, #20]	; (8002078 <HAL_InitTick+0x48>)
 8002064:	601c      	str	r4, [r3, #0]
 8002066:	2000      	movs	r0, #0
 8002068:	e000      	b.n	800206c <HAL_InitTick+0x3c>
 800206a:	2001      	movs	r0, #1
 800206c:	bd10      	pop	{r4, pc}
 800206e:	bf00      	nop
 8002070:	2000000c 	.word	0x2000000c
 8002074:	20000008 	.word	0x20000008
 8002078:	20000010 	.word	0x20000010

0800207c <HAL_Init>:
 800207c:	b508      	push	{r3, lr}
 800207e:	4a07      	ldr	r2, [pc, #28]	; (800209c <HAL_Init+0x20>)
 8002080:	6813      	ldr	r3, [r2, #0]
 8002082:	f043 0310 	orr.w	r3, r3, #16
 8002086:	6013      	str	r3, [r2, #0]
 8002088:	2003      	movs	r0, #3
 800208a:	f000 fbad 	bl	80027e8 <HAL_NVIC_SetPriorityGrouping>
 800208e:	200f      	movs	r0, #15
 8002090:	f7ff ffce 	bl	8002030 <HAL_InitTick>
 8002094:	f7ff fcf0 	bl	8001a78 <HAL_MspInit>
 8002098:	2000      	movs	r0, #0
 800209a:	bd08      	pop	{r3, pc}
 800209c:	40022000 	.word	0x40022000

080020a0 <HAL_IncTick>:
 80020a0:	4a03      	ldr	r2, [pc, #12]	; (80020b0 <HAL_IncTick+0x10>)
 80020a2:	6811      	ldr	r1, [r2, #0]
 80020a4:	4b03      	ldr	r3, [pc, #12]	; (80020b4 <HAL_IncTick+0x14>)
 80020a6:	781b      	ldrb	r3, [r3, #0]
 80020a8:	440b      	add	r3, r1
 80020aa:	6013      	str	r3, [r2, #0]
 80020ac:	4770      	bx	lr
 80020ae:	bf00      	nop
 80020b0:	20000630 	.word	0x20000630
 80020b4:	2000000c 	.word	0x2000000c

080020b8 <HAL_GetTick>:
 80020b8:	4b01      	ldr	r3, [pc, #4]	; (80020c0 <HAL_GetTick+0x8>)
 80020ba:	6818      	ldr	r0, [r3, #0]
 80020bc:	4770      	bx	lr
 80020be:	bf00      	nop
 80020c0:	20000630 	.word	0x20000630

080020c4 <HAL_Delay>:
 80020c4:	b538      	push	{r3, r4, r5, lr}
 80020c6:	4604      	mov	r4, r0
 80020c8:	f7ff fff6 	bl	80020b8 <HAL_GetTick>
 80020cc:	4605      	mov	r5, r0
 80020ce:	f1b4 3fff 	cmp.w	r4, #4294967295
 80020d2:	d002      	beq.n	80020da <HAL_Delay+0x16>
 80020d4:	4b04      	ldr	r3, [pc, #16]	; (80020e8 <HAL_Delay+0x24>)
 80020d6:	781b      	ldrb	r3, [r3, #0]
 80020d8:	441c      	add	r4, r3
 80020da:	f7ff ffed 	bl	80020b8 <HAL_GetTick>
 80020de:	1b40      	subs	r0, r0, r5
 80020e0:	42a0      	cmp	r0, r4
 80020e2:	d3fa      	bcc.n	80020da <HAL_Delay+0x16>
 80020e4:	bd38      	pop	{r3, r4, r5, pc}
 80020e6:	bf00      	nop
 80020e8:	2000000c 	.word	0x2000000c

080020ec <HAL_ADC_ConvCpltCallback>:
 80020ec:	4770      	bx	lr

080020ee <HAL_ADC_LevelOutOfWindowCallback>:
 80020ee:	4770      	bx	lr

080020f0 <HAL_ADC_IRQHandler>:
 80020f0:	b510      	push	{r4, lr}
 80020f2:	4604      	mov	r4, r0
 80020f4:	6803      	ldr	r3, [r0, #0]
 80020f6:	685a      	ldr	r2, [r3, #4]
 80020f8:	f012 0f20 	tst.w	r2, #32
 80020fc:	d018      	beq.n	8002130 <HAL_ADC_IRQHandler+0x40>
 80020fe:	681a      	ldr	r2, [r3, #0]
 8002100:	f012 0f02 	tst.w	r2, #2
 8002104:	d014      	beq.n	8002130 <HAL_ADC_IRQHandler+0x40>
 8002106:	6a82      	ldr	r2, [r0, #40]	; 0x28
 8002108:	f012 0f10 	tst.w	r2, #16
 800210c:	d103      	bne.n	8002116 <HAL_ADC_IRQHandler+0x26>
 800210e:	6a82      	ldr	r2, [r0, #40]	; 0x28
 8002110:	f442 7200 	orr.w	r2, r2, #512	; 0x200
 8002114:	6282      	str	r2, [r0, #40]	; 0x28
 8002116:	689a      	ldr	r2, [r3, #8]
 8002118:	f402 2260 	and.w	r2, r2, #917504	; 0xe0000
 800211c:	f5b2 2f60 	cmp.w	r2, #917504	; 0xe0000
 8002120:	d038      	beq.n	8002194 <HAL_ADC_IRQHandler+0xa4>
 8002122:	4620      	mov	r0, r4
 8002124:	f7ff ffe2 	bl	80020ec <HAL_ADC_ConvCpltCallback>
 8002128:	6823      	ldr	r3, [r4, #0]
 800212a:	f06f 0212 	mvn.w	r2, #18
 800212e:	601a      	str	r2, [r3, #0]
 8002130:	6823      	ldr	r3, [r4, #0]
 8002132:	685a      	ldr	r2, [r3, #4]
 8002134:	f012 0f80 	tst.w	r2, #128	; 0x80
 8002138:	d022      	beq.n	8002180 <HAL_ADC_IRQHandler+0x90>
 800213a:	681a      	ldr	r2, [r3, #0]
 800213c:	f012 0f04 	tst.w	r2, #4
 8002140:	d01e      	beq.n	8002180 <HAL_ADC_IRQHandler+0x90>
 8002142:	6aa2      	ldr	r2, [r4, #40]	; 0x28
 8002144:	f012 0f10 	tst.w	r2, #16
 8002148:	d103      	bne.n	8002152 <HAL_ADC_IRQHandler+0x62>
 800214a:	6aa2      	ldr	r2, [r4, #40]	; 0x28
 800214c:	f442 5200 	orr.w	r2, r2, #8192	; 0x2000
 8002150:	62a2      	str	r2, [r4, #40]	; 0x28
 8002152:	689a      	ldr	r2, [r3, #8]
 8002154:	f402 42e0 	and.w	r2, r2, #28672	; 0x7000
 8002158:	f5b2 4fe0 	cmp.w	r2, #28672	; 0x7000
 800215c:	d031      	beq.n	80021c2 <HAL_ADC_IRQHandler+0xd2>
 800215e:	685a      	ldr	r2, [r3, #4]
 8002160:	f412 6f80 	tst.w	r2, #1024	; 0x400
 8002164:	d105      	bne.n	8002172 <HAL_ADC_IRQHandler+0x82>
 8002166:	689a      	ldr	r2, [r3, #8]
 8002168:	f402 2260 	and.w	r2, r2, #917504	; 0xe0000
 800216c:	f5b2 2f60 	cmp.w	r2, #917504	; 0xe0000
 8002170:	d024      	beq.n	80021bc <HAL_ADC_IRQHandler+0xcc>
 8002172:	4620      	mov	r0, r4
 8002174:	f7ff f9a2 	bl	80014bc <HAL_ADCEx_InjectedConvCpltCallback>
 8002178:	6823      	ldr	r3, [r4, #0]
 800217a:	f06f 020c 	mvn.w	r2, #12
 800217e:	601a      	str	r2, [r3, #0]
 8002180:	6823      	ldr	r3, [r4, #0]
 8002182:	685a      	ldr	r2, [r3, #4]
 8002184:	f012 0f40 	tst.w	r2, #64	; 0x40
 8002188:	d003      	beq.n	8002192 <HAL_ADC_IRQHandler+0xa2>
 800218a:	681b      	ldr	r3, [r3, #0]
 800218c:	f013 0f01 	tst.w	r3, #1
 8002190:	d128      	bne.n	80021e4 <HAL_ADC_IRQHandler+0xf4>
 8002192:	bd10      	pop	{r4, pc}
 8002194:	7b22      	ldrb	r2, [r4, #12]
 8002196:	2a00      	cmp	r2, #0
 8002198:	d1c3      	bne.n	8002122 <HAL_ADC_IRQHandler+0x32>
 800219a:	685a      	ldr	r2, [r3, #4]
 800219c:	f022 0220 	bic.w	r2, r2, #32
 80021a0:	605a      	str	r2, [r3, #4]
 80021a2:	6aa3      	ldr	r3, [r4, #40]	; 0x28
 80021a4:	f423 7380 	bic.w	r3, r3, #256	; 0x100
 80021a8:	62a3      	str	r3, [r4, #40]	; 0x28
 80021aa:	6aa3      	ldr	r3, [r4, #40]	; 0x28
 80021ac:	f413 5f80 	tst.w	r3, #4096	; 0x1000
 80021b0:	d1b7      	bne.n	8002122 <HAL_ADC_IRQHandler+0x32>
 80021b2:	6aa3      	ldr	r3, [r4, #40]	; 0x28
 80021b4:	f043 0301 	orr.w	r3, r3, #1
 80021b8:	62a3      	str	r3, [r4, #40]	; 0x28
 80021ba:	e7b2      	b.n	8002122 <HAL_ADC_IRQHandler+0x32>
 80021bc:	7b22      	ldrb	r2, [r4, #12]
 80021be:	2a00      	cmp	r2, #0
 80021c0:	d1d7      	bne.n	8002172 <HAL_ADC_IRQHandler+0x82>
 80021c2:	685a      	ldr	r2, [r3, #4]
 80021c4:	f022 0280 	bic.w	r2, r2, #128	; 0x80
 80021c8:	605a      	str	r2, [r3, #4]
 80021ca:	6aa3      	ldr	r3, [r4, #40]	; 0x28
 80021cc:	f423 5380 	bic.w	r3, r3, #4096	; 0x1000
 80021d0:	62a3      	str	r3, [r4, #40]	; 0x28
 80021d2:	6aa3      	ldr	r3, [r4, #40]	; 0x28
 80021d4:	f413 7f80 	tst.w	r3, #256	; 0x100
 80021d8:	d1cb      	bne.n	8002172 <HAL_ADC_IRQHandler+0x82>
 80021da:	6aa3      	ldr	r3, [r4, #40]	; 0x28
 80021dc:	f043 0301 	orr.w	r3, r3, #1
 80021e0:	62a3      	str	r3, [r4, #40]	; 0x28
 80021e2:	e7c6      	b.n	8002172 <HAL_ADC_IRQHandler+0x82>
 80021e4:	6aa3      	ldr	r3, [r4, #40]	; 0x28
 80021e6:	f443 3380 	orr.w	r3, r3, #65536	; 0x10000
 80021ea:	62a3      	str	r3, [r4, #40]	; 0x28
 80021ec:	4620      	mov	r0, r4
 80021ee:	f7ff ff7e 	bl	80020ee <HAL_ADC_LevelOutOfWindowCallback>
 80021f2:	6823      	ldr	r3, [r4, #0]
 80021f4:	f06f 0201 	mvn.w	r2, #1
 80021f8:	601a      	str	r2, [r3, #0]
 80021fa:	e7ca      	b.n	8002192 <HAL_ADC_IRQHandler+0xa2>

080021fc <ADC_Enable>:
 80021fc:	b530      	push	{r4, r5, lr}
 80021fe:	b083      	sub	sp, #12
 8002200:	2300      	movs	r3, #0
 8002202:	9301      	str	r3, [sp, #4]
 8002204:	6803      	ldr	r3, [r0, #0]
 8002206:	689a      	ldr	r2, [r3, #8]
 8002208:	f012 0f01 	tst.w	r2, #1
 800220c:	d132      	bne.n	8002274 <ADC_Enable+0x78>
 800220e:	4604      	mov	r4, r0
 8002210:	689a      	ldr	r2, [r3, #8]
 8002212:	f042 0201 	orr.w	r2, r2, #1
 8002216:	609a      	str	r2, [r3, #8]
 8002218:	4b18      	ldr	r3, [pc, #96]	; (800227c <ADC_Enable+0x80>)
 800221a:	681b      	ldr	r3, [r3, #0]
 800221c:	4a18      	ldr	r2, [pc, #96]	; (8002280 <ADC_Enable+0x84>)
 800221e:	fba2 2303 	umull	r2, r3, r2, r3
 8002222:	0c9b      	lsrs	r3, r3, #18
 8002224:	9301      	str	r3, [sp, #4]
 8002226:	9b01      	ldr	r3, [sp, #4]
 8002228:	b11b      	cbz	r3, 8002232 <ADC_Enable+0x36>
 800222a:	9b01      	ldr	r3, [sp, #4]
 800222c:	3b01      	subs	r3, #1
 800222e:	9301      	str	r3, [sp, #4]
 8002230:	e7f9      	b.n	8002226 <ADC_Enable+0x2a>
 8002232:	f7ff ff41 	bl	80020b8 <HAL_GetTick>
 8002236:	4605      	mov	r5, r0
 8002238:	6823      	ldr	r3, [r4, #0]
 800223a:	689b      	ldr	r3, [r3, #8]
 800223c:	f013 0f01 	tst.w	r3, #1
 8002240:	d116      	bne.n	8002270 <ADC_Enable+0x74>
 8002242:	f7ff ff39 	bl	80020b8 <HAL_GetTick>
 8002246:	1b43      	subs	r3, r0, r5
 8002248:	2b02      	cmp	r3, #2
 800224a:	d9f5      	bls.n	8002238 <ADC_Enable+0x3c>
 800224c:	6823      	ldr	r3, [r4, #0]
 800224e:	689b      	ldr	r3, [r3, #8]
 8002250:	f013 0f01 	tst.w	r3, #1
 8002254:	d1f0      	bne.n	8002238 <ADC_Enable+0x3c>
 8002256:	6aa3      	ldr	r3, [r4, #40]	; 0x28
 8002258:	f043 0310 	orr.w	r3, r3, #16
 800225c:	62a3      	str	r3, [r4, #40]	; 0x28
 800225e:	6ae3      	ldr	r3, [r4, #44]	; 0x2c
 8002260:	f043 0301 	orr.w	r3, r3, #1
 8002264:	62e3      	str	r3, [r4, #44]	; 0x2c
 8002266:	2300      	movs	r3, #0
 8002268:	f884 3024 	strb.w	r3, [r4, #36]	; 0x24
 800226c:	2001      	movs	r0, #1
 800226e:	e002      	b.n	8002276 <ADC_Enable+0x7a>
 8002270:	2000      	movs	r0, #0
 8002272:	e000      	b.n	8002276 <ADC_Enable+0x7a>
 8002274:	2000      	movs	r0, #0
 8002276:	b003      	add	sp, #12
 8002278:	bd30      	pop	{r4, r5, pc}
 800227a:	bf00      	nop
 800227c:	20000008 	.word	0x20000008
 8002280:	431bde83 	.word	0x431bde83

08002284 <ADC_ConversionStop_Disable>:
 8002284:	b538      	push	{r3, r4, r5, lr}
 8002286:	6803      	ldr	r3, [r0, #0]
 8002288:	689a      	ldr	r2, [r3, #8]
 800228a:	f012 0f01 	tst.w	r2, #1
 800228e:	d101      	bne.n	8002294 <ADC_ConversionStop_Disable+0x10>
 8002290:	2000      	movs	r0, #0
 8002292:	bd38      	pop	{r3, r4, r5, pc}
 8002294:	4604      	mov	r4, r0
 8002296:	689a      	ldr	r2, [r3, #8]
 8002298:	f022 0201 	bic.w	r2, r2, #1
 800229c:	609a      	str	r2, [r3, #8]
 800229e:	f7ff ff0b 	bl	80020b8 <HAL_GetTick>
 80022a2:	4605      	mov	r5, r0
 80022a4:	6823      	ldr	r3, [r4, #0]
 80022a6:	689b      	ldr	r3, [r3, #8]
 80022a8:	f013 0f01 	tst.w	r3, #1
 80022ac:	d013      	beq.n	80022d6 <ADC_ConversionStop_Disable+0x52>
 80022ae:	f7ff ff03 	bl	80020b8 <HAL_GetTick>
 80022b2:	1b43      	subs	r3, r0, r5
 80022b4:	2b02      	cmp	r3, #2
 80022b6:	d9f5      	bls.n	80022a4 <ADC_ConversionStop_Disable+0x20>
 80022b8:	6823      	ldr	r3, [r4, #0]
 80022ba:	689b      	ldr	r3, [r3, #8]
 80022bc:	f013 0f01 	tst.w	r3, #1
 80022c0:	d0f0      	beq.n	80022a4 <ADC_ConversionStop_Disable+0x20>
 80022c2:	6aa3      	ldr	r3, [r4, #40]	; 0x28
 80022c4:	f043 0310 	orr.w	r3, r3, #16
 80022c8:	62a3      	str	r3, [r4, #40]	; 0x28
 80022ca:	6ae3      	ldr	r3, [r4, #44]	; 0x2c
 80022cc:	f043 0301 	orr.w	r3, r3, #1
 80022d0:	62e3      	str	r3, [r4, #44]	; 0x2c
 80022d2:	2001      	movs	r0, #1
 80022d4:	e7dd      	b.n	8002292 <ADC_ConversionStop_Disable+0xe>
 80022d6:	2000      	movs	r0, #0
 80022d8:	e7db      	b.n	8002292 <ADC_ConversionStop_Disable+0xe>
	...

080022dc <HAL_ADC_Init>:
 80022dc:	2800      	cmp	r0, #0
 80022de:	d07b      	beq.n	80023d8 <HAL_ADC_Init+0xfc>
 80022e0:	b570      	push	{r4, r5, r6, lr}
 80022e2:	4604      	mov	r4, r0
 80022e4:	6a83      	ldr	r3, [r0, #40]	; 0x28
 80022e6:	2b00      	cmp	r3, #0
 80022e8:	d04d      	beq.n	8002386 <HAL_ADC_Init+0xaa>
 80022ea:	4620      	mov	r0, r4
 80022ec:	f7ff ffca 	bl	8002284 <ADC_ConversionStop_Disable>
 80022f0:	6aa3      	ldr	r3, [r4, #40]	; 0x28
 80022f2:	f013 0310 	ands.w	r3, r3, #16
 80022f6:	d169      	bne.n	80023cc <HAL_ADC_Init+0xf0>
 80022f8:	2800      	cmp	r0, #0
 80022fa:	d167      	bne.n	80023cc <HAL_ADC_Init+0xf0>
 80022fc:	6aa2      	ldr	r2, [r4, #40]	; 0x28
 80022fe:	f422 5288 	bic.w	r2, r2, #4352	; 0x1100
 8002302:	f022 0202 	bic.w	r2, r2, #2
 8002306:	f042 0202 	orr.w	r2, r2, #2
 800230a:	62a2      	str	r2, [r4, #40]	; 0x28
 800230c:	6862      	ldr	r2, [r4, #4]
 800230e:	69e1      	ldr	r1, [r4, #28]
 8002310:	430a      	orrs	r2, r1
 8002312:	7b21      	ldrb	r1, [r4, #12]
 8002314:	ea42 0241 	orr.w	r2, r2, r1, lsl #1
 8002318:	68a5      	ldr	r5, [r4, #8]
 800231a:	f5b5 7f80 	cmp.w	r5, #256	; 0x100
 800231e:	d002      	beq.n	8002326 <HAL_ADC_Init+0x4a>
 8002320:	2d01      	cmp	r5, #1
 8002322:	d036      	beq.n	8002392 <HAL_ADC_Init+0xb6>
 8002324:	461d      	mov	r5, r3
 8002326:	7d26      	ldrb	r6, [r4, #20]
 8002328:	2e01      	cmp	r6, #1
 800232a:	d035      	beq.n	8002398 <HAL_ADC_Init+0xbc>
 800232c:	6826      	ldr	r6, [r4, #0]
 800232e:	6871      	ldr	r1, [r6, #4]
 8002330:	f421 4169 	bic.w	r1, r1, #59648	; 0xe900
 8002334:	4329      	orrs	r1, r5
 8002336:	6071      	str	r1, [r6, #4]
 8002338:	6825      	ldr	r5, [r4, #0]
 800233a:	68ae      	ldr	r6, [r5, #8]
 800233c:	4927      	ldr	r1, [pc, #156]	; (80023dc <HAL_ADC_Init+0x100>)
 800233e:	4031      	ands	r1, r6
 8002340:	4311      	orrs	r1, r2
 8002342:	60a9      	str	r1, [r5, #8]
 8002344:	68a1      	ldr	r1, [r4, #8]
 8002346:	f5b1 7f80 	cmp.w	r1, #256	; 0x100
 800234a:	d001      	beq.n	8002350 <HAL_ADC_Init+0x74>
 800234c:	2901      	cmp	r1, #1
 800234e:	d102      	bne.n	8002356 <HAL_ADC_Init+0x7a>
 8002350:	6923      	ldr	r3, [r4, #16]
 8002352:	3b01      	subs	r3, #1
 8002354:	051b      	lsls	r3, r3, #20
 8002356:	6825      	ldr	r5, [r4, #0]
 8002358:	6ae9      	ldr	r1, [r5, #44]	; 0x2c
 800235a:	f421 0170 	bic.w	r1, r1, #15728640	; 0xf00000
 800235e:	430b      	orrs	r3, r1
 8002360:	62eb      	str	r3, [r5, #44]	; 0x2c
 8002362:	6823      	ldr	r3, [r4, #0]
 8002364:	6899      	ldr	r1, [r3, #8]
 8002366:	4b1e      	ldr	r3, [pc, #120]	; (80023e0 <HAL_ADC_Init+0x104>)
 8002368:	400b      	ands	r3, r1
 800236a:	429a      	cmp	r2, r3
 800236c:	d025      	beq.n	80023ba <HAL_ADC_Init+0xde>
 800236e:	6aa3      	ldr	r3, [r4, #40]	; 0x28
 8002370:	f023 0312 	bic.w	r3, r3, #18
 8002374:	f043 0310 	orr.w	r3, r3, #16
 8002378:	62a3      	str	r3, [r4, #40]	; 0x28
 800237a:	6ae3      	ldr	r3, [r4, #44]	; 0x2c
 800237c:	f043 0301 	orr.w	r3, r3, #1
 8002380:	62e3      	str	r3, [r4, #44]	; 0x2c
 8002382:	2001      	movs	r0, #1
 8002384:	e027      	b.n	80023d6 <HAL_ADC_Init+0xfa>
 8002386:	62c3      	str	r3, [r0, #44]	; 0x2c
 8002388:	f880 3024 	strb.w	r3, [r0, #36]	; 0x24
 800238c:	f7ff fb96 	bl	8001abc <HAL_ADC_MspInit>
 8002390:	e7ab      	b.n	80022ea <HAL_ADC_Init+0xe>
 8002392:	f44f 7580 	mov.w	r5, #256	; 0x100
 8002396:	e7c6      	b.n	8002326 <HAL_ADC_Init+0x4a>
 8002398:	b931      	cbnz	r1, 80023a8 <HAL_ADC_Init+0xcc>
 800239a:	69a1      	ldr	r1, [r4, #24]
 800239c:	3901      	subs	r1, #1
 800239e:	ea45 3141 	orr.w	r1, r5, r1, lsl #13
 80023a2:	f441 6500 	orr.w	r5, r1, #2048	; 0x800
 80023a6:	e7c1      	b.n	800232c <HAL_ADC_Init+0x50>
 80023a8:	6aa1      	ldr	r1, [r4, #40]	; 0x28
 80023aa:	f041 0120 	orr.w	r1, r1, #32
 80023ae:	62a1      	str	r1, [r4, #40]	; 0x28
 80023b0:	6ae1      	ldr	r1, [r4, #44]	; 0x2c
 80023b2:	f041 0101 	orr.w	r1, r1, #1
 80023b6:	62e1      	str	r1, [r4, #44]	; 0x2c
 80023b8:	e7b8      	b.n	800232c <HAL_ADC_Init+0x50>
 80023ba:	2300      	movs	r3, #0
 80023bc:	62e3      	str	r3, [r4, #44]	; 0x2c
 80023be:	6aa3      	ldr	r3, [r4, #40]	; 0x28
 80023c0:	f023 0303 	bic.w	r3, r3, #3
 80023c4:	f043 0301 	orr.w	r3, r3, #1
 80023c8:	62a3      	str	r3, [r4, #40]	; 0x28
 80023ca:	e004      	b.n	80023d6 <HAL_ADC_Init+0xfa>
 80023cc:	6aa3      	ldr	r3, [r4, #40]	; 0x28
 80023ce:	f043 0310 	orr.w	r3, r3, #16
 80023d2:	62a3      	str	r3, [r4, #40]	; 0x28
 80023d4:	2001      	movs	r0, #1
 80023d6:	bd70      	pop	{r4, r5, r6, pc}
 80023d8:	2001      	movs	r0, #1
 80023da:	4770      	bx	lr
 80023dc:	ffe1f7fd 	.word	0xffe1f7fd
 80023e0:	ff1f0efe 	.word	0xff1f0efe

080023e4 <HAL_ADCEx_Calibration_Start>:
 80023e4:	b570      	push	{r4, r5, r6, lr}
 80023e6:	b082      	sub	sp, #8
 80023e8:	2300      	movs	r3, #0
 80023ea:	9301      	str	r3, [sp, #4]
 80023ec:	f890 3024 	ldrb.w	r3, [r0, #36]	; 0x24
 80023f0:	2b01      	cmp	r3, #1
 80023f2:	d072      	beq.n	80024da <HAL_ADCEx_Calibration_Start+0xf6>
 80023f4:	4604      	mov	r4, r0
 80023f6:	2301      	movs	r3, #1
 80023f8:	f880 3024 	strb.w	r3, [r0, #36]	; 0x24
 80023fc:	f7ff ff42 	bl	8002284 <ADC_ConversionStop_Disable>
 8002400:	4605      	mov	r5, r0
 8002402:	b128      	cbz	r0, 8002410 <HAL_ADCEx_Calibration_Start+0x2c>
 8002404:	2300      	movs	r3, #0
 8002406:	f884 3024 	strb.w	r3, [r4, #36]	; 0x24
 800240a:	4628      	mov	r0, r5
 800240c:	b002      	add	sp, #8
 800240e:	bd70      	pop	{r4, r5, r6, pc}
 8002410:	6aa3      	ldr	r3, [r4, #40]	; 0x28
 8002412:	f423 5388 	bic.w	r3, r3, #4352	; 0x1100
 8002416:	f023 0302 	bic.w	r3, r3, #2
 800241a:	f043 0302 	orr.w	r3, r3, #2
 800241e:	62a3      	str	r3, [r4, #40]	; 0x28
 8002420:	4b2f      	ldr	r3, [pc, #188]	; (80024e0 <HAL_ADCEx_Calibration_Start+0xfc>)
 8002422:	681e      	ldr	r6, [r3, #0]
 8002424:	2002      	movs	r0, #2
 8002426:	f003 fc6b 	bl	8005d00 <HAL_RCCEx_GetPeriphCLKFreq>
 800242a:	fbb6 f6f0 	udiv	r6, r6, r0
 800242e:	0076      	lsls	r6, r6, #1
 8002430:	9601      	str	r6, [sp, #4]
 8002432:	e002      	b.n	800243a <HAL_ADCEx_Calibration_Start+0x56>
 8002434:	9b01      	ldr	r3, [sp, #4]
 8002436:	3b01      	subs	r3, #1
 8002438:	9301      	str	r3, [sp, #4]
 800243a:	9b01      	ldr	r3, [sp, #4]
 800243c:	2b00      	cmp	r3, #0
 800243e:	d1f9      	bne.n	8002434 <HAL_ADCEx_Calibration_Start+0x50>
 8002440:	4620      	mov	r0, r4
 8002442:	f7ff fedb 	bl	80021fc <ADC_Enable>
 8002446:	6822      	ldr	r2, [r4, #0]
 8002448:	6893      	ldr	r3, [r2, #8]
 800244a:	f043 0308 	orr.w	r3, r3, #8
 800244e:	6093      	str	r3, [r2, #8]
 8002450:	f7ff fe32 	bl	80020b8 <HAL_GetTick>
 8002454:	4606      	mov	r6, r0
 8002456:	6823      	ldr	r3, [r4, #0]
 8002458:	689a      	ldr	r2, [r3, #8]
 800245a:	f012 0f08 	tst.w	r2, #8
 800245e:	d014      	beq.n	800248a <HAL_ADCEx_Calibration_Start+0xa6>
 8002460:	f7ff fe2a 	bl	80020b8 <HAL_GetTick>
 8002464:	1b80      	subs	r0, r0, r6
 8002466:	280a      	cmp	r0, #10
 8002468:	d9f5      	bls.n	8002456 <HAL_ADCEx_Calibration_Start+0x72>
 800246a:	6823      	ldr	r3, [r4, #0]
 800246c:	689b      	ldr	r3, [r3, #8]
 800246e:	f013 0f08 	tst.w	r3, #8
 8002472:	d0f0      	beq.n	8002456 <HAL_ADCEx_Calibration_Start+0x72>
 8002474:	6aa3      	ldr	r3, [r4, #40]	; 0x28
 8002476:	f023 0312 	bic.w	r3, r3, #18
 800247a:	f043 0310 	orr.w	r3, r3, #16
 800247e:	62a3      	str	r3, [r4, #40]	; 0x28
 8002480:	2300      	movs	r3, #0
 8002482:	f884 3024 	strb.w	r3, [r4, #36]	; 0x24
 8002486:	2501      	movs	r5, #1
 8002488:	e7bf      	b.n	800240a <HAL_ADCEx_Calibration_Start+0x26>
 800248a:	689a      	ldr	r2, [r3, #8]
 800248c:	f042 0204 	orr.w	r2, r2, #4
 8002490:	609a      	str	r2, [r3, #8]
 8002492:	f7ff fe11 	bl	80020b8 <HAL_GetTick>
 8002496:	4606      	mov	r6, r0
 8002498:	6823      	ldr	r3, [r4, #0]
 800249a:	689b      	ldr	r3, [r3, #8]
 800249c:	f013 0f04 	tst.w	r3, #4
 80024a0:	d014      	beq.n	80024cc <HAL_ADCEx_Calibration_Start+0xe8>
 80024a2:	f7ff fe09 	bl	80020b8 <HAL_GetTick>
 80024a6:	1b80      	subs	r0, r0, r6
 80024a8:	280a      	cmp	r0, #10
 80024aa:	d9f5      	bls.n	8002498 <HAL_ADCEx_Calibration_Start+0xb4>
 80024ac:	6823      	ldr	r3, [r4, #0]
 80024ae:	689b      	ldr	r3, [r3, #8]
 80024b0:	f013 0f04 	tst.w	r3, #4
 80024b4:	d0f0      	beq.n	8002498 <HAL_ADCEx_Calibration_Start+0xb4>
 80024b6:	6aa3      	ldr	r3, [r4, #40]	; 0x28
 80024b8:	f023 0312 	bic.w	r3, r3, #18
 80024bc:	f043 0310 	orr.w	r3, r3, #16
 80024c0:	62a3      	str	r3, [r4, #40]	; 0x28
 80024c2:	2300      	movs	r3, #0
 80024c4:	f884 3024 	strb.w	r3, [r4, #36]	; 0x24
 80024c8:	2501      	movs	r5, #1
 80024ca:	e79e      	b.n	800240a <HAL_ADCEx_Calibration_Start+0x26>
 80024cc:	6aa3      	ldr	r3, [r4, #40]	; 0x28
 80024ce:	f023 0303 	bic.w	r3, r3, #3
 80024d2:	f043 0301 	orr.w	r3, r3, #1
 80024d6:	62a3      	str	r3, [r4, #40]	; 0x28
 80024d8:	e794      	b.n	8002404 <HAL_ADCEx_Calibration_Start+0x20>
 80024da:	2502      	movs	r5, #2
 80024dc:	e795      	b.n	800240a <HAL_ADCEx_Calibration_Start+0x26>
 80024de:	bf00      	nop
 80024e0:	20000008 	.word	0x20000008

080024e4 <HAL_ADCEx_InjectedStart_IT>:
 80024e4:	f890 3024 	ldrb.w	r3, [r0, #36]	; 0x24
 80024e8:	2b01      	cmp	r3, #1
 80024ea:	d057      	beq.n	800259c <HAL_ADCEx_InjectedStart_IT+0xb8>
 80024ec:	b510      	push	{r4, lr}
 80024ee:	4604      	mov	r4, r0
 80024f0:	2301      	movs	r3, #1
 80024f2:	f880 3024 	strb.w	r3, [r0, #36]	; 0x24
 80024f6:	f7ff fe81 	bl	80021fc <ADC_Enable>
 80024fa:	2800      	cmp	r0, #0
 80024fc:	d14a      	bne.n	8002594 <HAL_ADCEx_InjectedStart_IT+0xb0>
 80024fe:	6aa3      	ldr	r3, [r4, #40]	; 0x28
 8002500:	f423 5340 	bic.w	r3, r3, #12288	; 0x3000
 8002504:	f023 0301 	bic.w	r3, r3, #1
 8002508:	f443 5380 	orr.w	r3, r3, #4096	; 0x1000
 800250c:	62a3      	str	r3, [r4, #40]	; 0x28
 800250e:	6822      	ldr	r2, [r4, #0]
 8002510:	4b23      	ldr	r3, [pc, #140]	; (80025a0 <HAL_ADCEx_InjectedStart_IT+0xbc>)
 8002512:	429a      	cmp	r2, r3
 8002514:	d024      	beq.n	8002560 <HAL_ADCEx_InjectedStart_IT+0x7c>
 8002516:	6aa3      	ldr	r3, [r4, #40]	; 0x28
 8002518:	f423 1380 	bic.w	r3, r3, #1048576	; 0x100000
 800251c:	62a3      	str	r3, [r4, #40]	; 0x28
 800251e:	6aa3      	ldr	r3, [r4, #40]	; 0x28
 8002520:	f413 7f80 	tst.w	r3, #256	; 0x100
 8002524:	d101      	bne.n	800252a <HAL_ADCEx_InjectedStart_IT+0x46>
 8002526:	2300      	movs	r3, #0
 8002528:	62e3      	str	r3, [r4, #44]	; 0x2c
 800252a:	2300      	movs	r3, #0
 800252c:	f884 3024 	strb.w	r3, [r4, #36]	; 0x24
 8002530:	f06f 0304 	mvn.w	r3, #4
 8002534:	6013      	str	r3, [r2, #0]
 8002536:	6822      	ldr	r2, [r4, #0]
 8002538:	6853      	ldr	r3, [r2, #4]
 800253a:	f043 0380 	orr.w	r3, r3, #128	; 0x80
 800253e:	6053      	str	r3, [r2, #4]
 8002540:	6823      	ldr	r3, [r4, #0]
 8002542:	685a      	ldr	r2, [r3, #4]
 8002544:	f412 6f80 	tst.w	r2, #1024	; 0x400
 8002548:	d127      	bne.n	800259a <HAL_ADCEx_InjectedStart_IT+0xb6>
 800254a:	689a      	ldr	r2, [r3, #8]
 800254c:	f402 42e0 	and.w	r2, r2, #28672	; 0x7000
 8002550:	f5b2 4fe0 	cmp.w	r2, #28672	; 0x7000
 8002554:	d00f      	beq.n	8002576 <HAL_ADCEx_InjectedStart_IT+0x92>
 8002556:	689a      	ldr	r2, [r3, #8]
 8002558:	f442 4200 	orr.w	r2, r2, #32768	; 0x8000
 800255c:	609a      	str	r2, [r3, #8]
 800255e:	e01c      	b.n	800259a <HAL_ADCEx_InjectedStart_IT+0xb6>
 8002560:	f5a3 6380 	sub.w	r3, r3, #1024	; 0x400
 8002564:	685b      	ldr	r3, [r3, #4]
 8002566:	f413 2f70 	tst.w	r3, #983040	; 0xf0000
 800256a:	d0d4      	beq.n	8002516 <HAL_ADCEx_InjectedStart_IT+0x32>
 800256c:	6aa3      	ldr	r3, [r4, #40]	; 0x28
 800256e:	f443 1380 	orr.w	r3, r3, #1048576	; 0x100000
 8002572:	62a3      	str	r3, [r4, #40]	; 0x28
 8002574:	e7d3      	b.n	800251e <HAL_ADCEx_InjectedStart_IT+0x3a>
 8002576:	4a0a      	ldr	r2, [pc, #40]	; (80025a0 <HAL_ADCEx_InjectedStart_IT+0xbc>)
 8002578:	4293      	cmp	r3, r2
 800257a:	d004      	beq.n	8002586 <HAL_ADCEx_InjectedStart_IT+0xa2>
 800257c:	689a      	ldr	r2, [r3, #8]
 800257e:	f442 1202 	orr.w	r2, r2, #2129920	; 0x208000
 8002582:	609a      	str	r2, [r3, #8]
 8002584:	e009      	b.n	800259a <HAL_ADCEx_InjectedStart_IT+0xb6>
 8002586:	f5a2 6280 	sub.w	r2, r2, #1024	; 0x400
 800258a:	6852      	ldr	r2, [r2, #4]
 800258c:	f412 2f70 	tst.w	r2, #983040	; 0xf0000
 8002590:	d1e1      	bne.n	8002556 <HAL_ADCEx_InjectedStart_IT+0x72>
 8002592:	e7f3      	b.n	800257c <HAL_ADCEx_InjectedStart_IT+0x98>
 8002594:	2300      	movs	r3, #0
 8002596:	f884 3024 	strb.w	r3, [r4, #36]	; 0x24
 800259a:	bd10      	pop	{r4, pc}
 800259c:	2002      	movs	r0, #2
 800259e:	4770      	bx	lr
 80025a0:	40012800 	.word	0x40012800

080025a4 <HAL_ADCEx_InjectedGetValue>:
 80025a4:	2903      	cmp	r1, #3
 80025a6:	d009      	beq.n	80025bc <HAL_ADCEx_InjectedGetValue+0x18>
 80025a8:	2904      	cmp	r1, #4
 80025aa:	d004      	beq.n	80025b6 <HAL_ADCEx_InjectedGetValue+0x12>
 80025ac:	2902      	cmp	r1, #2
 80025ae:	d008      	beq.n	80025c2 <HAL_ADCEx_InjectedGetValue+0x1e>
 80025b0:	6803      	ldr	r3, [r0, #0]
 80025b2:	6bd8      	ldr	r0, [r3, #60]	; 0x3c
 80025b4:	4770      	bx	lr
 80025b6:	6803      	ldr	r3, [r0, #0]
 80025b8:	6c98      	ldr	r0, [r3, #72]	; 0x48
 80025ba:	4770      	bx	lr
 80025bc:	6803      	ldr	r3, [r0, #0]
 80025be:	6c58      	ldr	r0, [r3, #68]	; 0x44
 80025c0:	4770      	bx	lr
 80025c2:	6803      	ldr	r3, [r0, #0]
 80025c4:	6c18      	ldr	r0, [r3, #64]	; 0x40
 80025c6:	4770      	bx	lr

080025c8 <HAL_ADCEx_InjectedConfigChannel>:
 80025c8:	b4f0      	push	{r4, r5, r6, r7}
 80025ca:	b082      	sub	sp, #8
 80025cc:	4603      	mov	r3, r0
 80025ce:	2200      	movs	r2, #0
 80025d0:	9201      	str	r2, [sp, #4]
 80025d2:	6880      	ldr	r0, [r0, #8]
 80025d4:	f893 2024 	ldrb.w	r2, [r3, #36]	; 0x24
 80025d8:	2a01      	cmp	r2, #1
 80025da:	f000 80fc 	beq.w	80027d6 <HAL_ADCEx_InjectedConfigChannel+0x20e>
 80025de:	2201      	movs	r2, #1
 80025e0:	f883 2024 	strb.w	r2, [r3, #36]	; 0x24
 80025e4:	2800      	cmp	r0, #0
 80025e6:	d14c      	bne.n	8002682 <HAL_ADCEx_InjectedConfigChannel+0xba>
 80025e8:	684a      	ldr	r2, [r1, #4]
 80025ea:	2a01      	cmp	r2, #1
 80025ec:	d03f      	beq.n	800266e <HAL_ADCEx_InjectedConfigChannel+0xa6>
 80025ee:	6a9a      	ldr	r2, [r3, #40]	; 0x28
 80025f0:	f042 0220 	orr.w	r2, r2, #32
 80025f4:	629a      	str	r2, [r3, #40]	; 0x28
 80025f6:	2001      	movs	r0, #1
 80025f8:	681c      	ldr	r4, [r3, #0]
 80025fa:	68a2      	ldr	r2, [r4, #8]
 80025fc:	f012 0f01 	tst.w	r2, #1
 8002600:	d107      	bne.n	8002612 <HAL_ADCEx_InjectedConfigChannel+0x4a>
 8002602:	68a2      	ldr	r2, [r4, #8]
 8002604:	f422 42e0 	bic.w	r2, r2, #28672	; 0x7000
 8002608:	f022 0201 	bic.w	r2, r2, #1
 800260c:	698d      	ldr	r5, [r1, #24]
 800260e:	432a      	orrs	r2, r5
 8002610:	60a2      	str	r2, [r4, #8]
 8002612:	7d4a      	ldrb	r2, [r1, #21]
 8002614:	2a01      	cmp	r2, #1
 8002616:	d05e      	beq.n	80026d6 <HAL_ADCEx_InjectedConfigChannel+0x10e>
 8002618:	7d0a      	ldrb	r2, [r1, #20]
 800261a:	2a01      	cmp	r2, #1
 800261c:	d06b      	beq.n	80026f6 <HAL_ADCEx_InjectedConfigChannel+0x12e>
 800261e:	680a      	ldr	r2, [r1, #0]
 8002620:	2a09      	cmp	r2, #9
 8002622:	d976      	bls.n	8002712 <HAL_ADCEx_InjectedConfigChannel+0x14a>
 8002624:	681e      	ldr	r6, [r3, #0]
 8002626:	68f4      	ldr	r4, [r6, #12]
 8002628:	eb02 0242 	add.w	r2, r2, r2, lsl #1
 800262c:	3a1e      	subs	r2, #30
 800262e:	2507      	movs	r5, #7
 8002630:	4095      	lsls	r5, r2
 8002632:	ea24 0405 	bic.w	r4, r4, r5
 8002636:	688d      	ldr	r5, [r1, #8]
 8002638:	fa05 f202 	lsl.w	r2, r5, r2
 800263c:	4322      	orrs	r2, r4
 800263e:	60f2      	str	r2, [r6, #12]
 8002640:	680a      	ldr	r2, [r1, #0]
 8002642:	3a10      	subs	r2, #16
 8002644:	2a01      	cmp	r2, #1
 8002646:	d972      	bls.n	800272e <HAL_ADCEx_InjectedConfigChannel+0x166>
 8002648:	684a      	ldr	r2, [r1, #4]
 800264a:	2a02      	cmp	r2, #2
 800264c:	f000 8088 	beq.w	8002760 <HAL_ADCEx_InjectedConfigChannel+0x198>
 8002650:	2a03      	cmp	r2, #3
 8002652:	f000 808f 	beq.w	8002774 <HAL_ADCEx_InjectedConfigChannel+0x1ac>
 8002656:	2a01      	cmp	r2, #1
 8002658:	d06f      	beq.n	800273a <HAL_ADCEx_InjectedConfigChannel+0x172>
 800265a:	681c      	ldr	r4, [r3, #0]
 800265c:	6a22      	ldr	r2, [r4, #32]
 800265e:	f422 627f 	bic.w	r2, r2, #4080	; 0xff0
 8002662:	f022 020f 	bic.w	r2, r2, #15
 8002666:	68cd      	ldr	r5, [r1, #12]
 8002668:	432a      	orrs	r2, r5
 800266a:	6222      	str	r2, [r4, #32]
 800266c:	e06e      	b.n	800274c <HAL_ADCEx_InjectedConfigChannel+0x184>
 800266e:	6818      	ldr	r0, [r3, #0]
 8002670:	6b82      	ldr	r2, [r0, #56]	; 0x38
 8002672:	0d92      	lsrs	r2, r2, #22
 8002674:	0592      	lsls	r2, r2, #22
 8002676:	680c      	ldr	r4, [r1, #0]
 8002678:	ea42 32c4 	orr.w	r2, r2, r4, lsl #15
 800267c:	6382      	str	r2, [r0, #56]	; 0x38
 800267e:	2000      	movs	r0, #0
 8002680:	e7ba      	b.n	80025f8 <HAL_ADCEx_InjectedConfigChannel+0x30>
 8002682:	684a      	ldr	r2, [r1, #4]
 8002684:	690c      	ldr	r4, [r1, #16]
 8002686:	42a2      	cmp	r2, r4
 8002688:	d815      	bhi.n	80026b6 <HAL_ADCEx_InjectedConfigChannel+0xee>
 800268a:	681f      	ldr	r7, [r3, #0]
 800268c:	6bbd      	ldr	r5, [r7, #56]	; 0x38
 800268e:	1b10      	subs	r0, r2, r4
 8002690:	eb00 0080 	add.w	r0, r0, r0, lsl #2
 8002694:	300f      	adds	r0, #15
 8002696:	221f      	movs	r2, #31
 8002698:	4082      	lsls	r2, r0
 800269a:	f442 1240 	orr.w	r2, r2, #3145728	; 0x300000
 800269e:	ea25 0502 	bic.w	r5, r5, r2
 80026a2:	1e62      	subs	r2, r4, #1
 80026a4:	680e      	ldr	r6, [r1, #0]
 80026a6:	fa06 f000 	lsl.w	r0, r6, r0
 80026aa:	ea40 5202 	orr.w	r2, r0, r2, lsl #20
 80026ae:	432a      	orrs	r2, r5
 80026b0:	63ba      	str	r2, [r7, #56]	; 0x38
 80026b2:	2000      	movs	r0, #0
 80026b4:	e7a0      	b.n	80025f8 <HAL_ADCEx_InjectedConfigChannel+0x30>
 80026b6:	681e      	ldr	r6, [r3, #0]
 80026b8:	6bb5      	ldr	r5, [r6, #56]	; 0x38
 80026ba:	1b12      	subs	r2, r2, r4
 80026bc:	eb02 0282 	add.w	r2, r2, r2, lsl #2
 80026c0:	320f      	adds	r2, #15
 80026c2:	201f      	movs	r0, #31
 80026c4:	fa00 f202 	lsl.w	r2, r0, r2
 80026c8:	f442 1240 	orr.w	r2, r2, #3145728	; 0x300000
 80026cc:	ea25 0202 	bic.w	r2, r5, r2
 80026d0:	63b2      	str	r2, [r6, #56]	; 0x38
 80026d2:	2000      	movs	r0, #0
 80026d4:	e790      	b.n	80025f8 <HAL_ADCEx_InjectedConfigChannel+0x30>
 80026d6:	698c      	ldr	r4, [r1, #24]
 80026d8:	f5b4 4fe0 	cmp.w	r4, #28672	; 0x7000
 80026dc:	d005      	beq.n	80026ea <HAL_ADCEx_InjectedConfigChannel+0x122>
 80026de:	6a98      	ldr	r0, [r3, #40]	; 0x28
 80026e0:	f040 0020 	orr.w	r0, r0, #32
 80026e4:	6298      	str	r0, [r3, #40]	; 0x28
 80026e6:	4610      	mov	r0, r2
 80026e8:	e796      	b.n	8002618 <HAL_ADCEx_InjectedConfigChannel+0x50>
 80026ea:	681c      	ldr	r4, [r3, #0]
 80026ec:	6862      	ldr	r2, [r4, #4]
 80026ee:	f442 6280 	orr.w	r2, r2, #1024	; 0x400
 80026f2:	6062      	str	r2, [r4, #4]
 80026f4:	e790      	b.n	8002618 <HAL_ADCEx_InjectedConfigChannel+0x50>
 80026f6:	7d4c      	ldrb	r4, [r1, #21]
 80026f8:	b92c      	cbnz	r4, 8002706 <HAL_ADCEx_InjectedConfigChannel+0x13e>
 80026fa:	681c      	ldr	r4, [r3, #0]
 80026fc:	6862      	ldr	r2, [r4, #4]
 80026fe:	f442 5280 	orr.w	r2, r2, #4096	; 0x1000
 8002702:	6062      	str	r2, [r4, #4]
 8002704:	e78b      	b.n	800261e <HAL_ADCEx_InjectedConfigChannel+0x56>
 8002706:	6a98      	ldr	r0, [r3, #40]	; 0x28
 8002708:	f040 0020 	orr.w	r0, r0, #32
 800270c:	6298      	str	r0, [r3, #40]	; 0x28
 800270e:	4610      	mov	r0, r2
 8002710:	e785      	b.n	800261e <HAL_ADCEx_InjectedConfigChannel+0x56>
 8002712:	681e      	ldr	r6, [r3, #0]
 8002714:	6934      	ldr	r4, [r6, #16]
 8002716:	eb02 0242 	add.w	r2, r2, r2, lsl #1
 800271a:	2507      	movs	r5, #7
 800271c:	4095      	lsls	r5, r2
 800271e:	ea24 0405 	bic.w	r4, r4, r5
 8002722:	688d      	ldr	r5, [r1, #8]
 8002724:	fa05 f202 	lsl.w	r2, r5, r2
 8002728:	4322      	orrs	r2, r4
 800272a:	6132      	str	r2, [r6, #16]
 800272c:	e788      	b.n	8002640 <HAL_ADCEx_InjectedConfigChannel+0x78>
 800272e:	681c      	ldr	r4, [r3, #0]
 8002730:	68a2      	ldr	r2, [r4, #8]
 8002732:	f442 0200 	orr.w	r2, r2, #8388608	; 0x800000
 8002736:	60a2      	str	r2, [r4, #8]
 8002738:	e786      	b.n	8002648 <HAL_ADCEx_InjectedConfigChannel+0x80>
 800273a:	681c      	ldr	r4, [r3, #0]
 800273c:	6962      	ldr	r2, [r4, #20]
 800273e:	f422 627f 	bic.w	r2, r2, #4080	; 0xff0
 8002742:	f022 020f 	bic.w	r2, r2, #15
 8002746:	68cd      	ldr	r5, [r1, #12]
 8002748:	432a      	orrs	r2, r5
 800274a:	6162      	str	r2, [r4, #20]
 800274c:	680a      	ldr	r2, [r1, #0]
 800274e:	3a10      	subs	r2, #16
 8002750:	2a01      	cmp	r2, #1
 8002752:	d919      	bls.n	8002788 <HAL_ADCEx_InjectedConfigChannel+0x1c0>
 8002754:	2200      	movs	r2, #0
 8002756:	f883 2024 	strb.w	r2, [r3, #36]	; 0x24
 800275a:	b002      	add	sp, #8
 800275c:	bcf0      	pop	{r4, r5, r6, r7}
 800275e:	4770      	bx	lr
 8002760:	681c      	ldr	r4, [r3, #0]
 8002762:	69a2      	ldr	r2, [r4, #24]
 8002764:	f422 627f 	bic.w	r2, r2, #4080	; 0xff0
 8002768:	f022 020f 	bic.w	r2, r2, #15
 800276c:	68cd      	ldr	r5, [r1, #12]
 800276e:	432a      	orrs	r2, r5
 8002770:	61a2      	str	r2, [r4, #24]
 8002772:	e7eb      	b.n	800274c <HAL_ADCEx_InjectedConfigChannel+0x184>
 8002774:	681c      	ldr	r4, [r3, #0]
 8002776:	69e2      	ldr	r2, [r4, #28]
 8002778:	f422 627f 	bic.w	r2, r2, #4080	; 0xff0
 800277c:	f022 020f 	bic.w	r2, r2, #15
 8002780:	68cd      	ldr	r5, [r1, #12]
 8002782:	432a      	orrs	r2, r5
 8002784:	61e2      	str	r2, [r4, #28]
 8002786:	e7e1      	b.n	800274c <HAL_ADCEx_InjectedConfigChannel+0x184>
 8002788:	681a      	ldr	r2, [r3, #0]
 800278a:	4c14      	ldr	r4, [pc, #80]	; (80027dc <HAL_ADCEx_InjectedConfigChannel+0x214>)
 800278c:	42a2      	cmp	r2, r4
 800278e:	d005      	beq.n	800279c <HAL_ADCEx_InjectedConfigChannel+0x1d4>
 8002790:	6a9a      	ldr	r2, [r3, #40]	; 0x28
 8002792:	f042 0220 	orr.w	r2, r2, #32
 8002796:	629a      	str	r2, [r3, #40]	; 0x28
 8002798:	2001      	movs	r0, #1
 800279a:	e7db      	b.n	8002754 <HAL_ADCEx_InjectedConfigChannel+0x18c>
 800279c:	6894      	ldr	r4, [r2, #8]
 800279e:	f414 0f00 	tst.w	r4, #8388608	; 0x800000
 80027a2:	d1d7      	bne.n	8002754 <HAL_ADCEx_InjectedConfigChannel+0x18c>
 80027a4:	6894      	ldr	r4, [r2, #8]
 80027a6:	f444 0400 	orr.w	r4, r4, #8388608	; 0x800000
 80027aa:	6094      	str	r4, [r2, #8]
 80027ac:	680a      	ldr	r2, [r1, #0]
 80027ae:	2a10      	cmp	r2, #16
 80027b0:	d1d0      	bne.n	8002754 <HAL_ADCEx_InjectedConfigChannel+0x18c>
 80027b2:	4a0b      	ldr	r2, [pc, #44]	; (80027e0 <HAL_ADCEx_InjectedConfigChannel+0x218>)
 80027b4:	6812      	ldr	r2, [r2, #0]
 80027b6:	490b      	ldr	r1, [pc, #44]	; (80027e4 <HAL_ADCEx_InjectedConfigChannel+0x21c>)
 80027b8:	fba1 1202 	umull	r1, r2, r1, r2
 80027bc:	0c92      	lsrs	r2, r2, #18
 80027be:	eb02 0282 	add.w	r2, r2, r2, lsl #2
 80027c2:	0052      	lsls	r2, r2, #1
 80027c4:	9201      	str	r2, [sp, #4]
 80027c6:	e002      	b.n	80027ce <HAL_ADCEx_InjectedConfigChannel+0x206>
 80027c8:	9a01      	ldr	r2, [sp, #4]
 80027ca:	3a01      	subs	r2, #1
 80027cc:	9201      	str	r2, [sp, #4]
 80027ce:	9a01      	ldr	r2, [sp, #4]
 80027d0:	2a00      	cmp	r2, #0
 80027d2:	d1f9      	bne.n	80027c8 <HAL_ADCEx_InjectedConfigChannel+0x200>
 80027d4:	e7be      	b.n	8002754 <HAL_ADCEx_InjectedConfigChannel+0x18c>
 80027d6:	2002      	movs	r0, #2
 80027d8:	e7bf      	b.n	800275a <HAL_ADCEx_InjectedConfigChannel+0x192>
 80027da:	bf00      	nop
 80027dc:	40012400 	.word	0x40012400
 80027e0:	20000008 	.word	0x20000008
 80027e4:	431bde83 	.word	0x431bde83

080027e8 <HAL_NVIC_SetPriorityGrouping>:
 80027e8:	4a07      	ldr	r2, [pc, #28]	; (8002808 <HAL_NVIC_SetPriorityGrouping+0x20>)
 80027ea:	68d3      	ldr	r3, [r2, #12]
 80027ec:	f423 63e0 	bic.w	r3, r3, #1792	; 0x700
 80027f0:	041b      	lsls	r3, r3, #16
 80027f2:	0c1b      	lsrs	r3, r3, #16
 80027f4:	0200      	lsls	r0, r0, #8
 80027f6:	f400 60e0 	and.w	r0, r0, #1792	; 0x700
 80027fa:	4303      	orrs	r3, r0
 80027fc:	f043 63bf 	orr.w	r3, r3, #100139008	; 0x5f80000
 8002800:	f443 3300 	orr.w	r3, r3, #131072	; 0x20000
 8002804:	60d3      	str	r3, [r2, #12]
 8002806:	4770      	bx	lr
 8002808:	e000ed00 	.word	0xe000ed00

0800280c <HAL_NVIC_SetPriority>:
 800280c:	b430      	push	{r4, r5}
 800280e:	4b17      	ldr	r3, [pc, #92]	; (800286c <HAL_NVIC_SetPriority+0x60>)
 8002810:	68db      	ldr	r3, [r3, #12]
 8002812:	f3c3 2302 	ubfx	r3, r3, #8, #3
 8002816:	f1c3 0407 	rsb	r4, r3, #7
 800281a:	2c04      	cmp	r4, #4
 800281c:	bf28      	it	cs
 800281e:	2404      	movcs	r4, #4
 8002820:	1d1d      	adds	r5, r3, #4
 8002822:	2d06      	cmp	r5, #6
 8002824:	d918      	bls.n	8002858 <HAL_NVIC_SetPriority+0x4c>
 8002826:	3b03      	subs	r3, #3
 8002828:	f04f 35ff 	mov.w	r5, #4294967295
 800282c:	fa05 f404 	lsl.w	r4, r5, r4
 8002830:	ea21 0104 	bic.w	r1, r1, r4
 8002834:	4099      	lsls	r1, r3
 8002836:	fa05 f303 	lsl.w	r3, r5, r3
 800283a:	ea22 0303 	bic.w	r3, r2, r3
 800283e:	4319      	orrs	r1, r3
 8002840:	2800      	cmp	r0, #0
 8002842:	db0b      	blt.n	800285c <HAL_NVIC_SetPriority+0x50>
 8002844:	0109      	lsls	r1, r1, #4
 8002846:	b2c9      	uxtb	r1, r1
 8002848:	f100 4060 	add.w	r0, r0, #3758096384	; 0xe0000000
 800284c:	f500 4061 	add.w	r0, r0, #57600	; 0xe100
 8002850:	f880 1300 	strb.w	r1, [r0, #768]	; 0x300
 8002854:	bc30      	pop	{r4, r5}
 8002856:	4770      	bx	lr
 8002858:	2300      	movs	r3, #0
 800285a:	e7e5      	b.n	8002828 <HAL_NVIC_SetPriority+0x1c>
 800285c:	f000 000f 	and.w	r0, r0, #15
 8002860:	0109      	lsls	r1, r1, #4
 8002862:	b2c9      	uxtb	r1, r1
 8002864:	4b02      	ldr	r3, [pc, #8]	; (8002870 <HAL_NVIC_SetPriority+0x64>)
 8002866:	5419      	strb	r1, [r3, r0]
 8002868:	e7f4      	b.n	8002854 <HAL_NVIC_SetPriority+0x48>
 800286a:	bf00      	nop
 800286c:	e000ed00 	.word	0xe000ed00
 8002870:	e000ed14 	.word	0xe000ed14

08002874 <HAL_NVIC_EnableIRQ>:
 8002874:	2800      	cmp	r0, #0
 8002876:	db07      	blt.n	8002888 <HAL_NVIC_EnableIRQ+0x14>
 8002878:	f000 021f 	and.w	r2, r0, #31
 800287c:	0940      	lsrs	r0, r0, #5
 800287e:	2301      	movs	r3, #1
 8002880:	4093      	lsls	r3, r2
 8002882:	4a02      	ldr	r2, [pc, #8]	; (800288c <HAL_NVIC_EnableIRQ+0x18>)
 8002884:	f842 3020 	str.w	r3, [r2, r0, lsl #2]
 8002888:	4770      	bx	lr
 800288a:	bf00      	nop
 800288c:	e000e100 	.word	0xe000e100

08002890 <HAL_SYSTICK_Config>:
 8002890:	3801      	subs	r0, #1
 8002892:	f1b0 7f80 	cmp.w	r0, #16777216	; 0x1000000
 8002896:	d20a      	bcs.n	80028ae <HAL_SYSTICK_Config+0x1e>
 8002898:	4b06      	ldr	r3, [pc, #24]	; (80028b4 <HAL_SYSTICK_Config+0x24>)
 800289a:	6058      	str	r0, [r3, #4]
 800289c:	4a06      	ldr	r2, [pc, #24]	; (80028b8 <HAL_SYSTICK_Config+0x28>)
 800289e:	21f0      	movs	r1, #240	; 0xf0
 80028a0:	f882 1023 	strb.w	r1, [r2, #35]	; 0x23
 80028a4:	2000      	movs	r0, #0
 80028a6:	6098      	str	r0, [r3, #8]
 80028a8:	2207      	movs	r2, #7
 80028aa:	601a      	str	r2, [r3, #0]
 80028ac:	4770      	bx	lr
 80028ae:	2001      	movs	r0, #1
 80028b0:	4770      	bx	lr
 80028b2:	bf00      	nop
 80028b4:	e000e010 	.word	0xe000e010
 80028b8:	e000ed00 	.word	0xe000ed00

080028bc <HAL_DMA_Init>:
 80028bc:	b360      	cbz	r0, 8002918 <HAL_DMA_Init+0x5c>
 80028be:	b410      	push	{r4}
 80028c0:	4602      	mov	r2, r0
 80028c2:	6801      	ldr	r1, [r0, #0]
 80028c4:	4b15      	ldr	r3, [pc, #84]	; (800291c <HAL_DMA_Init+0x60>)
 80028c6:	440b      	add	r3, r1
 80028c8:	4815      	ldr	r0, [pc, #84]	; (8002920 <HAL_DMA_Init+0x64>)
 80028ca:	fba0 0303 	umull	r0, r3, r0, r3
 80028ce:	091b      	lsrs	r3, r3, #4
 80028d0:	009b      	lsls	r3, r3, #2
 80028d2:	6413      	str	r3, [r2, #64]	; 0x40
 80028d4:	4b13      	ldr	r3, [pc, #76]	; (8002924 <HAL_DMA_Init+0x68>)
 80028d6:	63d3      	str	r3, [r2, #60]	; 0x3c
 80028d8:	2302      	movs	r3, #2
 80028da:	f882 3021 	strb.w	r3, [r2, #33]	; 0x21
 80028de:	6808      	ldr	r0, [r1, #0]
 80028e0:	f420 507f 	bic.w	r0, r0, #16320	; 0x3fc0
 80028e4:	f020 0030 	bic.w	r0, r0, #48	; 0x30
 80028e8:	6853      	ldr	r3, [r2, #4]
 80028ea:	6894      	ldr	r4, [r2, #8]
 80028ec:	4323      	orrs	r3, r4
 80028ee:	68d4      	ldr	r4, [r2, #12]
 80028f0:	4323      	orrs	r3, r4
 80028f2:	6914      	ldr	r4, [r2, #16]
 80028f4:	4323      	orrs	r3, r4
 80028f6:	6954      	ldr	r4, [r2, #20]
 80028f8:	4323      	orrs	r3, r4
 80028fa:	6994      	ldr	r4, [r2, #24]
 80028fc:	4323      	orrs	r3, r4
 80028fe:	69d4      	ldr	r4, [r2, #28]
 8002900:	4323      	orrs	r3, r4
 8002902:	4303      	orrs	r3, r0
 8002904:	600b      	str	r3, [r1, #0]
 8002906:	2000      	movs	r0, #0
 8002908:	6390      	str	r0, [r2, #56]	; 0x38
 800290a:	2301      	movs	r3, #1
 800290c:	f882 3021 	strb.w	r3, [r2, #33]	; 0x21
 8002910:	f882 0020 	strb.w	r0, [r2, #32]
 8002914:	bc10      	pop	{r4}
 8002916:	4770      	bx	lr
 8002918:	2001      	movs	r0, #1
 800291a:	4770      	bx	lr
 800291c:	bffdfff8 	.word	0xbffdfff8
 8002920:	cccccccd 	.word	0xcccccccd
 8002924:	40020000 	.word	0x40020000

08002928 <HAL_DMA_Abort_IT>:
 8002928:	b508      	push	{r3, lr}
 800292a:	f890 3021 	ldrb.w	r3, [r0, #33]	; 0x21
 800292e:	2b02      	cmp	r3, #2
 8002930:	d003      	beq.n	800293a <HAL_DMA_Abort_IT+0x12>
 8002932:	2304      	movs	r3, #4
 8002934:	6383      	str	r3, [r0, #56]	; 0x38
 8002936:	2001      	movs	r0, #1
 8002938:	bd08      	pop	{r3, pc}
 800293a:	6802      	ldr	r2, [r0, #0]
 800293c:	6813      	ldr	r3, [r2, #0]
 800293e:	f023 030e 	bic.w	r3, r3, #14
 8002942:	6013      	str	r3, [r2, #0]
 8002944:	6802      	ldr	r2, [r0, #0]
 8002946:	6813      	ldr	r3, [r2, #0]
 8002948:	f023 0301 	bic.w	r3, r3, #1
 800294c:	6013      	str	r3, [r2, #0]
 800294e:	6803      	ldr	r3, [r0, #0]
 8002950:	4a19      	ldr	r2, [pc, #100]	; (80029b8 <HAL_DMA_Abort_IT+0x90>)
 8002952:	4293      	cmp	r3, r2
 8002954:	d014      	beq.n	8002980 <HAL_DMA_Abort_IT+0x58>
 8002956:	3214      	adds	r2, #20
 8002958:	4293      	cmp	r3, r2
 800295a:	d01f      	beq.n	800299c <HAL_DMA_Abort_IT+0x74>
 800295c:	3214      	adds	r2, #20
 800295e:	4293      	cmp	r3, r2
 8002960:	d01e      	beq.n	80029a0 <HAL_DMA_Abort_IT+0x78>
 8002962:	3214      	adds	r2, #20
 8002964:	4293      	cmp	r3, r2
 8002966:	d01e      	beq.n	80029a6 <HAL_DMA_Abort_IT+0x7e>
 8002968:	3214      	adds	r2, #20
 800296a:	4293      	cmp	r3, r2
 800296c:	d01e      	beq.n	80029ac <HAL_DMA_Abort_IT+0x84>
 800296e:	3214      	adds	r2, #20
 8002970:	4293      	cmp	r3, r2
 8002972:	d002      	beq.n	800297a <HAL_DMA_Abort_IT+0x52>
 8002974:	f04f 7280 	mov.w	r2, #16777216	; 0x1000000
 8002978:	e003      	b.n	8002982 <HAL_DMA_Abort_IT+0x5a>
 800297a:	f44f 1280 	mov.w	r2, #1048576	; 0x100000
 800297e:	e000      	b.n	8002982 <HAL_DMA_Abort_IT+0x5a>
 8002980:	2201      	movs	r2, #1
 8002982:	4b0e      	ldr	r3, [pc, #56]	; (80029bc <HAL_DMA_Abort_IT+0x94>)
 8002984:	605a      	str	r2, [r3, #4]
 8002986:	2301      	movs	r3, #1
 8002988:	f880 3021 	strb.w	r3, [r0, #33]	; 0x21
 800298c:	2300      	movs	r3, #0
 800298e:	f880 3020 	strb.w	r3, [r0, #32]
 8002992:	6b43      	ldr	r3, [r0, #52]	; 0x34
 8002994:	b16b      	cbz	r3, 80029b2 <HAL_DMA_Abort_IT+0x8a>
 8002996:	4798      	blx	r3
 8002998:	2000      	movs	r0, #0
 800299a:	e7cd      	b.n	8002938 <HAL_DMA_Abort_IT+0x10>
 800299c:	2210      	movs	r2, #16
 800299e:	e7f0      	b.n	8002982 <HAL_DMA_Abort_IT+0x5a>
 80029a0:	f44f 7280 	mov.w	r2, #256	; 0x100
 80029a4:	e7ed      	b.n	8002982 <HAL_DMA_Abort_IT+0x5a>
 80029a6:	f44f 5280 	mov.w	r2, #4096	; 0x1000
 80029aa:	e7ea      	b.n	8002982 <HAL_DMA_Abort_IT+0x5a>
 80029ac:	f44f 3280 	mov.w	r2, #65536	; 0x10000
 80029b0:	e7e7      	b.n	8002982 <HAL_DMA_Abort_IT+0x5a>
 80029b2:	2000      	movs	r0, #0
 80029b4:	e7c0      	b.n	8002938 <HAL_DMA_Abort_IT+0x10>
 80029b6:	bf00      	nop
 80029b8:	40020008 	.word	0x40020008
 80029bc:	40020000 	.word	0x40020000

080029c0 <HAL_DMA_IRQHandler>:
 80029c0:	b538      	push	{r3, r4, r5, lr}
 80029c2:	6bc3      	ldr	r3, [r0, #60]	; 0x3c
 80029c4:	681a      	ldr	r2, [r3, #0]
 80029c6:	6804      	ldr	r4, [r0, #0]
 80029c8:	6825      	ldr	r5, [r4, #0]
 80029ca:	6c01      	ldr	r1, [r0, #64]	; 0x40
 80029cc:	2304      	movs	r3, #4
 80029ce:	408b      	lsls	r3, r1
 80029d0:	4213      	tst	r3, r2
 80029d2:	d035      	beq.n	8002a40 <HAL_DMA_IRQHandler+0x80>
 80029d4:	f015 0f04 	tst.w	r5, #4
 80029d8:	d032      	beq.n	8002a40 <HAL_DMA_IRQHandler+0x80>
 80029da:	6823      	ldr	r3, [r4, #0]
 80029dc:	f013 0f20 	tst.w	r3, #32
 80029e0:	d103      	bne.n	80029ea <HAL_DMA_IRQHandler+0x2a>
 80029e2:	6823      	ldr	r3, [r4, #0]
 80029e4:	f023 0304 	bic.w	r3, r3, #4
 80029e8:	6023      	str	r3, [r4, #0]
 80029ea:	6803      	ldr	r3, [r0, #0]
 80029ec:	4a43      	ldr	r2, [pc, #268]	; (8002afc <HAL_DMA_IRQHandler+0x13c>)
 80029ee:	4293      	cmp	r3, r2
 80029f0:	d014      	beq.n	8002a1c <HAL_DMA_IRQHandler+0x5c>
 80029f2:	3214      	adds	r2, #20
 80029f4:	4293      	cmp	r3, r2
 80029f6:	d018      	beq.n	8002a2a <HAL_DMA_IRQHandler+0x6a>
 80029f8:	3214      	adds	r2, #20
 80029fa:	4293      	cmp	r3, r2
 80029fc:	d017      	beq.n	8002a2e <HAL_DMA_IRQHandler+0x6e>
 80029fe:	3214      	adds	r2, #20
 8002a00:	4293      	cmp	r3, r2
 8002a02:	d017      	beq.n	8002a34 <HAL_DMA_IRQHandler+0x74>
 8002a04:	3214      	adds	r2, #20
 8002a06:	4293      	cmp	r3, r2
 8002a08:	d017      	beq.n	8002a3a <HAL_DMA_IRQHandler+0x7a>
 8002a0a:	3214      	adds	r2, #20
 8002a0c:	4293      	cmp	r3, r2
 8002a0e:	d002      	beq.n	8002a16 <HAL_DMA_IRQHandler+0x56>
 8002a10:	f04f 6280 	mov.w	r2, #67108864	; 0x4000000
 8002a14:	e003      	b.n	8002a1e <HAL_DMA_IRQHandler+0x5e>
 8002a16:	f44f 0280 	mov.w	r2, #4194304	; 0x400000
 8002a1a:	e000      	b.n	8002a1e <HAL_DMA_IRQHandler+0x5e>
 8002a1c:	2204      	movs	r2, #4
 8002a1e:	4b38      	ldr	r3, [pc, #224]	; (8002b00 <HAL_DMA_IRQHandler+0x140>)
 8002a20:	605a      	str	r2, [r3, #4]
 8002a22:	6ac3      	ldr	r3, [r0, #44]	; 0x2c
 8002a24:	b103      	cbz	r3, 8002a28 <HAL_DMA_IRQHandler+0x68>
 8002a26:	4798      	blx	r3
 8002a28:	bd38      	pop	{r3, r4, r5, pc}
 8002a2a:	2240      	movs	r2, #64	; 0x40
 8002a2c:	e7f7      	b.n	8002a1e <HAL_DMA_IRQHandler+0x5e>
 8002a2e:	f44f 6280 	mov.w	r2, #1024	; 0x400
 8002a32:	e7f4      	b.n	8002a1e <HAL_DMA_IRQHandler+0x5e>
 8002a34:	f44f 4280 	mov.w	r2, #16384	; 0x4000
 8002a38:	e7f1      	b.n	8002a1e <HAL_DMA_IRQHandler+0x5e>
 8002a3a:	f44f 2280 	mov.w	r2, #262144	; 0x40000
 8002a3e:	e7ee      	b.n	8002a1e <HAL_DMA_IRQHandler+0x5e>
 8002a40:	2302      	movs	r3, #2
 8002a42:	408b      	lsls	r3, r1
 8002a44:	4213      	tst	r3, r2
 8002a46:	d03c      	beq.n	8002ac2 <HAL_DMA_IRQHandler+0x102>
 8002a48:	f015 0f02 	tst.w	r5, #2
 8002a4c:	d039      	beq.n	8002ac2 <HAL_DMA_IRQHandler+0x102>
 8002a4e:	6823      	ldr	r3, [r4, #0]
 8002a50:	f013 0f20 	tst.w	r3, #32
 8002a54:	d106      	bne.n	8002a64 <HAL_DMA_IRQHandler+0xa4>
 8002a56:	6823      	ldr	r3, [r4, #0]
 8002a58:	f023 030a 	bic.w	r3, r3, #10
 8002a5c:	6023      	str	r3, [r4, #0]
 8002a5e:	2301      	movs	r3, #1
 8002a60:	f880 3021 	strb.w	r3, [r0, #33]	; 0x21
 8002a64:	6803      	ldr	r3, [r0, #0]
 8002a66:	4a25      	ldr	r2, [pc, #148]	; (8002afc <HAL_DMA_IRQHandler+0x13c>)
 8002a68:	4293      	cmp	r3, r2
 8002a6a:	d014      	beq.n	8002a96 <HAL_DMA_IRQHandler+0xd6>
 8002a6c:	3214      	adds	r2, #20
 8002a6e:	4293      	cmp	r3, r2
 8002a70:	d01c      	beq.n	8002aac <HAL_DMA_IRQHandler+0xec>
 8002a72:	3214      	adds	r2, #20
 8002a74:	4293      	cmp	r3, r2
 8002a76:	d01b      	beq.n	8002ab0 <HAL_DMA_IRQHandler+0xf0>
 8002a78:	3214      	adds	r2, #20
 8002a7a:	4293      	cmp	r3, r2
 8002a7c:	d01b      	beq.n	8002ab6 <HAL_DMA_IRQHandler+0xf6>
 8002a7e:	3214      	adds	r2, #20
 8002a80:	4293      	cmp	r3, r2
 8002a82:	d01b      	beq.n	8002abc <HAL_DMA_IRQHandler+0xfc>
 8002a84:	3214      	adds	r2, #20
 8002a86:	4293      	cmp	r3, r2
 8002a88:	d002      	beq.n	8002a90 <HAL_DMA_IRQHandler+0xd0>
 8002a8a:	f04f 7200 	mov.w	r2, #33554432	; 0x2000000
 8002a8e:	e003      	b.n	8002a98 <HAL_DMA_IRQHandler+0xd8>
 8002a90:	f44f 1200 	mov.w	r2, #2097152	; 0x200000
 8002a94:	e000      	b.n	8002a98 <HAL_DMA_IRQHandler+0xd8>
 8002a96:	2202      	movs	r2, #2
 8002a98:	4b19      	ldr	r3, [pc, #100]	; (8002b00 <HAL_DMA_IRQHandler+0x140>)
 8002a9a:	605a      	str	r2, [r3, #4]
 8002a9c:	2300      	movs	r3, #0
 8002a9e:	f880 3020 	strb.w	r3, [r0, #32]
 8002aa2:	6a83      	ldr	r3, [r0, #40]	; 0x28
 8002aa4:	2b00      	cmp	r3, #0
 8002aa6:	d0bf      	beq.n	8002a28 <HAL_DMA_IRQHandler+0x68>
 8002aa8:	4798      	blx	r3
 8002aaa:	e7bd      	b.n	8002a28 <HAL_DMA_IRQHandler+0x68>
 8002aac:	2220      	movs	r2, #32
 8002aae:	e7f3      	b.n	8002a98 <HAL_DMA_IRQHandler+0xd8>
 8002ab0:	f44f 7200 	mov.w	r2, #512	; 0x200
 8002ab4:	e7f0      	b.n	8002a98 <HAL_DMA_IRQHandler+0xd8>
 8002ab6:	f44f 5200 	mov.w	r2, #8192	; 0x2000
 8002aba:	e7ed      	b.n	8002a98 <HAL_DMA_IRQHandler+0xd8>
 8002abc:	f44f 3200 	mov.w	r2, #131072	; 0x20000
 8002ac0:	e7ea      	b.n	8002a98 <HAL_DMA_IRQHandler+0xd8>
 8002ac2:	2308      	movs	r3, #8
 8002ac4:	fa03 f101 	lsl.w	r1, r3, r1
 8002ac8:	4211      	tst	r1, r2
 8002aca:	d0ad      	beq.n	8002a28 <HAL_DMA_IRQHandler+0x68>
 8002acc:	f015 0f08 	tst.w	r5, #8
 8002ad0:	d0aa      	beq.n	8002a28 <HAL_DMA_IRQHandler+0x68>
 8002ad2:	6823      	ldr	r3, [r4, #0]
 8002ad4:	f023 030e 	bic.w	r3, r3, #14
 8002ad8:	6023      	str	r3, [r4, #0]
 8002ada:	6c02      	ldr	r2, [r0, #64]	; 0x40
 8002adc:	6bc1      	ldr	r1, [r0, #60]	; 0x3c
 8002ade:	2301      	movs	r3, #1
 8002ae0:	fa03 f202 	lsl.w	r2, r3, r2
 8002ae4:	604a      	str	r2, [r1, #4]
 8002ae6:	6383      	str	r3, [r0, #56]	; 0x38
 8002ae8:	f880 3021 	strb.w	r3, [r0, #33]	; 0x21
 8002aec:	2300      	movs	r3, #0
 8002aee:	f880 3020 	strb.w	r3, [r0, #32]
 8002af2:	6b03      	ldr	r3, [r0, #48]	; 0x30
 8002af4:	2b00      	cmp	r3, #0
 8002af6:	d097      	beq.n	8002a28 <HAL_DMA_IRQHandler+0x68>
 8002af8:	4798      	blx	r3
 8002afa:	e795      	b.n	8002a28 <HAL_DMA_IRQHandler+0x68>
 8002afc:	40020008 	.word	0x40020008
 8002b00:	40020000 	.word	0x40020000

08002b04 <HAL_DMA_GetState>:
 8002b04:	f890 0021 	ldrb.w	r0, [r0, #33]	; 0x21
 8002b08:	4770      	bx	lr
	...

08002b0c <HAL_GPIO_Init>:
 8002b0c:	b4f0      	push	{r4, r5, r6, r7}
 8002b0e:	b082      	sub	sp, #8
 8002b10:	2500      	movs	r5, #0
 8002b12:	462c      	mov	r4, r5
 8002b14:	e0a3      	b.n	8002c5e <HAL_GPIO_Init+0x152>
 8002b16:	4f7f      	ldr	r7, [pc, #508]	; (8002d14 <HAL_GPIO_Init+0x208>)
 8002b18:	42bb      	cmp	r3, r7
 8002b1a:	d010      	beq.n	8002b3e <HAL_GPIO_Init+0x32>
 8002b1c:	d907      	bls.n	8002b2e <HAL_GPIO_Init+0x22>
 8002b1e:	4f7e      	ldr	r7, [pc, #504]	; (8002d18 <HAL_GPIO_Init+0x20c>)
 8002b20:	42bb      	cmp	r3, r7
 8002b22:	d00c      	beq.n	8002b3e <HAL_GPIO_Init+0x32>
 8002b24:	f507 3780 	add.w	r7, r7, #65536	; 0x10000
 8002b28:	42bb      	cmp	r3, r7
 8002b2a:	d008      	beq.n	8002b3e <HAL_GPIO_Init+0x32>
 8002b2c:	e013      	b.n	8002b56 <HAL_GPIO_Init+0x4a>
 8002b2e:	f5a7 1780 	sub.w	r7, r7, #1048576	; 0x100000
 8002b32:	42bb      	cmp	r3, r7
 8002b34:	d003      	beq.n	8002b3e <HAL_GPIO_Init+0x32>
 8002b36:	f507 2770 	add.w	r7, r7, #983040	; 0xf0000
 8002b3a:	42bb      	cmp	r3, r7
 8002b3c:	d107      	bne.n	8002b4e <HAL_GPIO_Init+0x42>
 8002b3e:	688b      	ldr	r3, [r1, #8]
 8002b40:	2b00      	cmp	r3, #0
 8002b42:	d058      	beq.n	8002bf6 <HAL_GPIO_Init+0xea>
 8002b44:	2b01      	cmp	r3, #1
 8002b46:	d051      	beq.n	8002bec <HAL_GPIO_Init+0xe0>
 8002b48:	6142      	str	r2, [r0, #20]
 8002b4a:	2508      	movs	r5, #8
 8002b4c:	e003      	b.n	8002b56 <HAL_GPIO_Init+0x4a>
 8002b4e:	f5a7 1780 	sub.w	r7, r7, #1048576	; 0x100000
 8002b52:	42bb      	cmp	r3, r7
 8002b54:	d0f3      	beq.n	8002b3e <HAL_GPIO_Init+0x32>
 8002b56:	2eff      	cmp	r6, #255	; 0xff
 8002b58:	d84f      	bhi.n	8002bfa <HAL_GPIO_Init+0xee>
 8002b5a:	4684      	mov	ip, r0
 8002b5c:	2eff      	cmp	r6, #255	; 0xff
 8002b5e:	d84f      	bhi.n	8002c00 <HAL_GPIO_Init+0xf4>
 8002b60:	00a2      	lsls	r2, r4, #2
 8002b62:	f8dc 3000 	ldr.w	r3, [ip]
 8002b66:	270f      	movs	r7, #15
 8002b68:	4097      	lsls	r7, r2
 8002b6a:	ea23 0307 	bic.w	r3, r3, r7
 8002b6e:	fa05 f202 	lsl.w	r2, r5, r2
 8002b72:	4313      	orrs	r3, r2
 8002b74:	f8cc 3000 	str.w	r3, [ip]
 8002b78:	684b      	ldr	r3, [r1, #4]
 8002b7a:	f013 5f80 	tst.w	r3, #268435456	; 0x10000000
 8002b7e:	d06d      	beq.n	8002c5c <HAL_GPIO_Init+0x150>
 8002b80:	4b66      	ldr	r3, [pc, #408]	; (8002d1c <HAL_GPIO_Init+0x210>)
 8002b82:	699a      	ldr	r2, [r3, #24]
 8002b84:	f042 0201 	orr.w	r2, r2, #1
 8002b88:	619a      	str	r2, [r3, #24]
 8002b8a:	699b      	ldr	r3, [r3, #24]
 8002b8c:	f003 0301 	and.w	r3, r3, #1
 8002b90:	9301      	str	r3, [sp, #4]
 8002b92:	9b01      	ldr	r3, [sp, #4]
 8002b94:	08a2      	lsrs	r2, r4, #2
 8002b96:	1c97      	adds	r7, r2, #2
 8002b98:	4b61      	ldr	r3, [pc, #388]	; (8002d20 <HAL_GPIO_Init+0x214>)
 8002b9a:	f853 3027 	ldr.w	r3, [r3, r7, lsl #2]
 8002b9e:	f004 0703 	and.w	r7, r4, #3
 8002ba2:	00bf      	lsls	r7, r7, #2
 8002ba4:	f04f 0c0f 	mov.w	ip, #15
 8002ba8:	fa0c fc07 	lsl.w	ip, ip, r7
 8002bac:	ea23 0c0c 	bic.w	ip, r3, ip
 8002bb0:	4b5c      	ldr	r3, [pc, #368]	; (8002d24 <HAL_GPIO_Init+0x218>)
 8002bb2:	4298      	cmp	r0, r3
 8002bb4:	d02a      	beq.n	8002c0c <HAL_GPIO_Init+0x100>
 8002bb6:	f503 6380 	add.w	r3, r3, #1024	; 0x400
 8002bba:	4298      	cmp	r0, r3
 8002bbc:	f000 808a 	beq.w	8002cd4 <HAL_GPIO_Init+0x1c8>
 8002bc0:	f503 6380 	add.w	r3, r3, #1024	; 0x400
 8002bc4:	4298      	cmp	r0, r3
 8002bc6:	f000 8087 	beq.w	8002cd8 <HAL_GPIO_Init+0x1cc>
 8002bca:	f503 6380 	add.w	r3, r3, #1024	; 0x400
 8002bce:	4298      	cmp	r0, r3
 8002bd0:	d01a      	beq.n	8002c08 <HAL_GPIO_Init+0xfc>
 8002bd2:	2304      	movs	r3, #4
 8002bd4:	e01b      	b.n	8002c0e <HAL_GPIO_Init+0x102>
 8002bd6:	68cd      	ldr	r5, [r1, #12]
 8002bd8:	e7bd      	b.n	8002b56 <HAL_GPIO_Init+0x4a>
 8002bda:	68cd      	ldr	r5, [r1, #12]
 8002bdc:	3504      	adds	r5, #4
 8002bde:	e7ba      	b.n	8002b56 <HAL_GPIO_Init+0x4a>
 8002be0:	68cd      	ldr	r5, [r1, #12]
 8002be2:	3508      	adds	r5, #8
 8002be4:	e7b7      	b.n	8002b56 <HAL_GPIO_Init+0x4a>
 8002be6:	68cd      	ldr	r5, [r1, #12]
 8002be8:	350c      	adds	r5, #12
 8002bea:	e7b4      	b.n	8002b56 <HAL_GPIO_Init+0x4a>
 8002bec:	6102      	str	r2, [r0, #16]
 8002bee:	2508      	movs	r5, #8
 8002bf0:	e7b1      	b.n	8002b56 <HAL_GPIO_Init+0x4a>
 8002bf2:	2500      	movs	r5, #0
 8002bf4:	e7af      	b.n	8002b56 <HAL_GPIO_Init+0x4a>
 8002bf6:	2504      	movs	r5, #4
 8002bf8:	e7ad      	b.n	8002b56 <HAL_GPIO_Init+0x4a>
 8002bfa:	f100 0c04 	add.w	ip, r0, #4
 8002bfe:	e7ad      	b.n	8002b5c <HAL_GPIO_Init+0x50>
 8002c00:	f1a4 0208 	sub.w	r2, r4, #8
 8002c04:	0092      	lsls	r2, r2, #2
 8002c06:	e7ac      	b.n	8002b62 <HAL_GPIO_Init+0x56>
 8002c08:	2303      	movs	r3, #3
 8002c0a:	e000      	b.n	8002c0e <HAL_GPIO_Init+0x102>
 8002c0c:	2300      	movs	r3, #0
 8002c0e:	40bb      	lsls	r3, r7
 8002c10:	ea43 030c 	orr.w	r3, r3, ip
 8002c14:	3202      	adds	r2, #2
 8002c16:	4f42      	ldr	r7, [pc, #264]	; (8002d20 <HAL_GPIO_Init+0x214>)
 8002c18:	f847 3022 	str.w	r3, [r7, r2, lsl #2]
 8002c1c:	684b      	ldr	r3, [r1, #4]
 8002c1e:	f413 3f80 	tst.w	r3, #65536	; 0x10000
 8002c22:	d05b      	beq.n	8002cdc <HAL_GPIO_Init+0x1d0>
 8002c24:	4a40      	ldr	r2, [pc, #256]	; (8002d28 <HAL_GPIO_Init+0x21c>)
 8002c26:	6813      	ldr	r3, [r2, #0]
 8002c28:	4333      	orrs	r3, r6
 8002c2a:	6013      	str	r3, [r2, #0]
 8002c2c:	684b      	ldr	r3, [r1, #4]
 8002c2e:	f413 3f00 	tst.w	r3, #131072	; 0x20000
 8002c32:	d059      	beq.n	8002ce8 <HAL_GPIO_Init+0x1dc>
 8002c34:	4a3c      	ldr	r2, [pc, #240]	; (8002d28 <HAL_GPIO_Init+0x21c>)
 8002c36:	6853      	ldr	r3, [r2, #4]
 8002c38:	4333      	orrs	r3, r6
 8002c3a:	6053      	str	r3, [r2, #4]
 8002c3c:	684b      	ldr	r3, [r1, #4]
 8002c3e:	f413 1f80 	tst.w	r3, #1048576	; 0x100000
 8002c42:	d057      	beq.n	8002cf4 <HAL_GPIO_Init+0x1e8>
 8002c44:	4a38      	ldr	r2, [pc, #224]	; (8002d28 <HAL_GPIO_Init+0x21c>)
 8002c46:	6893      	ldr	r3, [r2, #8]
 8002c48:	4333      	orrs	r3, r6
 8002c4a:	6093      	str	r3, [r2, #8]
 8002c4c:	684b      	ldr	r3, [r1, #4]
 8002c4e:	f413 1f00 	tst.w	r3, #2097152	; 0x200000
 8002c52:	d055      	beq.n	8002d00 <HAL_GPIO_Init+0x1f4>
 8002c54:	4a34      	ldr	r2, [pc, #208]	; (8002d28 <HAL_GPIO_Init+0x21c>)
 8002c56:	68d3      	ldr	r3, [r2, #12]
 8002c58:	431e      	orrs	r6, r3
 8002c5a:	60d6      	str	r6, [r2, #12]
 8002c5c:	3401      	adds	r4, #1
 8002c5e:	680b      	ldr	r3, [r1, #0]
 8002c60:	fa33 f204 	lsrs.w	r2, r3, r4
 8002c64:	d052      	beq.n	8002d0c <HAL_GPIO_Init+0x200>
 8002c66:	2201      	movs	r2, #1
 8002c68:	40a2      	lsls	r2, r4
 8002c6a:	ea03 0602 	and.w	r6, r3, r2
 8002c6e:	ea32 0303 	bics.w	r3, r2, r3
 8002c72:	d1f3      	bne.n	8002c5c <HAL_GPIO_Init+0x150>
 8002c74:	684b      	ldr	r3, [r1, #4]
 8002c76:	2b12      	cmp	r3, #18
 8002c78:	f63f af4d 	bhi.w	8002b16 <HAL_GPIO_Init+0xa>
 8002c7c:	2b12      	cmp	r3, #18
 8002c7e:	f63f af6a 	bhi.w	8002b56 <HAL_GPIO_Init+0x4a>
 8002c82:	a701      	add	r7, pc, #4	; (adr r7, 8002c88 <HAL_GPIO_Init+0x17c>)
 8002c84:	f857 f023 	ldr.w	pc, [r7, r3, lsl #2]
 8002c88:	08002b3f 	.word	0x08002b3f
 8002c8c:	08002bd7 	.word	0x08002bd7
 8002c90:	08002be1 	.word	0x08002be1
 8002c94:	08002bf3 	.word	0x08002bf3
 8002c98:	08002b57 	.word	0x08002b57
 8002c9c:	08002b57 	.word	0x08002b57
 8002ca0:	08002b57 	.word	0x08002b57
 8002ca4:	08002b57 	.word	0x08002b57
 8002ca8:	08002b57 	.word	0x08002b57
 8002cac:	08002b57 	.word	0x08002b57
 8002cb0:	08002b57 	.word	0x08002b57
 8002cb4:	08002b57 	.word	0x08002b57
 8002cb8:	08002b57 	.word	0x08002b57
 8002cbc:	08002b57 	.word	0x08002b57
 8002cc0:	08002b57 	.word	0x08002b57
 8002cc4:	08002b57 	.word	0x08002b57
 8002cc8:	08002b57 	.word	0x08002b57
 8002ccc:	08002bdb 	.word	0x08002bdb
 8002cd0:	08002be7 	.word	0x08002be7
 8002cd4:	2301      	movs	r3, #1
 8002cd6:	e79a      	b.n	8002c0e <HAL_GPIO_Init+0x102>
 8002cd8:	2302      	movs	r3, #2
 8002cda:	e798      	b.n	8002c0e <HAL_GPIO_Init+0x102>
 8002cdc:	4a12      	ldr	r2, [pc, #72]	; (8002d28 <HAL_GPIO_Init+0x21c>)
 8002cde:	6813      	ldr	r3, [r2, #0]
 8002ce0:	ea23 0306 	bic.w	r3, r3, r6
 8002ce4:	6013      	str	r3, [r2, #0]
 8002ce6:	e7a1      	b.n	8002c2c <HAL_GPIO_Init+0x120>
 8002ce8:	4a0f      	ldr	r2, [pc, #60]	; (8002d28 <HAL_GPIO_Init+0x21c>)
 8002cea:	6853      	ldr	r3, [r2, #4]
 8002cec:	ea23 0306 	bic.w	r3, r3, r6
 8002cf0:	6053      	str	r3, [r2, #4]
 8002cf2:	e7a3      	b.n	8002c3c <HAL_GPIO_Init+0x130>
 8002cf4:	4a0c      	ldr	r2, [pc, #48]	; (8002d28 <HAL_GPIO_Init+0x21c>)
 8002cf6:	6893      	ldr	r3, [r2, #8]
 8002cf8:	ea23 0306 	bic.w	r3, r3, r6
 8002cfc:	6093      	str	r3, [r2, #8]
 8002cfe:	e7a5      	b.n	8002c4c <HAL_GPIO_Init+0x140>
 8002d00:	4a09      	ldr	r2, [pc, #36]	; (8002d28 <HAL_GPIO_Init+0x21c>)
 8002d02:	68d3      	ldr	r3, [r2, #12]
 8002d04:	ea23 0606 	bic.w	r6, r3, r6
 8002d08:	60d6      	str	r6, [r2, #12]
 8002d0a:	e7a7      	b.n	8002c5c <HAL_GPIO_Init+0x150>
 8002d0c:	b002      	add	sp, #8
 8002d0e:	bcf0      	pop	{r4, r5, r6, r7}
 8002d10:	4770      	bx	lr
 8002d12:	bf00      	nop
 8002d14:	10220000 	.word	0x10220000
 8002d18:	10310000 	.word	0x10310000
 8002d1c:	40021000 	.word	0x40021000
 8002d20:	40010000 	.word	0x40010000
 8002d24:	40010800 	.word	0x40010800
 8002d28:	40010400 	.word	0x40010400

08002d2c <HAL_GPIO_ReadPin>:
 8002d2c:	6883      	ldr	r3, [r0, #8]
 8002d2e:	4219      	tst	r1, r3
 8002d30:	d001      	beq.n	8002d36 <HAL_GPIO_ReadPin+0xa>
 8002d32:	2001      	movs	r0, #1
 8002d34:	4770      	bx	lr
 8002d36:	2000      	movs	r0, #0
 8002d38:	4770      	bx	lr

08002d3a <HAL_GPIO_WritePin>:
 8002d3a:	b10a      	cbz	r2, 8002d40 <HAL_GPIO_WritePin+0x6>
 8002d3c:	6101      	str	r1, [r0, #16]
 8002d3e:	4770      	bx	lr
 8002d40:	0409      	lsls	r1, r1, #16
 8002d42:	6101      	str	r1, [r0, #16]
 8002d44:	4770      	bx	lr

08002d46 <I2C_Master_SB>:
 8002d46:	f890 303e 	ldrb.w	r3, [r0, #62]	; 0x3e
 8002d4a:	b2db      	uxtb	r3, r3
 8002d4c:	2b40      	cmp	r3, #64	; 0x40
 8002d4e:	d010      	beq.n	8002d72 <I2C_Master_SB+0x2c>
 8002d50:	6903      	ldr	r3, [r0, #16]
 8002d52:	f5b3 4f80 	cmp.w	r3, #16384	; 0x4000
 8002d56:	d01b      	beq.n	8002d90 <I2C_Master_SB+0x4a>
 8002d58:	6d03      	ldr	r3, [r0, #80]	; 0x50
 8002d5a:	2b00      	cmp	r3, #0
 8002d5c:	d139      	bne.n	8002dd2 <I2C_Master_SB+0x8c>
 8002d5e:	6c43      	ldr	r3, [r0, #68]	; 0x44
 8002d60:	f3c3 13c8 	ubfx	r3, r3, #7, #9
 8002d64:	6802      	ldr	r2, [r0, #0]
 8002d66:	f003 0306 	and.w	r3, r3, #6
 8002d6a:	f043 03f0 	orr.w	r3, r3, #240	; 0xf0
 8002d6e:	6113      	str	r3, [r2, #16]
 8002d70:	4770      	bx	lr
 8002d72:	6d03      	ldr	r3, [r0, #80]	; 0x50
 8002d74:	b92b      	cbnz	r3, 8002d82 <I2C_Master_SB+0x3c>
 8002d76:	6c43      	ldr	r3, [r0, #68]	; 0x44
 8002d78:	6802      	ldr	r2, [r0, #0]
 8002d7a:	f003 03fe 	and.w	r3, r3, #254	; 0xfe
 8002d7e:	6113      	str	r3, [r2, #16]
 8002d80:	4770      	bx	lr
 8002d82:	6c43      	ldr	r3, [r0, #68]	; 0x44
 8002d84:	6802      	ldr	r2, [r0, #0]
 8002d86:	f043 0301 	orr.w	r3, r3, #1
 8002d8a:	b2db      	uxtb	r3, r3
 8002d8c:	6113      	str	r3, [r2, #16]
 8002d8e:	4770      	bx	lr
 8002d90:	f890 303d 	ldrb.w	r3, [r0, #61]	; 0x3d
 8002d94:	b2db      	uxtb	r3, r3
 8002d96:	2b21      	cmp	r3, #33	; 0x21
 8002d98:	d00f      	beq.n	8002dba <I2C_Master_SB+0x74>
 8002d9a:	6c43      	ldr	r3, [r0, #68]	; 0x44
 8002d9c:	6802      	ldr	r2, [r0, #0]
 8002d9e:	f043 0301 	orr.w	r3, r3, #1
 8002da2:	b2db      	uxtb	r3, r3
 8002da4:	6113      	str	r3, [r2, #16]
 8002da6:	6b43      	ldr	r3, [r0, #52]	; 0x34
 8002da8:	b16b      	cbz	r3, 8002dc6 <I2C_Master_SB+0x80>
 8002daa:	6a9b      	ldr	r3, [r3, #40]	; 0x28
 8002dac:	b15b      	cbz	r3, 8002dc6 <I2C_Master_SB+0x80>
 8002dae:	6802      	ldr	r2, [r0, #0]
 8002db0:	6853      	ldr	r3, [r2, #4]
 8002db2:	f443 6300 	orr.w	r3, r3, #2048	; 0x800
 8002db6:	6053      	str	r3, [r2, #4]
 8002db8:	4770      	bx	lr
 8002dba:	6c43      	ldr	r3, [r0, #68]	; 0x44
 8002dbc:	6802      	ldr	r2, [r0, #0]
 8002dbe:	f003 03fe 	and.w	r3, r3, #254	; 0xfe
 8002dc2:	6113      	str	r3, [r2, #16]
 8002dc4:	e7ef      	b.n	8002da6 <I2C_Master_SB+0x60>
 8002dc6:	6b83      	ldr	r3, [r0, #56]	; 0x38
 8002dc8:	b133      	cbz	r3, 8002dd8 <I2C_Master_SB+0x92>
 8002dca:	6a9b      	ldr	r3, [r3, #40]	; 0x28
 8002dcc:	2b00      	cmp	r3, #0
 8002dce:	d1ee      	bne.n	8002dae <I2C_Master_SB+0x68>
 8002dd0:	e002      	b.n	8002dd8 <I2C_Master_SB+0x92>
 8002dd2:	6d03      	ldr	r3, [r0, #80]	; 0x50
 8002dd4:	2b01      	cmp	r3, #1
 8002dd6:	d000      	beq.n	8002dda <I2C_Master_SB+0x94>
 8002dd8:	4770      	bx	lr
 8002dda:	6c43      	ldr	r3, [r0, #68]	; 0x44
 8002ddc:	f3c3 13c8 	ubfx	r3, r3, #7, #9
 8002de0:	6802      	ldr	r2, [r0, #0]
 8002de2:	f003 0306 	and.w	r3, r3, #6
 8002de6:	f043 03f1 	orr.w	r3, r3, #241	; 0xf1
 8002dea:	6113      	str	r3, [r2, #16]
 8002dec:	e7f4      	b.n	8002dd8 <I2C_Master_SB+0x92>

08002dee <I2C_Master_ADD10>:
 8002dee:	6c43      	ldr	r3, [r0, #68]	; 0x44
 8002df0:	6802      	ldr	r2, [r0, #0]
 8002df2:	b2db      	uxtb	r3, r3
 8002df4:	6113      	str	r3, [r2, #16]
 8002df6:	6b43      	ldr	r3, [r0, #52]	; 0x34
 8002df8:	b13b      	cbz	r3, 8002e0a <I2C_Master_ADD10+0x1c>
 8002dfa:	6a9b      	ldr	r3, [r3, #40]	; 0x28
 8002dfc:	b12b      	cbz	r3, 8002e0a <I2C_Master_ADD10+0x1c>
 8002dfe:	6802      	ldr	r2, [r0, #0]
 8002e00:	6853      	ldr	r3, [r2, #4]
 8002e02:	f443 6300 	orr.w	r3, r3, #2048	; 0x800
 8002e06:	6053      	str	r3, [r2, #4]
 8002e08:	4770      	bx	lr
 8002e0a:	6b83      	ldr	r3, [r0, #56]	; 0x38
 8002e0c:	2b00      	cmp	r3, #0
 8002e0e:	d0fb      	beq.n	8002e08 <I2C_Master_ADD10+0x1a>
 8002e10:	6a9b      	ldr	r3, [r3, #40]	; 0x28
 8002e12:	2b00      	cmp	r3, #0
 8002e14:	d1f3      	bne.n	8002dfe <I2C_Master_ADD10+0x10>
 8002e16:	e7f7      	b.n	8002e08 <I2C_Master_ADD10+0x1a>

08002e18 <I2C_Master_ADDR>:
 8002e18:	b410      	push	{r4}
 8002e1a:	b08d      	sub	sp, #52	; 0x34
 8002e1c:	f890 303e 	ldrb.w	r3, [r0, #62]	; 0x3e
 8002e20:	b2da      	uxtb	r2, r3
 8002e22:	6ac1      	ldr	r1, [r0, #44]	; 0x2c
 8002e24:	6b04      	ldr	r4, [r0, #48]	; 0x30
 8002e26:	f890 303d 	ldrb.w	r3, [r0, #61]	; 0x3d
 8002e2a:	b2db      	uxtb	r3, r3
 8002e2c:	2b22      	cmp	r3, #34	; 0x22
 8002e2e:	d00a      	beq.n	8002e46 <I2C_Master_ADDR+0x2e>
 8002e30:	2300      	movs	r3, #0
 8002e32:	930b      	str	r3, [sp, #44]	; 0x2c
 8002e34:	6803      	ldr	r3, [r0, #0]
 8002e36:	695a      	ldr	r2, [r3, #20]
 8002e38:	920b      	str	r2, [sp, #44]	; 0x2c
 8002e3a:	699b      	ldr	r3, [r3, #24]
 8002e3c:	930b      	str	r3, [sp, #44]	; 0x2c
 8002e3e:	9b0b      	ldr	r3, [sp, #44]	; 0x2c
 8002e40:	b00d      	add	sp, #52	; 0x34
 8002e42:	bc10      	pop	{r4}
 8002e44:	4770      	bx	lr
 8002e46:	6d03      	ldr	r3, [r0, #80]	; 0x50
 8002e48:	b90b      	cbnz	r3, 8002e4e <I2C_Master_ADDR+0x36>
 8002e4a:	2a40      	cmp	r2, #64	; 0x40
 8002e4c:	d017      	beq.n	8002e7e <I2C_Master_ADDR+0x66>
 8002e4e:	6d03      	ldr	r3, [r0, #80]	; 0x50
 8002e50:	b91b      	cbnz	r3, 8002e5a <I2C_Master_ADDR+0x42>
 8002e52:	6903      	ldr	r3, [r0, #16]
 8002e54:	f5b3 4f40 	cmp.w	r3, #49152	; 0xc000
 8002e58:	d019      	beq.n	8002e8e <I2C_Master_ADDR+0x76>
 8002e5a:	8d43      	ldrh	r3, [r0, #42]	; 0x2a
 8002e5c:	b29b      	uxth	r3, r3
 8002e5e:	2b00      	cmp	r3, #0
 8002e60:	d125      	bne.n	8002eae <I2C_Master_ADDR+0x96>
 8002e62:	9303      	str	r3, [sp, #12]
 8002e64:	6803      	ldr	r3, [r0, #0]
 8002e66:	695a      	ldr	r2, [r3, #20]
 8002e68:	9203      	str	r2, [sp, #12]
 8002e6a:	699a      	ldr	r2, [r3, #24]
 8002e6c:	9203      	str	r2, [sp, #12]
 8002e6e:	9a03      	ldr	r2, [sp, #12]
 8002e70:	681a      	ldr	r2, [r3, #0]
 8002e72:	f442 7200 	orr.w	r2, r2, #512	; 0x200
 8002e76:	601a      	str	r2, [r3, #0]
 8002e78:	2300      	movs	r3, #0
 8002e7a:	6503      	str	r3, [r0, #80]	; 0x50
 8002e7c:	e7e0      	b.n	8002e40 <I2C_Master_ADDR+0x28>
 8002e7e:	9301      	str	r3, [sp, #4]
 8002e80:	6803      	ldr	r3, [r0, #0]
 8002e82:	695a      	ldr	r2, [r3, #20]
 8002e84:	9201      	str	r2, [sp, #4]
 8002e86:	699b      	ldr	r3, [r3, #24]
 8002e88:	9301      	str	r3, [sp, #4]
 8002e8a:	9b01      	ldr	r3, [sp, #4]
 8002e8c:	e7d8      	b.n	8002e40 <I2C_Master_ADDR+0x28>
 8002e8e:	2300      	movs	r3, #0
 8002e90:	9302      	str	r3, [sp, #8]
 8002e92:	6803      	ldr	r3, [r0, #0]
 8002e94:	695a      	ldr	r2, [r3, #20]
 8002e96:	9202      	str	r2, [sp, #8]
 8002e98:	699a      	ldr	r2, [r3, #24]
 8002e9a:	9202      	str	r2, [sp, #8]
 8002e9c:	9a02      	ldr	r2, [sp, #8]
 8002e9e:	681a      	ldr	r2, [r3, #0]
 8002ea0:	f442 7280 	orr.w	r2, r2, #256	; 0x100
 8002ea4:	601a      	str	r2, [r3, #0]
 8002ea6:	6d03      	ldr	r3, [r0, #80]	; 0x50
 8002ea8:	3301      	adds	r3, #1
 8002eaa:	6503      	str	r3, [r0, #80]	; 0x50
 8002eac:	e7c8      	b.n	8002e40 <I2C_Master_ADDR+0x28>
 8002eae:	8d43      	ldrh	r3, [r0, #42]	; 0x2a
 8002eb0:	b29b      	uxth	r3, r3
 8002eb2:	2b01      	cmp	r3, #1
 8002eb4:	d025      	beq.n	8002f02 <I2C_Master_ADDR+0xea>
 8002eb6:	8d43      	ldrh	r3, [r0, #42]	; 0x2a
 8002eb8:	b29b      	uxth	r3, r3
 8002eba:	2b02      	cmp	r3, #2
 8002ebc:	d07b      	beq.n	8002fb6 <I2C_Master_ADDR+0x19e>
 8002ebe:	6802      	ldr	r2, [r0, #0]
 8002ec0:	6813      	ldr	r3, [r2, #0]
 8002ec2:	f443 6380 	orr.w	r3, r3, #1024	; 0x400
 8002ec6:	6013      	str	r3, [r2, #0]
 8002ec8:	6803      	ldr	r3, [r0, #0]
 8002eca:	685a      	ldr	r2, [r3, #4]
 8002ecc:	f412 6f00 	tst.w	r2, #2048	; 0x800
 8002ed0:	d00e      	beq.n	8002ef0 <I2C_Master_ADDR+0xd8>
 8002ed2:	f511 3f80 	cmn.w	r1, #65536	; 0x10000
 8002ed6:	d007      	beq.n	8002ee8 <I2C_Master_ADDR+0xd0>
 8002ed8:	2901      	cmp	r1, #1
 8002eda:	d005      	beq.n	8002ee8 <I2C_Master_ADDR+0xd0>
 8002edc:	2908      	cmp	r1, #8
 8002ede:	d003      	beq.n	8002ee8 <I2C_Master_ADDR+0xd0>
 8002ee0:	2910      	cmp	r1, #16
 8002ee2:	d001      	beq.n	8002ee8 <I2C_Master_ADDR+0xd0>
 8002ee4:	2920      	cmp	r1, #32
 8002ee6:	d103      	bne.n	8002ef0 <I2C_Master_ADDR+0xd8>
 8002ee8:	685a      	ldr	r2, [r3, #4]
 8002eea:	f442 5280 	orr.w	r2, r2, #4096	; 0x1000
 8002eee:	605a      	str	r2, [r3, #4]
 8002ef0:	2300      	movs	r3, #0
 8002ef2:	930a      	str	r3, [sp, #40]	; 0x28
 8002ef4:	6803      	ldr	r3, [r0, #0]
 8002ef6:	695a      	ldr	r2, [r3, #20]
 8002ef8:	920a      	str	r2, [sp, #40]	; 0x28
 8002efa:	699b      	ldr	r3, [r3, #24]
 8002efc:	930a      	str	r3, [sp, #40]	; 0x28
 8002efe:	9b0a      	ldr	r3, [sp, #40]	; 0x28
 8002f00:	e7ba      	b.n	8002e78 <I2C_Master_ADDR+0x60>
 8002f02:	f511 3f80 	cmn.w	r1, #65536	; 0x10000
 8002f06:	d011      	beq.n	8002f2c <I2C_Master_ADDR+0x114>
 8002f08:	2908      	cmp	r1, #8
 8002f0a:	d034      	beq.n	8002f76 <I2C_Master_ADDR+0x15e>
 8002f0c:	2920      	cmp	r1, #32
 8002f0e:	d032      	beq.n	8002f76 <I2C_Master_ADDR+0x15e>
 8002f10:	2c12      	cmp	r4, #18
 8002f12:	d02e      	beq.n	8002f72 <I2C_Master_ADDR+0x15a>
 8002f14:	2904      	cmp	r1, #4
 8002f16:	d040      	beq.n	8002f9a <I2C_Master_ADDR+0x182>
 8002f18:	2902      	cmp	r1, #2
 8002f1a:	d03e      	beq.n	8002f9a <I2C_Master_ADDR+0x182>
 8002f1c:	2910      	cmp	r1, #16
 8002f1e:	d03c      	beq.n	8002f9a <I2C_Master_ADDR+0x182>
 8002f20:	6802      	ldr	r2, [r0, #0]
 8002f22:	6813      	ldr	r3, [r2, #0]
 8002f24:	f423 6380 	bic.w	r3, r3, #1024	; 0x400
 8002f28:	6013      	str	r3, [r2, #0]
 8002f2a:	e03b      	b.n	8002fa4 <I2C_Master_ADDR+0x18c>
 8002f2c:	6802      	ldr	r2, [r0, #0]
 8002f2e:	6813      	ldr	r3, [r2, #0]
 8002f30:	f423 6380 	bic.w	r3, r3, #1024	; 0x400
 8002f34:	6013      	str	r3, [r2, #0]
 8002f36:	6803      	ldr	r3, [r0, #0]
 8002f38:	685a      	ldr	r2, [r3, #4]
 8002f3a:	f412 6f00 	tst.w	r2, #2048	; 0x800
 8002f3e:	d00c      	beq.n	8002f5a <I2C_Master_ADDR+0x142>
 8002f40:	681a      	ldr	r2, [r3, #0]
 8002f42:	f422 6280 	bic.w	r2, r2, #1024	; 0x400
 8002f46:	601a      	str	r2, [r3, #0]
 8002f48:	2300      	movs	r3, #0
 8002f4a:	9304      	str	r3, [sp, #16]
 8002f4c:	6803      	ldr	r3, [r0, #0]
 8002f4e:	695a      	ldr	r2, [r3, #20]
 8002f50:	9204      	str	r2, [sp, #16]
 8002f52:	699b      	ldr	r3, [r3, #24]
 8002f54:	9304      	str	r3, [sp, #16]
 8002f56:	9b04      	ldr	r3, [sp, #16]
 8002f58:	e78e      	b.n	8002e78 <I2C_Master_ADDR+0x60>
 8002f5a:	2200      	movs	r2, #0
 8002f5c:	9205      	str	r2, [sp, #20]
 8002f5e:	695a      	ldr	r2, [r3, #20]
 8002f60:	9205      	str	r2, [sp, #20]
 8002f62:	699a      	ldr	r2, [r3, #24]
 8002f64:	9205      	str	r2, [sp, #20]
 8002f66:	9a05      	ldr	r2, [sp, #20]
 8002f68:	681a      	ldr	r2, [r3, #0]
 8002f6a:	f442 7200 	orr.w	r2, r2, #512	; 0x200
 8002f6e:	601a      	str	r2, [r3, #0]
 8002f70:	e782      	b.n	8002e78 <I2C_Master_ADDR+0x60>
 8002f72:	2901      	cmp	r1, #1
 8002f74:	d0ce      	beq.n	8002f14 <I2C_Master_ADDR+0xfc>
 8002f76:	6802      	ldr	r2, [r0, #0]
 8002f78:	6813      	ldr	r3, [r2, #0]
 8002f7a:	f423 6380 	bic.w	r3, r3, #1024	; 0x400
 8002f7e:	6013      	str	r3, [r2, #0]
 8002f80:	2300      	movs	r3, #0
 8002f82:	9307      	str	r3, [sp, #28]
 8002f84:	6803      	ldr	r3, [r0, #0]
 8002f86:	695a      	ldr	r2, [r3, #20]
 8002f88:	9207      	str	r2, [sp, #28]
 8002f8a:	699a      	ldr	r2, [r3, #24]
 8002f8c:	9207      	str	r2, [sp, #28]
 8002f8e:	9a07      	ldr	r2, [sp, #28]
 8002f90:	681a      	ldr	r2, [r3, #0]
 8002f92:	f442 7200 	orr.w	r2, r2, #512	; 0x200
 8002f96:	601a      	str	r2, [r3, #0]
 8002f98:	e76e      	b.n	8002e78 <I2C_Master_ADDR+0x60>
 8002f9a:	6802      	ldr	r2, [r0, #0]
 8002f9c:	6813      	ldr	r3, [r2, #0]
 8002f9e:	f443 6380 	orr.w	r3, r3, #1024	; 0x400
 8002fa2:	6013      	str	r3, [r2, #0]
 8002fa4:	2300      	movs	r3, #0
 8002fa6:	9306      	str	r3, [sp, #24]
 8002fa8:	6803      	ldr	r3, [r0, #0]
 8002faa:	695a      	ldr	r2, [r3, #20]
 8002fac:	9206      	str	r2, [sp, #24]
 8002fae:	699b      	ldr	r3, [r3, #24]
 8002fb0:	9306      	str	r3, [sp, #24]
 8002fb2:	9b06      	ldr	r3, [sp, #24]
 8002fb4:	e760      	b.n	8002e78 <I2C_Master_ADDR+0x60>
 8002fb6:	2904      	cmp	r1, #4
 8002fb8:	d015      	beq.n	8002fe6 <I2C_Master_ADDR+0x1ce>
 8002fba:	2902      	cmp	r1, #2
 8002fbc:	d013      	beq.n	8002fe6 <I2C_Master_ADDR+0x1ce>
 8002fbe:	2910      	cmp	r1, #16
 8002fc0:	d011      	beq.n	8002fe6 <I2C_Master_ADDR+0x1ce>
 8002fc2:	6802      	ldr	r2, [r0, #0]
 8002fc4:	6813      	ldr	r3, [r2, #0]
 8002fc6:	f443 6300 	orr.w	r3, r3, #2048	; 0x800
 8002fca:	6013      	str	r3, [r2, #0]
 8002fcc:	2300      	movs	r3, #0
 8002fce:	9308      	str	r3, [sp, #32]
 8002fd0:	6803      	ldr	r3, [r0, #0]
 8002fd2:	695a      	ldr	r2, [r3, #20]
 8002fd4:	9208      	str	r2, [sp, #32]
 8002fd6:	699a      	ldr	r2, [r3, #24]
 8002fd8:	9208      	str	r2, [sp, #32]
 8002fda:	9a08      	ldr	r2, [sp, #32]
 8002fdc:	681a      	ldr	r2, [r3, #0]
 8002fde:	f422 6280 	bic.w	r2, r2, #1024	; 0x400
 8002fe2:	601a      	str	r2, [r3, #0]
 8002fe4:	e00c      	b.n	8003000 <I2C_Master_ADDR+0x1e8>
 8002fe6:	6802      	ldr	r2, [r0, #0]
 8002fe8:	6813      	ldr	r3, [r2, #0]
 8002fea:	f443 6380 	orr.w	r3, r3, #1024	; 0x400
 8002fee:	6013      	str	r3, [r2, #0]
 8002ff0:	2300      	movs	r3, #0
 8002ff2:	9309      	str	r3, [sp, #36]	; 0x24
 8002ff4:	6803      	ldr	r3, [r0, #0]
 8002ff6:	695a      	ldr	r2, [r3, #20]
 8002ff8:	9209      	str	r2, [sp, #36]	; 0x24
 8002ffa:	699b      	ldr	r3, [r3, #24]
 8002ffc:	9309      	str	r3, [sp, #36]	; 0x24
 8002ffe:	9b09      	ldr	r3, [sp, #36]	; 0x24
 8003000:	6803      	ldr	r3, [r0, #0]
 8003002:	685a      	ldr	r2, [r3, #4]
 8003004:	f412 6f00 	tst.w	r2, #2048	; 0x800
 8003008:	f43f af36 	beq.w	8002e78 <I2C_Master_ADDR+0x60>
 800300c:	f511 3f80 	cmn.w	r1, #65536	; 0x10000
 8003010:	d008      	beq.n	8003024 <I2C_Master_ADDR+0x20c>
 8003012:	2901      	cmp	r1, #1
 8003014:	d006      	beq.n	8003024 <I2C_Master_ADDR+0x20c>
 8003016:	2908      	cmp	r1, #8
 8003018:	d004      	beq.n	8003024 <I2C_Master_ADDR+0x20c>
 800301a:	2910      	cmp	r1, #16
 800301c:	d002      	beq.n	8003024 <I2C_Master_ADDR+0x20c>
 800301e:	2920      	cmp	r1, #32
 8003020:	f47f af2a 	bne.w	8002e78 <I2C_Master_ADDR+0x60>
 8003024:	685a      	ldr	r2, [r3, #4]
 8003026:	f442 5280 	orr.w	r2, r2, #4096	; 0x1000
 800302a:	605a      	str	r2, [r3, #4]
 800302c:	e724      	b.n	8002e78 <I2C_Master_ADDR+0x60>

0800302e <I2C_SlaveTransmit_BTF>:
 800302e:	8d43      	ldrh	r3, [r0, #42]	; 0x2a
 8003030:	b29b      	uxth	r3, r3
 8003032:	b15b      	cbz	r3, 800304c <I2C_SlaveTransmit_BTF+0x1e>
 8003034:	6a42      	ldr	r2, [r0, #36]	; 0x24
 8003036:	6803      	ldr	r3, [r0, #0]
 8003038:	7812      	ldrb	r2, [r2, #0]
 800303a:	611a      	str	r2, [r3, #16]
 800303c:	6a43      	ldr	r3, [r0, #36]	; 0x24
 800303e:	3301      	adds	r3, #1
 8003040:	6243      	str	r3, [r0, #36]	; 0x24
 8003042:	8d43      	ldrh	r3, [r0, #42]	; 0x2a
 8003044:	b29b      	uxth	r3, r3
 8003046:	3b01      	subs	r3, #1
 8003048:	b29b      	uxth	r3, r3
 800304a:	8543      	strh	r3, [r0, #42]	; 0x2a
 800304c:	4770      	bx	lr

0800304e <I2C_SlaveReceive_BTF>:
 800304e:	8d43      	ldrh	r3, [r0, #42]	; 0x2a
 8003050:	b29b      	uxth	r3, r3
 8003052:	b15b      	cbz	r3, 800306c <I2C_SlaveReceive_BTF+0x1e>
 8003054:	6803      	ldr	r3, [r0, #0]
 8003056:	691a      	ldr	r2, [r3, #16]
 8003058:	6a43      	ldr	r3, [r0, #36]	; 0x24
 800305a:	701a      	strb	r2, [r3, #0]
 800305c:	6a43      	ldr	r3, [r0, #36]	; 0x24
 800305e:	3301      	adds	r3, #1
 8003060:	6243      	str	r3, [r0, #36]	; 0x24
 8003062:	8d43      	ldrh	r3, [r0, #42]	; 0x2a
 8003064:	b29b      	uxth	r3, r3
 8003066:	3b01      	subs	r3, #1
 8003068:	b29b      	uxth	r3, r3
 800306a:	8543      	strh	r3, [r0, #42]	; 0x2a
 800306c:	4770      	bx	lr
	...

08003070 <I2C_WaitOnSTOPRequestThroughIT>:
 8003070:	b082      	sub	sp, #8
 8003072:	2300      	movs	r3, #0
 8003074:	9301      	str	r3, [sp, #4]
 8003076:	4b0e      	ldr	r3, [pc, #56]	; (80030b0 <I2C_WaitOnSTOPRequestThroughIT+0x40>)
 8003078:	681b      	ldr	r3, [r3, #0]
 800307a:	08db      	lsrs	r3, r3, #3
 800307c:	4a0d      	ldr	r2, [pc, #52]	; (80030b4 <I2C_WaitOnSTOPRequestThroughIT+0x44>)
 800307e:	fba2 2303 	umull	r2, r3, r2, r3
 8003082:	0a1b      	lsrs	r3, r3, #8
 8003084:	eb03 0383 	add.w	r3, r3, r3, lsl #2
 8003088:	9301      	str	r3, [sp, #4]
 800308a:	9b01      	ldr	r3, [sp, #4]
 800308c:	3b01      	subs	r3, #1
 800308e:	9301      	str	r3, [sp, #4]
 8003090:	9b01      	ldr	r3, [sp, #4]
 8003092:	b133      	cbz	r3, 80030a2 <I2C_WaitOnSTOPRequestThroughIT+0x32>
 8003094:	6803      	ldr	r3, [r0, #0]
 8003096:	681b      	ldr	r3, [r3, #0]
 8003098:	f413 7f00 	tst.w	r3, #512	; 0x200
 800309c:	d1f5      	bne.n	800308a <I2C_WaitOnSTOPRequestThroughIT+0x1a>
 800309e:	2000      	movs	r0, #0
 80030a0:	e004      	b.n	80030ac <I2C_WaitOnSTOPRequestThroughIT+0x3c>
 80030a2:	6c03      	ldr	r3, [r0, #64]	; 0x40
 80030a4:	f043 0320 	orr.w	r3, r3, #32
 80030a8:	6403      	str	r3, [r0, #64]	; 0x40
 80030aa:	2001      	movs	r0, #1
 80030ac:	b002      	add	sp, #8
 80030ae:	4770      	bx	lr
 80030b0:	20000008 	.word	0x20000008
 80030b4:	14f8b589 	.word	0x14f8b589

080030b8 <I2C_ConvertOtherXferOptions>:
 80030b8:	6ac3      	ldr	r3, [r0, #44]	; 0x2c
 80030ba:	f5b3 0f2a 	cmp.w	r3, #11141120	; 0xaa0000
 80030be:	d004      	beq.n	80030ca <I2C_ConvertOtherXferOptions+0x12>
 80030c0:	6ac3      	ldr	r3, [r0, #44]	; 0x2c
 80030c2:	f1b3 4f2a 	cmp.w	r3, #2852126720	; 0xaa000000
 80030c6:	d003      	beq.n	80030d0 <I2C_ConvertOtherXferOptions+0x18>
 80030c8:	4770      	bx	lr
 80030ca:	2301      	movs	r3, #1
 80030cc:	62c3      	str	r3, [r0, #44]	; 0x2c
 80030ce:	4770      	bx	lr
 80030d0:	2308      	movs	r3, #8
 80030d2:	62c3      	str	r3, [r0, #44]	; 0x2c
 80030d4:	e7f8      	b.n	80030c8 <I2C_ConvertOtherXferOptions+0x10>

080030d6 <I2C_WaitOnFlagUntilTimeout>:
 80030d6:	e92d 41f0 	stmdb	sp!, {r4, r5, r6, r7, r8, lr}
 80030da:	4607      	mov	r7, r0
 80030dc:	460d      	mov	r5, r1
 80030de:	4690      	mov	r8, r2
 80030e0:	461e      	mov	r6, r3
 80030e2:	e022      	b.n	800312a <I2C_WaitOnFlagUntilTimeout+0x54>
 80030e4:	f7fe ffe8 	bl	80020b8 <HAL_GetTick>
 80030e8:	9b06      	ldr	r3, [sp, #24]
 80030ea:	1ac0      	subs	r0, r0, r3
 80030ec:	42b0      	cmp	r0, r6
 80030ee:	d800      	bhi.n	80030f2 <I2C_WaitOnFlagUntilTimeout+0x1c>
 80030f0:	b9de      	cbnz	r6, 800312a <I2C_WaitOnFlagUntilTimeout+0x54>
 80030f2:	2300      	movs	r3, #0
 80030f4:	633b      	str	r3, [r7, #48]	; 0x30
 80030f6:	2220      	movs	r2, #32
 80030f8:	f887 203d 	strb.w	r2, [r7, #61]	; 0x3d
 80030fc:	f887 303e 	strb.w	r3, [r7, #62]	; 0x3e
 8003100:	6c3a      	ldr	r2, [r7, #64]	; 0x40
 8003102:	f042 0220 	orr.w	r2, r2, #32
 8003106:	643a      	str	r2, [r7, #64]	; 0x40
 8003108:	f887 303c 	strb.w	r3, [r7, #60]	; 0x3c
 800310c:	2001      	movs	r0, #1
 800310e:	e01a      	b.n	8003146 <I2C_WaitOnFlagUntilTimeout+0x70>
 8003110:	683b      	ldr	r3, [r7, #0]
 8003112:	699c      	ldr	r4, [r3, #24]
 8003114:	ea25 0404 	bic.w	r4, r5, r4
 8003118:	b2a4      	uxth	r4, r4
 800311a:	fab4 f484 	clz	r4, r4
 800311e:	0964      	lsrs	r4, r4, #5
 8003120:	45a0      	cmp	r8, r4
 8003122:	d10f      	bne.n	8003144 <I2C_WaitOnFlagUntilTimeout+0x6e>
 8003124:	f1b6 3fff 	cmp.w	r6, #4294967295
 8003128:	d1dc      	bne.n	80030e4 <I2C_WaitOnFlagUntilTimeout+0xe>
 800312a:	f3c5 4307 	ubfx	r3, r5, #16, #8
 800312e:	2b01      	cmp	r3, #1
 8003130:	d1ee      	bne.n	8003110 <I2C_WaitOnFlagUntilTimeout+0x3a>
 8003132:	683b      	ldr	r3, [r7, #0]
 8003134:	695c      	ldr	r4, [r3, #20]
 8003136:	ea25 0404 	bic.w	r4, r5, r4
 800313a:	b2a4      	uxth	r4, r4
 800313c:	fab4 f484 	clz	r4, r4
 8003140:	0964      	lsrs	r4, r4, #5
 8003142:	e7ed      	b.n	8003120 <I2C_WaitOnFlagUntilTimeout+0x4a>
 8003144:	2000      	movs	r0, #0
 8003146:	e8bd 81f0 	ldmia.w	sp!, {r4, r5, r6, r7, r8, pc}

0800314a <I2C_WaitOnMasterAddressFlagUntilTimeout>:
 800314a:	e92d 41f0 	stmdb	sp!, {r4, r5, r6, r7, r8, lr}
 800314e:	4605      	mov	r5, r0
 8003150:	460e      	mov	r6, r1
 8003152:	4617      	mov	r7, r2
 8003154:	4698      	mov	r8, r3
 8003156:	e03d      	b.n	80031d4 <I2C_WaitOnMasterAddressFlagUntilTimeout+0x8a>
 8003158:	681a      	ldr	r2, [r3, #0]
 800315a:	f442 7200 	orr.w	r2, r2, #512	; 0x200
 800315e:	601a      	str	r2, [r3, #0]
 8003160:	682b      	ldr	r3, [r5, #0]
 8003162:	f46f 6280 	mvn.w	r2, #1024	; 0x400
 8003166:	615a      	str	r2, [r3, #20]
 8003168:	2300      	movs	r3, #0
 800316a:	632b      	str	r3, [r5, #48]	; 0x30
 800316c:	2220      	movs	r2, #32
 800316e:	f885 203d 	strb.w	r2, [r5, #61]	; 0x3d
 8003172:	f885 303e 	strb.w	r3, [r5, #62]	; 0x3e
 8003176:	6c2a      	ldr	r2, [r5, #64]	; 0x40
 8003178:	f042 0204 	orr.w	r2, r2, #4
 800317c:	642a      	str	r2, [r5, #64]	; 0x40
 800317e:	f885 303c 	strb.w	r3, [r5, #60]	; 0x3c
 8003182:	2001      	movs	r0, #1
 8003184:	e034      	b.n	80031f0 <I2C_WaitOnMasterAddressFlagUntilTimeout+0xa6>
 8003186:	f7fe ff97 	bl	80020b8 <HAL_GetTick>
 800318a:	eba0 0008 	sub.w	r0, r0, r8
 800318e:	42b8      	cmp	r0, r7
 8003190:	d800      	bhi.n	8003194 <I2C_WaitOnMasterAddressFlagUntilTimeout+0x4a>
 8003192:	b9ff      	cbnz	r7, 80031d4 <I2C_WaitOnMasterAddressFlagUntilTimeout+0x8a>
 8003194:	2300      	movs	r3, #0
 8003196:	632b      	str	r3, [r5, #48]	; 0x30
 8003198:	2220      	movs	r2, #32
 800319a:	f885 203d 	strb.w	r2, [r5, #61]	; 0x3d
 800319e:	f885 303e 	strb.w	r3, [r5, #62]	; 0x3e
 80031a2:	6c2a      	ldr	r2, [r5, #64]	; 0x40
 80031a4:	f042 0220 	orr.w	r2, r2, #32
 80031a8:	642a      	str	r2, [r5, #64]	; 0x40
 80031aa:	f885 303c 	strb.w	r3, [r5, #60]	; 0x3c
 80031ae:	2001      	movs	r0, #1
 80031b0:	e01e      	b.n	80031f0 <I2C_WaitOnMasterAddressFlagUntilTimeout+0xa6>
 80031b2:	682b      	ldr	r3, [r5, #0]
 80031b4:	699c      	ldr	r4, [r3, #24]
 80031b6:	ea26 0404 	bic.w	r4, r6, r4
 80031ba:	b2a4      	uxth	r4, r4
 80031bc:	3c00      	subs	r4, #0
 80031be:	bf18      	it	ne
 80031c0:	2401      	movne	r4, #1
 80031c2:	b1a4      	cbz	r4, 80031ee <I2C_WaitOnMasterAddressFlagUntilTimeout+0xa4>
 80031c4:	682b      	ldr	r3, [r5, #0]
 80031c6:	695a      	ldr	r2, [r3, #20]
 80031c8:	f412 6f80 	tst.w	r2, #1024	; 0x400
 80031cc:	d1c4      	bne.n	8003158 <I2C_WaitOnMasterAddressFlagUntilTimeout+0xe>
 80031ce:	f1b7 3fff 	cmp.w	r7, #4294967295
 80031d2:	d1d8      	bne.n	8003186 <I2C_WaitOnMasterAddressFlagUntilTimeout+0x3c>
 80031d4:	f3c6 4307 	ubfx	r3, r6, #16, #8
 80031d8:	2b01      	cmp	r3, #1
 80031da:	d1ea      	bne.n	80031b2 <I2C_WaitOnMasterAddressFlagUntilTimeout+0x68>
 80031dc:	682b      	ldr	r3, [r5, #0]
 80031de:	695c      	ldr	r4, [r3, #20]
 80031e0:	ea26 0404 	bic.w	r4, r6, r4
 80031e4:	b2a4      	uxth	r4, r4
 80031e6:	3c00      	subs	r4, #0
 80031e8:	bf18      	it	ne
 80031ea:	2401      	movne	r4, #1
 80031ec:	e7e9      	b.n	80031c2 <I2C_WaitOnMasterAddressFlagUntilTimeout+0x78>
 80031ee:	2000      	movs	r0, #0
 80031f0:	e8bd 81f0 	ldmia.w	sp!, {r4, r5, r6, r7, r8, pc}

080031f4 <I2C_MasterRequestRead>:
 80031f4:	e92d 41f0 	stmdb	sp!, {r4, r5, r6, r7, r8, lr}
 80031f8:	b084      	sub	sp, #16
 80031fa:	4604      	mov	r4, r0
 80031fc:	460d      	mov	r5, r1
 80031fe:	4616      	mov	r6, r2
 8003200:	461f      	mov	r7, r3
 8003202:	6ac2      	ldr	r2, [r0, #44]	; 0x2c
 8003204:	6801      	ldr	r1, [r0, #0]
 8003206:	680b      	ldr	r3, [r1, #0]
 8003208:	f443 6380 	orr.w	r3, r3, #1024	; 0x400
 800320c:	600b      	str	r3, [r1, #0]
 800320e:	2a08      	cmp	r2, #8
 8003210:	d00d      	beq.n	800322e <I2C_MasterRequestRead+0x3a>
 8003212:	2a01      	cmp	r2, #1
 8003214:	d00b      	beq.n	800322e <I2C_MasterRequestRead+0x3a>
 8003216:	f512 3f80 	cmn.w	r2, #65536	; 0x10000
 800321a:	d008      	beq.n	800322e <I2C_MasterRequestRead+0x3a>
 800321c:	6b03      	ldr	r3, [r0, #48]	; 0x30
 800321e:	2b11      	cmp	r3, #17
 8003220:	d10a      	bne.n	8003238 <I2C_MasterRequestRead+0x44>
 8003222:	6802      	ldr	r2, [r0, #0]
 8003224:	6813      	ldr	r3, [r2, #0]
 8003226:	f443 7380 	orr.w	r3, r3, #256	; 0x100
 800322a:	6013      	str	r3, [r2, #0]
 800322c:	e004      	b.n	8003238 <I2C_MasterRequestRead+0x44>
 800322e:	6822      	ldr	r2, [r4, #0]
 8003230:	6813      	ldr	r3, [r2, #0]
 8003232:	f443 7380 	orr.w	r3, r3, #256	; 0x100
 8003236:	6013      	str	r3, [r2, #0]
 8003238:	9700      	str	r7, [sp, #0]
 800323a:	4633      	mov	r3, r6
 800323c:	2200      	movs	r2, #0
 800323e:	f04f 1101 	mov.w	r1, #65537	; 0x10001
 8003242:	4620      	mov	r0, r4
 8003244:	f7ff ff47 	bl	80030d6 <I2C_WaitOnFlagUntilTimeout>
 8003248:	b998      	cbnz	r0, 8003272 <I2C_MasterRequestRead+0x7e>
 800324a:	6923      	ldr	r3, [r4, #16]
 800324c:	f5b3 4f80 	cmp.w	r3, #16384	; 0x4000
 8003250:	d119      	bne.n	8003286 <I2C_MasterRequestRead+0x92>
 8003252:	6823      	ldr	r3, [r4, #0]
 8003254:	f045 0501 	orr.w	r5, r5, #1
 8003258:	b2ed      	uxtb	r5, r5
 800325a:	611d      	str	r5, [r3, #16]
 800325c:	463b      	mov	r3, r7
 800325e:	4632      	mov	r2, r6
 8003260:	492a      	ldr	r1, [pc, #168]	; (800330c <I2C_MasterRequestRead+0x118>)
 8003262:	4620      	mov	r0, r4
 8003264:	f7ff ff71 	bl	800314a <I2C_WaitOnMasterAddressFlagUntilTimeout>
 8003268:	2800      	cmp	r0, #0
 800326a:	d14c      	bne.n	8003306 <I2C_MasterRequestRead+0x112>
 800326c:	b004      	add	sp, #16
 800326e:	e8bd 81f0 	ldmia.w	sp!, {r4, r5, r6, r7, r8, pc}
 8003272:	6823      	ldr	r3, [r4, #0]
 8003274:	681b      	ldr	r3, [r3, #0]
 8003276:	f413 7f80 	tst.w	r3, #256	; 0x100
 800327a:	d002      	beq.n	8003282 <I2C_MasterRequestRead+0x8e>
 800327c:	f44f 7300 	mov.w	r3, #512	; 0x200
 8003280:	6423      	str	r3, [r4, #64]	; 0x40
 8003282:	2003      	movs	r0, #3
 8003284:	e7f2      	b.n	800326c <I2C_MasterRequestRead+0x78>
 8003286:	ea4f 18e5 	mov.w	r8, r5, asr #7
 800328a:	f008 0806 	and.w	r8, r8, #6
 800328e:	6823      	ldr	r3, [r4, #0]
 8003290:	f048 02f0 	orr.w	r2, r8, #240	; 0xf0
 8003294:	611a      	str	r2, [r3, #16]
 8003296:	463b      	mov	r3, r7
 8003298:	4632      	mov	r2, r6
 800329a:	491d      	ldr	r1, [pc, #116]	; (8003310 <I2C_MasterRequestRead+0x11c>)
 800329c:	4620      	mov	r0, r4
 800329e:	f7ff ff54 	bl	800314a <I2C_WaitOnMasterAddressFlagUntilTimeout>
 80032a2:	b108      	cbz	r0, 80032a8 <I2C_MasterRequestRead+0xb4>
 80032a4:	2001      	movs	r0, #1
 80032a6:	e7e1      	b.n	800326c <I2C_MasterRequestRead+0x78>
 80032a8:	6823      	ldr	r3, [r4, #0]
 80032aa:	b2ed      	uxtb	r5, r5
 80032ac:	611d      	str	r5, [r3, #16]
 80032ae:	463b      	mov	r3, r7
 80032b0:	4632      	mov	r2, r6
 80032b2:	4916      	ldr	r1, [pc, #88]	; (800330c <I2C_MasterRequestRead+0x118>)
 80032b4:	4620      	mov	r0, r4
 80032b6:	f7ff ff48 	bl	800314a <I2C_WaitOnMasterAddressFlagUntilTimeout>
 80032ba:	b108      	cbz	r0, 80032c0 <I2C_MasterRequestRead+0xcc>
 80032bc:	2001      	movs	r0, #1
 80032be:	e7d5      	b.n	800326c <I2C_MasterRequestRead+0x78>
 80032c0:	2200      	movs	r2, #0
 80032c2:	9203      	str	r2, [sp, #12]
 80032c4:	6823      	ldr	r3, [r4, #0]
 80032c6:	6959      	ldr	r1, [r3, #20]
 80032c8:	9103      	str	r1, [sp, #12]
 80032ca:	6999      	ldr	r1, [r3, #24]
 80032cc:	9103      	str	r1, [sp, #12]
 80032ce:	9903      	ldr	r1, [sp, #12]
 80032d0:	6819      	ldr	r1, [r3, #0]
 80032d2:	f441 7180 	orr.w	r1, r1, #256	; 0x100
 80032d6:	6019      	str	r1, [r3, #0]
 80032d8:	9700      	str	r7, [sp, #0]
 80032da:	4633      	mov	r3, r6
 80032dc:	f04f 1101 	mov.w	r1, #65537	; 0x10001
 80032e0:	4620      	mov	r0, r4
 80032e2:	f7ff fef8 	bl	80030d6 <I2C_WaitOnFlagUntilTimeout>
 80032e6:	b920      	cbnz	r0, 80032f2 <I2C_MasterRequestRead+0xfe>
 80032e8:	6822      	ldr	r2, [r4, #0]
 80032ea:	f048 03f1 	orr.w	r3, r8, #241	; 0xf1
 80032ee:	6113      	str	r3, [r2, #16]
 80032f0:	e7b4      	b.n	800325c <I2C_MasterRequestRead+0x68>
 80032f2:	6823      	ldr	r3, [r4, #0]
 80032f4:	681b      	ldr	r3, [r3, #0]
 80032f6:	f413 7f80 	tst.w	r3, #256	; 0x100
 80032fa:	d002      	beq.n	8003302 <I2C_MasterRequestRead+0x10e>
 80032fc:	f44f 7300 	mov.w	r3, #512	; 0x200
 8003300:	6423      	str	r3, [r4, #64]	; 0x40
 8003302:	2003      	movs	r0, #3
 8003304:	e7b2      	b.n	800326c <I2C_MasterRequestRead+0x78>
 8003306:	2001      	movs	r0, #1
 8003308:	e7b0      	b.n	800326c <I2C_MasterRequestRead+0x78>
 800330a:	bf00      	nop
 800330c:	00010002 	.word	0x00010002
 8003310:	00010008 	.word	0x00010008

08003314 <I2C_WaitOnRXNEFlagUntilTimeout>:
 8003314:	b570      	push	{r4, r5, r6, lr}
 8003316:	4605      	mov	r5, r0
 8003318:	460c      	mov	r4, r1
 800331a:	4616      	mov	r6, r2
 800331c:	682b      	ldr	r3, [r5, #0]
 800331e:	6959      	ldr	r1, [r3, #20]
 8003320:	f011 0f40 	tst.w	r1, #64	; 0x40
 8003324:	d129      	bne.n	800337a <I2C_WaitOnRXNEFlagUntilTimeout+0x66>
 8003326:	6959      	ldr	r1, [r3, #20]
 8003328:	f011 0f10 	tst.w	r1, #16
 800332c:	d115      	bne.n	800335a <I2C_WaitOnRXNEFlagUntilTimeout+0x46>
 800332e:	f7fe fec3 	bl	80020b8 <HAL_GetTick>
 8003332:	1b80      	subs	r0, r0, r6
 8003334:	42a0      	cmp	r0, r4
 8003336:	d801      	bhi.n	800333c <I2C_WaitOnRXNEFlagUntilTimeout+0x28>
 8003338:	2c00      	cmp	r4, #0
 800333a:	d1ef      	bne.n	800331c <I2C_WaitOnRXNEFlagUntilTimeout+0x8>
 800333c:	2300      	movs	r3, #0
 800333e:	632b      	str	r3, [r5, #48]	; 0x30
 8003340:	2220      	movs	r2, #32
 8003342:	f885 203d 	strb.w	r2, [r5, #61]	; 0x3d
 8003346:	f885 303e 	strb.w	r3, [r5, #62]	; 0x3e
 800334a:	6c2a      	ldr	r2, [r5, #64]	; 0x40
 800334c:	f042 0220 	orr.w	r2, r2, #32
 8003350:	642a      	str	r2, [r5, #64]	; 0x40
 8003352:	f885 303c 	strb.w	r3, [r5, #60]	; 0x3c
 8003356:	2001      	movs	r0, #1
 8003358:	bd70      	pop	{r4, r5, r6, pc}
 800335a:	f06f 0210 	mvn.w	r2, #16
 800335e:	615a      	str	r2, [r3, #20]
 8003360:	2300      	movs	r3, #0
 8003362:	632b      	str	r3, [r5, #48]	; 0x30
 8003364:	2220      	movs	r2, #32
 8003366:	f885 203d 	strb.w	r2, [r5, #61]	; 0x3d
 800336a:	f885 303e 	strb.w	r3, [r5, #62]	; 0x3e
 800336e:	6c2a      	ldr	r2, [r5, #64]	; 0x40
 8003370:	642a      	str	r2, [r5, #64]	; 0x40
 8003372:	f885 303c 	strb.w	r3, [r5, #60]	; 0x3c
 8003376:	2001      	movs	r0, #1
 8003378:	e7ee      	b.n	8003358 <I2C_WaitOnRXNEFlagUntilTimeout+0x44>
 800337a:	2000      	movs	r0, #0
 800337c:	e7ec      	b.n	8003358 <I2C_WaitOnRXNEFlagUntilTimeout+0x44>
	...

08003380 <HAL_I2C_Init>:
 8003380:	2800      	cmp	r0, #0
 8003382:	f000 80cc 	beq.w	800351e <HAL_I2C_Init+0x19e>
 8003386:	b5f8      	push	{r3, r4, r5, r6, r7, lr}
 8003388:	4604      	mov	r4, r0
 800338a:	f890 303d 	ldrb.w	r3, [r0, #61]	; 0x3d
 800338e:	2b00      	cmp	r3, #0
 8003390:	d077      	beq.n	8003482 <HAL_I2C_Init+0x102>
 8003392:	2324      	movs	r3, #36	; 0x24
 8003394:	f884 303d 	strb.w	r3, [r4, #61]	; 0x3d
 8003398:	6822      	ldr	r2, [r4, #0]
 800339a:	6813      	ldr	r3, [r2, #0]
 800339c:	f023 0301 	bic.w	r3, r3, #1
 80033a0:	6013      	str	r3, [r2, #0]
 80033a2:	6822      	ldr	r2, [r4, #0]
 80033a4:	6813      	ldr	r3, [r2, #0]
 80033a6:	f443 4300 	orr.w	r3, r3, #32768	; 0x8000
 80033aa:	6013      	str	r3, [r2, #0]
 80033ac:	6822      	ldr	r2, [r4, #0]
 80033ae:	6813      	ldr	r3, [r2, #0]
 80033b0:	f423 4300 	bic.w	r3, r3, #32768	; 0x8000
 80033b4:	6013      	str	r3, [r2, #0]
 80033b6:	f002 fbf9 	bl	8005bac <HAL_RCC_GetPCLK1Freq>
 80033ba:	6862      	ldr	r2, [r4, #4]
 80033bc:	4b5a      	ldr	r3, [pc, #360]	; (8003528 <HAL_I2C_Init+0x1a8>)
 80033be:	429a      	cmp	r2, r3
 80033c0:	d864      	bhi.n	800348c <HAL_I2C_Init+0x10c>
 80033c2:	4b5a      	ldr	r3, [pc, #360]	; (800352c <HAL_I2C_Init+0x1ac>)
 80033c4:	4298      	cmp	r0, r3
 80033c6:	bf8c      	ite	hi
 80033c8:	2300      	movhi	r3, #0
 80033ca:	2301      	movls	r3, #1
 80033cc:	2b00      	cmp	r3, #0
 80033ce:	f040 80a8 	bne.w	8003522 <HAL_I2C_Init+0x1a2>
 80033d2:	4d57      	ldr	r5, [pc, #348]	; (8003530 <HAL_I2C_Init+0x1b0>)
 80033d4:	fba5 3500 	umull	r3, r5, r5, r0
 80033d8:	0caf      	lsrs	r7, r5, #18
 80033da:	6826      	ldr	r6, [r4, #0]
 80033dc:	6871      	ldr	r1, [r6, #4]
 80033de:	f021 013f 	bic.w	r1, r1, #63	; 0x3f
 80033e2:	ea41 4195 	orr.w	r1, r1, r5, lsr #18
 80033e6:	6071      	str	r1, [r6, #4]
 80033e8:	6821      	ldr	r1, [r4, #0]
 80033ea:	6a0b      	ldr	r3, [r1, #32]
 80033ec:	f023 033f 	bic.w	r3, r3, #63	; 0x3f
 80033f0:	6865      	ldr	r5, [r4, #4]
 80033f2:	4a4d      	ldr	r2, [pc, #308]	; (8003528 <HAL_I2C_Init+0x1a8>)
 80033f4:	4295      	cmp	r5, r2
 80033f6:	d84f      	bhi.n	8003498 <HAL_I2C_Init+0x118>
 80033f8:	1c7a      	adds	r2, r7, #1
 80033fa:	4313      	orrs	r3, r2
 80033fc:	620b      	str	r3, [r1, #32]
 80033fe:	6825      	ldr	r5, [r4, #0]
 8003400:	69e9      	ldr	r1, [r5, #28]
 8003402:	f421 414f 	bic.w	r1, r1, #52992	; 0xcf00
 8003406:	f021 01ff 	bic.w	r1, r1, #255	; 0xff
 800340a:	6863      	ldr	r3, [r4, #4]
 800340c:	4a46      	ldr	r2, [pc, #280]	; (8003528 <HAL_I2C_Init+0x1a8>)
 800340e:	4293      	cmp	r3, r2
 8003410:	d84c      	bhi.n	80034ac <HAL_I2C_Init+0x12c>
 8003412:	3801      	subs	r0, #1
 8003414:	005b      	lsls	r3, r3, #1
 8003416:	fbb0 f0f3 	udiv	r0, r0, r3
 800341a:	3001      	adds	r0, #1
 800341c:	f640 73fc 	movw	r3, #4092	; 0xffc
 8003420:	4218      	tst	r0, r3
 8003422:	d078      	beq.n	8003516 <HAL_I2C_Init+0x196>
 8003424:	f3c0 030b 	ubfx	r3, r0, #0, #12
 8003428:	430b      	orrs	r3, r1
 800342a:	61eb      	str	r3, [r5, #28]
 800342c:	6821      	ldr	r1, [r4, #0]
 800342e:	680b      	ldr	r3, [r1, #0]
 8003430:	f023 03c0 	bic.w	r3, r3, #192	; 0xc0
 8003434:	69e2      	ldr	r2, [r4, #28]
 8003436:	6a20      	ldr	r0, [r4, #32]
 8003438:	4302      	orrs	r2, r0
 800343a:	4313      	orrs	r3, r2
 800343c:	600b      	str	r3, [r1, #0]
 800343e:	6821      	ldr	r1, [r4, #0]
 8003440:	688b      	ldr	r3, [r1, #8]
 8003442:	f423 4303 	bic.w	r3, r3, #33536	; 0x8300
 8003446:	f023 03ff 	bic.w	r3, r3, #255	; 0xff
 800344a:	6922      	ldr	r2, [r4, #16]
 800344c:	68e0      	ldr	r0, [r4, #12]
 800344e:	4302      	orrs	r2, r0
 8003450:	4313      	orrs	r3, r2
 8003452:	608b      	str	r3, [r1, #8]
 8003454:	6821      	ldr	r1, [r4, #0]
 8003456:	68cb      	ldr	r3, [r1, #12]
 8003458:	f023 03ff 	bic.w	r3, r3, #255	; 0xff
 800345c:	6962      	ldr	r2, [r4, #20]
 800345e:	69a0      	ldr	r0, [r4, #24]
 8003460:	4302      	orrs	r2, r0
 8003462:	4313      	orrs	r3, r2
 8003464:	60cb      	str	r3, [r1, #12]
 8003466:	6822      	ldr	r2, [r4, #0]
 8003468:	6813      	ldr	r3, [r2, #0]
 800346a:	f043 0301 	orr.w	r3, r3, #1
 800346e:	6013      	str	r3, [r2, #0]
 8003470:	2000      	movs	r0, #0
 8003472:	6420      	str	r0, [r4, #64]	; 0x40
 8003474:	2320      	movs	r3, #32
 8003476:	f884 303d 	strb.w	r3, [r4, #61]	; 0x3d
 800347a:	6320      	str	r0, [r4, #48]	; 0x30
 800347c:	f884 003e 	strb.w	r0, [r4, #62]	; 0x3e
 8003480:	bdf8      	pop	{r3, r4, r5, r6, r7, pc}
 8003482:	f880 303c 	strb.w	r3, [r0, #60]	; 0x3c
 8003486:	f7fe fb4f 	bl	8001b28 <HAL_I2C_MspInit>
 800348a:	e782      	b.n	8003392 <HAL_I2C_Init+0x12>
 800348c:	4b29      	ldr	r3, [pc, #164]	; (8003534 <HAL_I2C_Init+0x1b4>)
 800348e:	4298      	cmp	r0, r3
 8003490:	bf8c      	ite	hi
 8003492:	2300      	movhi	r3, #0
 8003494:	2301      	movls	r3, #1
 8003496:	e799      	b.n	80033cc <HAL_I2C_Init+0x4c>
 8003498:	f44f 7296 	mov.w	r2, #300	; 0x12c
 800349c:	fb02 f207 	mul.w	r2, r2, r7
 80034a0:	4d25      	ldr	r5, [pc, #148]	; (8003538 <HAL_I2C_Init+0x1b8>)
 80034a2:	fba5 5202 	umull	r5, r2, r5, r2
 80034a6:	0992      	lsrs	r2, r2, #6
 80034a8:	3201      	adds	r2, #1
 80034aa:	e7a6      	b.n	80033fa <HAL_I2C_Init+0x7a>
 80034ac:	68a2      	ldr	r2, [r4, #8]
 80034ae:	b9ba      	cbnz	r2, 80034e0 <HAL_I2C_Init+0x160>
 80034b0:	1e46      	subs	r6, r0, #1
 80034b2:	eb03 0743 	add.w	r7, r3, r3, lsl #1
 80034b6:	fbb6 f6f7 	udiv	r6, r6, r7
 80034ba:	3601      	adds	r6, #1
 80034bc:	f3c6 060b 	ubfx	r6, r6, #0, #12
 80034c0:	fab6 f686 	clz	r6, r6
 80034c4:	0976      	lsrs	r6, r6, #5
 80034c6:	bb46      	cbnz	r6, 800351a <HAL_I2C_Init+0x19a>
 80034c8:	b9c2      	cbnz	r2, 80034fc <HAL_I2C_Init+0x17c>
 80034ca:	1e42      	subs	r2, r0, #1
 80034cc:	eb03 0343 	add.w	r3, r3, r3, lsl #1
 80034d0:	fbb2 f2f3 	udiv	r2, r2, r3
 80034d4:	3201      	adds	r2, #1
 80034d6:	f3c2 020b 	ubfx	r2, r2, #0, #12
 80034da:	f442 4300 	orr.w	r3, r2, #32768	; 0x8000
 80034de:	e7a3      	b.n	8003428 <HAL_I2C_Init+0xa8>
 80034e0:	1e46      	subs	r6, r0, #1
 80034e2:	eb03 0783 	add.w	r7, r3, r3, lsl #2
 80034e6:	eb07 0787 	add.w	r7, r7, r7, lsl #2
 80034ea:	fbb6 f6f7 	udiv	r6, r6, r7
 80034ee:	3601      	adds	r6, #1
 80034f0:	f3c6 060b 	ubfx	r6, r6, #0, #12
 80034f4:	fab6 f686 	clz	r6, r6
 80034f8:	0976      	lsrs	r6, r6, #5
 80034fa:	e7e4      	b.n	80034c6 <HAL_I2C_Init+0x146>
 80034fc:	1e42      	subs	r2, r0, #1
 80034fe:	eb03 0383 	add.w	r3, r3, r3, lsl #2
 8003502:	eb03 0383 	add.w	r3, r3, r3, lsl #2
 8003506:	fbb2 f2f3 	udiv	r2, r2, r3
 800350a:	3201      	adds	r2, #1
 800350c:	f3c2 020b 	ubfx	r2, r2, #0, #12
 8003510:	f442 4340 	orr.w	r3, r2, #49152	; 0xc000
 8003514:	e788      	b.n	8003428 <HAL_I2C_Init+0xa8>
 8003516:	2304      	movs	r3, #4
 8003518:	e786      	b.n	8003428 <HAL_I2C_Init+0xa8>
 800351a:	2301      	movs	r3, #1
 800351c:	e784      	b.n	8003428 <HAL_I2C_Init+0xa8>
 800351e:	2001      	movs	r0, #1
 8003520:	4770      	bx	lr
 8003522:	2001      	movs	r0, #1
 8003524:	e7ac      	b.n	8003480 <HAL_I2C_Init+0x100>
 8003526:	bf00      	nop
 8003528:	000186a0 	.word	0x000186a0
 800352c:	001e847f 	.word	0x001e847f
 8003530:	431bde83 	.word	0x431bde83
 8003534:	003d08ff 	.word	0x003d08ff
 8003538:	10624dd3 	.word	0x10624dd3

0800353c <HAL_I2C_Master_Receive>:
 800353c:	e92d 43f0 	stmdb	sp!, {r4, r5, r6, r7, r8, r9, lr}
 8003540:	b089      	sub	sp, #36	; 0x24
 8003542:	4604      	mov	r4, r0
 8003544:	460f      	mov	r7, r1
 8003546:	4691      	mov	r9, r2
 8003548:	4698      	mov	r8, r3
 800354a:	9e10      	ldr	r6, [sp, #64]	; 0x40
 800354c:	2300      	movs	r3, #0
 800354e:	9307      	str	r3, [sp, #28]
 8003550:	f7fe fdb2 	bl	80020b8 <HAL_GetTick>
 8003554:	4605      	mov	r5, r0
 8003556:	f894 003d 	ldrb.w	r0, [r4, #61]	; 0x3d
 800355a:	b2c0      	uxtb	r0, r0
 800355c:	2820      	cmp	r0, #32
 800355e:	d004      	beq.n	800356a <HAL_I2C_Master_Receive+0x2e>
 8003560:	2702      	movs	r7, #2
 8003562:	4638      	mov	r0, r7
 8003564:	b009      	add	sp, #36	; 0x24
 8003566:	e8bd 83f0 	ldmia.w	sp!, {r4, r5, r6, r7, r8, r9, pc}
 800356a:	9500      	str	r5, [sp, #0]
 800356c:	2319      	movs	r3, #25
 800356e:	2201      	movs	r2, #1
 8003570:	499d      	ldr	r1, [pc, #628]	; (80037e8 <HAL_I2C_Master_Receive+0x2ac>)
 8003572:	4620      	mov	r0, r4
 8003574:	f7ff fdaf 	bl	80030d6 <I2C_WaitOnFlagUntilTimeout>
 8003578:	2800      	cmp	r0, #0
 800357a:	f040 8172 	bne.w	8003862 <HAL_I2C_Master_Receive+0x326>
 800357e:	f894 303c 	ldrb.w	r3, [r4, #60]	; 0x3c
 8003582:	2b01      	cmp	r3, #1
 8003584:	f000 816f 	beq.w	8003866 <HAL_I2C_Master_Receive+0x32a>
 8003588:	2301      	movs	r3, #1
 800358a:	f884 303c 	strb.w	r3, [r4, #60]	; 0x3c
 800358e:	6823      	ldr	r3, [r4, #0]
 8003590:	681a      	ldr	r2, [r3, #0]
 8003592:	f012 0f01 	tst.w	r2, #1
 8003596:	d103      	bne.n	80035a0 <HAL_I2C_Master_Receive+0x64>
 8003598:	681a      	ldr	r2, [r3, #0]
 800359a:	f042 0201 	orr.w	r2, r2, #1
 800359e:	601a      	str	r2, [r3, #0]
 80035a0:	6822      	ldr	r2, [r4, #0]
 80035a2:	6813      	ldr	r3, [r2, #0]
 80035a4:	f423 6300 	bic.w	r3, r3, #2048	; 0x800
 80035a8:	6013      	str	r3, [r2, #0]
 80035aa:	2322      	movs	r3, #34	; 0x22
 80035ac:	f884 303d 	strb.w	r3, [r4, #61]	; 0x3d
 80035b0:	2310      	movs	r3, #16
 80035b2:	f884 303e 	strb.w	r3, [r4, #62]	; 0x3e
 80035b6:	2300      	movs	r3, #0
 80035b8:	6423      	str	r3, [r4, #64]	; 0x40
 80035ba:	f8c4 9024 	str.w	r9, [r4, #36]	; 0x24
 80035be:	f8a4 802a 	strh.w	r8, [r4, #42]	; 0x2a
 80035c2:	8d63      	ldrh	r3, [r4, #42]	; 0x2a
 80035c4:	8523      	strh	r3, [r4, #40]	; 0x28
 80035c6:	4b89      	ldr	r3, [pc, #548]	; (80037ec <HAL_I2C_Master_Receive+0x2b0>)
 80035c8:	62e3      	str	r3, [r4, #44]	; 0x2c
 80035ca:	462b      	mov	r3, r5
 80035cc:	4632      	mov	r2, r6
 80035ce:	4639      	mov	r1, r7
 80035d0:	4620      	mov	r0, r4
 80035d2:	f7ff fe0f 	bl	80031f4 <I2C_MasterRequestRead>
 80035d6:	4607      	mov	r7, r0
 80035d8:	2800      	cmp	r0, #0
 80035da:	f040 8146 	bne.w	800386a <HAL_I2C_Master_Receive+0x32e>
 80035de:	8d23      	ldrh	r3, [r4, #40]	; 0x28
 80035e0:	b95b      	cbnz	r3, 80035fa <HAL_I2C_Master_Receive+0xbe>
 80035e2:	9303      	str	r3, [sp, #12]
 80035e4:	6823      	ldr	r3, [r4, #0]
 80035e6:	695a      	ldr	r2, [r3, #20]
 80035e8:	9203      	str	r2, [sp, #12]
 80035ea:	699a      	ldr	r2, [r3, #24]
 80035ec:	9203      	str	r2, [sp, #12]
 80035ee:	9a03      	ldr	r2, [sp, #12]
 80035f0:	681a      	ldr	r2, [r3, #0]
 80035f2:	f442 7200 	orr.w	r2, r2, #512	; 0x200
 80035f6:	601a      	str	r2, [r3, #0]
 80035f8:	e076      	b.n	80036e8 <HAL_I2C_Master_Receive+0x1ac>
 80035fa:	2b01      	cmp	r3, #1
 80035fc:	d00f      	beq.n	800361e <HAL_I2C_Master_Receive+0xe2>
 80035fe:	2b02      	cmp	r3, #2
 8003600:	d021      	beq.n	8003646 <HAL_I2C_Master_Receive+0x10a>
 8003602:	6822      	ldr	r2, [r4, #0]
 8003604:	6813      	ldr	r3, [r2, #0]
 8003606:	f443 6380 	orr.w	r3, r3, #1024	; 0x400
 800360a:	6013      	str	r3, [r2, #0]
 800360c:	2300      	movs	r3, #0
 800360e:	9306      	str	r3, [sp, #24]
 8003610:	6823      	ldr	r3, [r4, #0]
 8003612:	695a      	ldr	r2, [r3, #20]
 8003614:	9206      	str	r2, [sp, #24]
 8003616:	699b      	ldr	r3, [r3, #24]
 8003618:	9306      	str	r3, [sp, #24]
 800361a:	9b06      	ldr	r3, [sp, #24]
 800361c:	e064      	b.n	80036e8 <HAL_I2C_Master_Receive+0x1ac>
 800361e:	6822      	ldr	r2, [r4, #0]
 8003620:	6813      	ldr	r3, [r2, #0]
 8003622:	f423 6380 	bic.w	r3, r3, #1024	; 0x400
 8003626:	6013      	str	r3, [r2, #0]
 8003628:	b672      	cpsid	i
 800362a:	2300      	movs	r3, #0
 800362c:	9304      	str	r3, [sp, #16]
 800362e:	6823      	ldr	r3, [r4, #0]
 8003630:	695a      	ldr	r2, [r3, #20]
 8003632:	9204      	str	r2, [sp, #16]
 8003634:	699a      	ldr	r2, [r3, #24]
 8003636:	9204      	str	r2, [sp, #16]
 8003638:	9a04      	ldr	r2, [sp, #16]
 800363a:	681a      	ldr	r2, [r3, #0]
 800363c:	f442 7200 	orr.w	r2, r2, #512	; 0x200
 8003640:	601a      	str	r2, [r3, #0]
 8003642:	b662      	cpsie	i
 8003644:	e050      	b.n	80036e8 <HAL_I2C_Master_Receive+0x1ac>
 8003646:	6822      	ldr	r2, [r4, #0]
 8003648:	6813      	ldr	r3, [r2, #0]
 800364a:	f443 6300 	orr.w	r3, r3, #2048	; 0x800
 800364e:	6013      	str	r3, [r2, #0]
 8003650:	b672      	cpsid	i
 8003652:	2300      	movs	r3, #0
 8003654:	9305      	str	r3, [sp, #20]
 8003656:	6823      	ldr	r3, [r4, #0]
 8003658:	695a      	ldr	r2, [r3, #20]
 800365a:	9205      	str	r2, [sp, #20]
 800365c:	699a      	ldr	r2, [r3, #24]
 800365e:	9205      	str	r2, [sp, #20]
 8003660:	9a05      	ldr	r2, [sp, #20]
 8003662:	681a      	ldr	r2, [r3, #0]
 8003664:	f422 6280 	bic.w	r2, r2, #1024	; 0x400
 8003668:	601a      	str	r2, [r3, #0]
 800366a:	b662      	cpsie	i
 800366c:	e03c      	b.n	80036e8 <HAL_I2C_Master_Receive+0x1ac>
 800366e:	462a      	mov	r2, r5
 8003670:	4631      	mov	r1, r6
 8003672:	4620      	mov	r0, r4
 8003674:	f7ff fe4e 	bl	8003314 <I2C_WaitOnRXNEFlagUntilTimeout>
 8003678:	2800      	cmp	r0, #0
 800367a:	f040 80f8 	bne.w	800386e <HAL_I2C_Master_Receive+0x332>
 800367e:	6823      	ldr	r3, [r4, #0]
 8003680:	691a      	ldr	r2, [r3, #16]
 8003682:	6a63      	ldr	r3, [r4, #36]	; 0x24
 8003684:	701a      	strb	r2, [r3, #0]
 8003686:	6a63      	ldr	r3, [r4, #36]	; 0x24
 8003688:	3301      	adds	r3, #1
 800368a:	6263      	str	r3, [r4, #36]	; 0x24
 800368c:	8d23      	ldrh	r3, [r4, #40]	; 0x28
 800368e:	3b01      	subs	r3, #1
 8003690:	8523      	strh	r3, [r4, #40]	; 0x28
 8003692:	8d63      	ldrh	r3, [r4, #42]	; 0x2a
 8003694:	b29b      	uxth	r3, r3
 8003696:	3b01      	subs	r3, #1
 8003698:	b29b      	uxth	r3, r3
 800369a:	8563      	strh	r3, [r4, #42]	; 0x2a
 800369c:	e024      	b.n	80036e8 <HAL_I2C_Master_Receive+0x1ac>
 800369e:	b672      	cpsid	i
 80036a0:	6822      	ldr	r2, [r4, #0]
 80036a2:	6813      	ldr	r3, [r2, #0]
 80036a4:	f443 7300 	orr.w	r3, r3, #512	; 0x200
 80036a8:	6013      	str	r3, [r2, #0]
 80036aa:	6823      	ldr	r3, [r4, #0]
 80036ac:	691a      	ldr	r2, [r3, #16]
 80036ae:	6a63      	ldr	r3, [r4, #36]	; 0x24
 80036b0:	701a      	strb	r2, [r3, #0]
 80036b2:	6a63      	ldr	r3, [r4, #36]	; 0x24
 80036b4:	3301      	adds	r3, #1
 80036b6:	6263      	str	r3, [r4, #36]	; 0x24
 80036b8:	8d23      	ldrh	r3, [r4, #40]	; 0x28
 80036ba:	3b01      	subs	r3, #1
 80036bc:	8523      	strh	r3, [r4, #40]	; 0x28
 80036be:	8d63      	ldrh	r3, [r4, #42]	; 0x2a
 80036c0:	b29b      	uxth	r3, r3
 80036c2:	3b01      	subs	r3, #1
 80036c4:	b29b      	uxth	r3, r3
 80036c6:	8563      	strh	r3, [r4, #42]	; 0x2a
 80036c8:	b662      	cpsie	i
 80036ca:	6823      	ldr	r3, [r4, #0]
 80036cc:	691a      	ldr	r2, [r3, #16]
 80036ce:	6a63      	ldr	r3, [r4, #36]	; 0x24
 80036d0:	701a      	strb	r2, [r3, #0]
 80036d2:	6a63      	ldr	r3, [r4, #36]	; 0x24
 80036d4:	3301      	adds	r3, #1
 80036d6:	6263      	str	r3, [r4, #36]	; 0x24
 80036d8:	8d23      	ldrh	r3, [r4, #40]	; 0x28
 80036da:	3b01      	subs	r3, #1
 80036dc:	8523      	strh	r3, [r4, #40]	; 0x28
 80036de:	8d63      	ldrh	r3, [r4, #42]	; 0x2a
 80036e0:	b29b      	uxth	r3, r3
 80036e2:	3b01      	subs	r3, #1
 80036e4:	b29b      	uxth	r3, r3
 80036e6:	8563      	strh	r3, [r4, #42]	; 0x2a
 80036e8:	8d23      	ldrh	r3, [r4, #40]	; 0x28
 80036ea:	2b00      	cmp	r3, #0
 80036ec:	f000 80b0 	beq.w	8003850 <HAL_I2C_Master_Receive+0x314>
 80036f0:	2b03      	cmp	r3, #3
 80036f2:	f200 8083 	bhi.w	80037fc <HAL_I2C_Master_Receive+0x2c0>
 80036f6:	2b01      	cmp	r3, #1
 80036f8:	d0b9      	beq.n	800366e <HAL_I2C_Master_Receive+0x132>
 80036fa:	2b02      	cmp	r3, #2
 80036fc:	d10a      	bne.n	8003714 <HAL_I2C_Master_Receive+0x1d8>
 80036fe:	9500      	str	r5, [sp, #0]
 8003700:	4633      	mov	r3, r6
 8003702:	2200      	movs	r2, #0
 8003704:	493a      	ldr	r1, [pc, #232]	; (80037f0 <HAL_I2C_Master_Receive+0x2b4>)
 8003706:	4620      	mov	r0, r4
 8003708:	f7ff fce5 	bl	80030d6 <I2C_WaitOnFlagUntilTimeout>
 800370c:	2800      	cmp	r0, #0
 800370e:	d0c6      	beq.n	800369e <HAL_I2C_Master_Receive+0x162>
 8003710:	2701      	movs	r7, #1
 8003712:	e726      	b.n	8003562 <HAL_I2C_Master_Receive+0x26>
 8003714:	9500      	str	r5, [sp, #0]
 8003716:	4633      	mov	r3, r6
 8003718:	2200      	movs	r2, #0
 800371a:	4935      	ldr	r1, [pc, #212]	; (80037f0 <HAL_I2C_Master_Receive+0x2b4>)
 800371c:	4620      	mov	r0, r4
 800371e:	f7ff fcda 	bl	80030d6 <I2C_WaitOnFlagUntilTimeout>
 8003722:	2800      	cmp	r0, #0
 8003724:	f040 80a5 	bne.w	8003872 <HAL_I2C_Master_Receive+0x336>
 8003728:	6822      	ldr	r2, [r4, #0]
 800372a:	6813      	ldr	r3, [r2, #0]
 800372c:	f423 6380 	bic.w	r3, r3, #1024	; 0x400
 8003730:	6013      	str	r3, [r2, #0]
 8003732:	b672      	cpsid	i
 8003734:	6823      	ldr	r3, [r4, #0]
 8003736:	691a      	ldr	r2, [r3, #16]
 8003738:	6a63      	ldr	r3, [r4, #36]	; 0x24
 800373a:	701a      	strb	r2, [r3, #0]
 800373c:	6a63      	ldr	r3, [r4, #36]	; 0x24
 800373e:	3301      	adds	r3, #1
 8003740:	6263      	str	r3, [r4, #36]	; 0x24
 8003742:	8d23      	ldrh	r3, [r4, #40]	; 0x28
 8003744:	3b01      	subs	r3, #1
 8003746:	8523      	strh	r3, [r4, #40]	; 0x28
 8003748:	8d63      	ldrh	r3, [r4, #42]	; 0x2a
 800374a:	b29b      	uxth	r3, r3
 800374c:	3b01      	subs	r3, #1
 800374e:	b29b      	uxth	r3, r3
 8003750:	8563      	strh	r3, [r4, #42]	; 0x2a
 8003752:	4b28      	ldr	r3, [pc, #160]	; (80037f4 <HAL_I2C_Master_Receive+0x2b8>)
 8003754:	681b      	ldr	r3, [r3, #0]
 8003756:	08db      	lsrs	r3, r3, #3
 8003758:	4a27      	ldr	r2, [pc, #156]	; (80037f8 <HAL_I2C_Master_Receive+0x2bc>)
 800375a:	fba2 2303 	umull	r2, r3, r2, r3
 800375e:	0a1b      	lsrs	r3, r3, #8
 8003760:	eb03 0383 	add.w	r3, r3, r3, lsl #2
 8003764:	ebc3 03c3 	rsb	r3, r3, r3, lsl #3
 8003768:	9307      	str	r3, [sp, #28]
 800376a:	9b07      	ldr	r3, [sp, #28]
 800376c:	3b01      	subs	r3, #1
 800376e:	9307      	str	r3, [sp, #28]
 8003770:	9b07      	ldr	r3, [sp, #28]
 8003772:	2b00      	cmp	r3, #0
 8003774:	d028      	beq.n	80037c8 <HAL_I2C_Master_Receive+0x28c>
 8003776:	6823      	ldr	r3, [r4, #0]
 8003778:	695a      	ldr	r2, [r3, #20]
 800377a:	f012 0f04 	tst.w	r2, #4
 800377e:	d0f4      	beq.n	800376a <HAL_I2C_Master_Receive+0x22e>
 8003780:	681a      	ldr	r2, [r3, #0]
 8003782:	f442 7200 	orr.w	r2, r2, #512	; 0x200
 8003786:	601a      	str	r2, [r3, #0]
 8003788:	6823      	ldr	r3, [r4, #0]
 800378a:	691a      	ldr	r2, [r3, #16]
 800378c:	6a63      	ldr	r3, [r4, #36]	; 0x24
 800378e:	701a      	strb	r2, [r3, #0]
 8003790:	6a63      	ldr	r3, [r4, #36]	; 0x24
 8003792:	3301      	adds	r3, #1
 8003794:	6263      	str	r3, [r4, #36]	; 0x24
 8003796:	8d23      	ldrh	r3, [r4, #40]	; 0x28
 8003798:	3b01      	subs	r3, #1
 800379a:	8523      	strh	r3, [r4, #40]	; 0x28
 800379c:	8d63      	ldrh	r3, [r4, #42]	; 0x2a
 800379e:	b29b      	uxth	r3, r3
 80037a0:	3b01      	subs	r3, #1
 80037a2:	b29b      	uxth	r3, r3
 80037a4:	8563      	strh	r3, [r4, #42]	; 0x2a
 80037a6:	b662      	cpsie	i
 80037a8:	6823      	ldr	r3, [r4, #0]
 80037aa:	691a      	ldr	r2, [r3, #16]
 80037ac:	6a63      	ldr	r3, [r4, #36]	; 0x24
 80037ae:	701a      	strb	r2, [r3, #0]
 80037b0:	6a63      	ldr	r3, [r4, #36]	; 0x24
 80037b2:	3301      	adds	r3, #1
 80037b4:	6263      	str	r3, [r4, #36]	; 0x24
 80037b6:	8d23      	ldrh	r3, [r4, #40]	; 0x28
 80037b8:	3b01      	subs	r3, #1
 80037ba:	8523      	strh	r3, [r4, #40]	; 0x28
 80037bc:	8d63      	ldrh	r3, [r4, #42]	; 0x2a
 80037be:	b29b      	uxth	r3, r3
 80037c0:	3b01      	subs	r3, #1
 80037c2:	b29b      	uxth	r3, r3
 80037c4:	8563      	strh	r3, [r4, #42]	; 0x2a
 80037c6:	e78f      	b.n	80036e8 <HAL_I2C_Master_Receive+0x1ac>
 80037c8:	6323      	str	r3, [r4, #48]	; 0x30
 80037ca:	2220      	movs	r2, #32
 80037cc:	f884 203d 	strb.w	r2, [r4, #61]	; 0x3d
 80037d0:	f884 303e 	strb.w	r3, [r4, #62]	; 0x3e
 80037d4:	6c22      	ldr	r2, [r4, #64]	; 0x40
 80037d6:	f042 0220 	orr.w	r2, r2, #32
 80037da:	6422      	str	r2, [r4, #64]	; 0x40
 80037dc:	b662      	cpsie	i
 80037de:	f884 303c 	strb.w	r3, [r4, #60]	; 0x3c
 80037e2:	2701      	movs	r7, #1
 80037e4:	e6bd      	b.n	8003562 <HAL_I2C_Master_Receive+0x26>
 80037e6:	bf00      	nop
 80037e8:	00100002 	.word	0x00100002
 80037ec:	ffff0000 	.word	0xffff0000
 80037f0:	00010004 	.word	0x00010004
 80037f4:	20000008 	.word	0x20000008
 80037f8:	14f8b589 	.word	0x14f8b589
 80037fc:	462a      	mov	r2, r5
 80037fe:	4631      	mov	r1, r6
 8003800:	4620      	mov	r0, r4
 8003802:	f7ff fd87 	bl	8003314 <I2C_WaitOnRXNEFlagUntilTimeout>
 8003806:	2800      	cmp	r0, #0
 8003808:	d135      	bne.n	8003876 <HAL_I2C_Master_Receive+0x33a>
 800380a:	6823      	ldr	r3, [r4, #0]
 800380c:	691a      	ldr	r2, [r3, #16]
 800380e:	6a63      	ldr	r3, [r4, #36]	; 0x24
 8003810:	701a      	strb	r2, [r3, #0]
 8003812:	6a62      	ldr	r2, [r4, #36]	; 0x24
 8003814:	1c53      	adds	r3, r2, #1
 8003816:	6263      	str	r3, [r4, #36]	; 0x24
 8003818:	8d23      	ldrh	r3, [r4, #40]	; 0x28
 800381a:	3b01      	subs	r3, #1
 800381c:	8523      	strh	r3, [r4, #40]	; 0x28
 800381e:	8d63      	ldrh	r3, [r4, #42]	; 0x2a
 8003820:	b29b      	uxth	r3, r3
 8003822:	3b01      	subs	r3, #1
 8003824:	b29b      	uxth	r3, r3
 8003826:	8563      	strh	r3, [r4, #42]	; 0x2a
 8003828:	6823      	ldr	r3, [r4, #0]
 800382a:	6959      	ldr	r1, [r3, #20]
 800382c:	f011 0f04 	tst.w	r1, #4
 8003830:	f43f af5a 	beq.w	80036e8 <HAL_I2C_Master_Receive+0x1ac>
 8003834:	691b      	ldr	r3, [r3, #16]
 8003836:	7053      	strb	r3, [r2, #1]
 8003838:	6a63      	ldr	r3, [r4, #36]	; 0x24
 800383a:	3301      	adds	r3, #1
 800383c:	6263      	str	r3, [r4, #36]	; 0x24
 800383e:	8d23      	ldrh	r3, [r4, #40]	; 0x28
 8003840:	3b01      	subs	r3, #1
 8003842:	8523      	strh	r3, [r4, #40]	; 0x28
 8003844:	8d63      	ldrh	r3, [r4, #42]	; 0x2a
 8003846:	b29b      	uxth	r3, r3
 8003848:	3b01      	subs	r3, #1
 800384a:	b29b      	uxth	r3, r3
 800384c:	8563      	strh	r3, [r4, #42]	; 0x2a
 800384e:	e74b      	b.n	80036e8 <HAL_I2C_Master_Receive+0x1ac>
 8003850:	2320      	movs	r3, #32
 8003852:	f884 303d 	strb.w	r3, [r4, #61]	; 0x3d
 8003856:	2300      	movs	r3, #0
 8003858:	f884 303e 	strb.w	r3, [r4, #62]	; 0x3e
 800385c:	f884 303c 	strb.w	r3, [r4, #60]	; 0x3c
 8003860:	e67f      	b.n	8003562 <HAL_I2C_Master_Receive+0x26>
 8003862:	2702      	movs	r7, #2
 8003864:	e67d      	b.n	8003562 <HAL_I2C_Master_Receive+0x26>
 8003866:	2702      	movs	r7, #2
 8003868:	e67b      	b.n	8003562 <HAL_I2C_Master_Receive+0x26>
 800386a:	2701      	movs	r7, #1
 800386c:	e679      	b.n	8003562 <HAL_I2C_Master_Receive+0x26>
 800386e:	2701      	movs	r7, #1
 8003870:	e677      	b.n	8003562 <HAL_I2C_Master_Receive+0x26>
 8003872:	2701      	movs	r7, #1
 8003874:	e675      	b.n	8003562 <HAL_I2C_Master_Receive+0x26>
 8003876:	2701      	movs	r7, #1
 8003878:	e673      	b.n	8003562 <HAL_I2C_Master_Receive+0x26>
 800387a:	bf00      	nop

0800387c <HAL_I2C_IsDeviceReady>:
 800387c:	e92d 47f0 	stmdb	sp!, {r4, r5, r6, r7, r8, r9, sl, lr}
 8003880:	b084      	sub	sp, #16
 8003882:	4605      	mov	r5, r0
 8003884:	4689      	mov	r9, r1
 8003886:	4692      	mov	sl, r2
 8003888:	461e      	mov	r6, r3
 800388a:	f7fe fc15 	bl	80020b8 <HAL_GetTick>
 800388e:	f895 303d 	ldrb.w	r3, [r5, #61]	; 0x3d
 8003892:	b2db      	uxtb	r3, r3
 8003894:	2b20      	cmp	r3, #32
 8003896:	d003      	beq.n	80038a0 <HAL_I2C_IsDeviceReady+0x24>
 8003898:	2002      	movs	r0, #2
 800389a:	b004      	add	sp, #16
 800389c:	e8bd 87f0 	ldmia.w	sp!, {r4, r5, r6, r7, r8, r9, sl, pc}
 80038a0:	4607      	mov	r7, r0
 80038a2:	9000      	str	r0, [sp, #0]
 80038a4:	2319      	movs	r3, #25
 80038a6:	2201      	movs	r2, #1
 80038a8:	4958      	ldr	r1, [pc, #352]	; (8003a0c <HAL_I2C_IsDeviceReady+0x190>)
 80038aa:	4628      	mov	r0, r5
 80038ac:	f7ff fc13 	bl	80030d6 <I2C_WaitOnFlagUntilTimeout>
 80038b0:	2800      	cmp	r0, #0
 80038b2:	f040 80a2 	bne.w	80039fa <HAL_I2C_IsDeviceReady+0x17e>
 80038b6:	f895 303c 	ldrb.w	r3, [r5, #60]	; 0x3c
 80038ba:	2b01      	cmp	r3, #1
 80038bc:	f000 809f 	beq.w	80039fe <HAL_I2C_IsDeviceReady+0x182>
 80038c0:	2301      	movs	r3, #1
 80038c2:	f885 303c 	strb.w	r3, [r5, #60]	; 0x3c
 80038c6:	682b      	ldr	r3, [r5, #0]
 80038c8:	681a      	ldr	r2, [r3, #0]
 80038ca:	f012 0f01 	tst.w	r2, #1
 80038ce:	d103      	bne.n	80038d8 <HAL_I2C_IsDeviceReady+0x5c>
 80038d0:	681a      	ldr	r2, [r3, #0]
 80038d2:	f042 0201 	orr.w	r2, r2, #1
 80038d6:	601a      	str	r2, [r3, #0]
 80038d8:	682a      	ldr	r2, [r5, #0]
 80038da:	6813      	ldr	r3, [r2, #0]
 80038dc:	f423 6300 	bic.w	r3, r3, #2048	; 0x800
 80038e0:	6013      	str	r3, [r2, #0]
 80038e2:	2324      	movs	r3, #36	; 0x24
 80038e4:	f885 303d 	strb.w	r3, [r5, #61]	; 0x3d
 80038e8:	2300      	movs	r3, #0
 80038ea:	642b      	str	r3, [r5, #64]	; 0x40
 80038ec:	f5a3 3380 	sub.w	r3, r3, #65536	; 0x10000
 80038f0:	62eb      	str	r3, [r5, #44]	; 0x2c
 80038f2:	f04f 0801 	mov.w	r8, #1
 80038f6:	e03f      	b.n	8003978 <HAL_I2C_IsDeviceReady+0xfc>
 80038f8:	682b      	ldr	r3, [r5, #0]
 80038fa:	681b      	ldr	r3, [r3, #0]
 80038fc:	f413 7f80 	tst.w	r3, #256	; 0x100
 8003900:	d002      	beq.n	8003908 <HAL_I2C_IsDeviceReady+0x8c>
 8003902:	f44f 7300 	mov.w	r3, #512	; 0x200
 8003906:	642b      	str	r3, [r5, #64]	; 0x40
 8003908:	2003      	movs	r0, #3
 800390a:	e7c6      	b.n	800389a <HAL_I2C_IsDeviceReady+0x1e>
 800390c:	23a0      	movs	r3, #160	; 0xa0
 800390e:	f885 303d 	strb.w	r3, [r5, #61]	; 0x3d
 8003912:	682a      	ldr	r2, [r5, #0]
 8003914:	6953      	ldr	r3, [r2, #20]
 8003916:	f3c3 0340 	ubfx	r3, r3, #1, #1
 800391a:	6952      	ldr	r2, [r2, #20]
 800391c:	f3c2 2280 	ubfx	r2, r2, #10, #1
 8003920:	f895 403d 	ldrb.w	r4, [r5, #61]	; 0x3d
 8003924:	b2e4      	uxtb	r4, r4
 8003926:	2ca0      	cmp	r4, #160	; 0xa0
 8003928:	d009      	beq.n	800393e <HAL_I2C_IsDeviceReady+0xc2>
 800392a:	b943      	cbnz	r3, 800393e <HAL_I2C_IsDeviceReady+0xc2>
 800392c:	b93a      	cbnz	r2, 800393e <HAL_I2C_IsDeviceReady+0xc2>
 800392e:	f7fe fbc3 	bl	80020b8 <HAL_GetTick>
 8003932:	1bc0      	subs	r0, r0, r7
 8003934:	42b0      	cmp	r0, r6
 8003936:	d8e9      	bhi.n	800390c <HAL_I2C_IsDeviceReady+0x90>
 8003938:	2e00      	cmp	r6, #0
 800393a:	d1ea      	bne.n	8003912 <HAL_I2C_IsDeviceReady+0x96>
 800393c:	e7e6      	b.n	800390c <HAL_I2C_IsDeviceReady+0x90>
 800393e:	2320      	movs	r3, #32
 8003940:	f885 303d 	strb.w	r3, [r5, #61]	; 0x3d
 8003944:	682b      	ldr	r3, [r5, #0]
 8003946:	695a      	ldr	r2, [r3, #20]
 8003948:	f012 0f02 	tst.w	r2, #2
 800394c:	d132      	bne.n	80039b4 <HAL_I2C_IsDeviceReady+0x138>
 800394e:	681a      	ldr	r2, [r3, #0]
 8003950:	f442 7200 	orr.w	r2, r2, #512	; 0x200
 8003954:	601a      	str	r2, [r3, #0]
 8003956:	682b      	ldr	r3, [r5, #0]
 8003958:	f46f 6280 	mvn.w	r2, #1024	; 0x400
 800395c:	615a      	str	r2, [r3, #20]
 800395e:	9700      	str	r7, [sp, #0]
 8003960:	2319      	movs	r3, #25
 8003962:	2201      	movs	r2, #1
 8003964:	4929      	ldr	r1, [pc, #164]	; (8003a0c <HAL_I2C_IsDeviceReady+0x190>)
 8003966:	4628      	mov	r0, r5
 8003968:	f7ff fbb5 	bl	80030d6 <I2C_WaitOnFlagUntilTimeout>
 800396c:	2800      	cmp	r0, #0
 800396e:	d14a      	bne.n	8003a06 <HAL_I2C_IsDeviceReady+0x18a>
 8003970:	f108 0801 	add.w	r8, r8, #1
 8003974:	45d0      	cmp	r8, sl
 8003976:	d238      	bcs.n	80039ea <HAL_I2C_IsDeviceReady+0x16e>
 8003978:	682a      	ldr	r2, [r5, #0]
 800397a:	6813      	ldr	r3, [r2, #0]
 800397c:	f443 7380 	orr.w	r3, r3, #256	; 0x100
 8003980:	6013      	str	r3, [r2, #0]
 8003982:	9700      	str	r7, [sp, #0]
 8003984:	4633      	mov	r3, r6
 8003986:	2200      	movs	r2, #0
 8003988:	f04f 1101 	mov.w	r1, #65537	; 0x10001
 800398c:	4628      	mov	r0, r5
 800398e:	f7ff fba2 	bl	80030d6 <I2C_WaitOnFlagUntilTimeout>
 8003992:	2800      	cmp	r0, #0
 8003994:	d1b0      	bne.n	80038f8 <HAL_I2C_IsDeviceReady+0x7c>
 8003996:	682b      	ldr	r3, [r5, #0]
 8003998:	f009 02fe 	and.w	r2, r9, #254	; 0xfe
 800399c:	611a      	str	r2, [r3, #16]
 800399e:	f7fe fb8b 	bl	80020b8 <HAL_GetTick>
 80039a2:	4607      	mov	r7, r0
 80039a4:	682a      	ldr	r2, [r5, #0]
 80039a6:	6953      	ldr	r3, [r2, #20]
 80039a8:	f3c3 0340 	ubfx	r3, r3, #1, #1
 80039ac:	6952      	ldr	r2, [r2, #20]
 80039ae:	f3c2 2280 	ubfx	r2, r2, #10, #1
 80039b2:	e7b5      	b.n	8003920 <HAL_I2C_IsDeviceReady+0xa4>
 80039b4:	681a      	ldr	r2, [r3, #0]
 80039b6:	f442 7200 	orr.w	r2, r2, #512	; 0x200
 80039ba:	601a      	str	r2, [r3, #0]
 80039bc:	2300      	movs	r3, #0
 80039be:	9303      	str	r3, [sp, #12]
 80039c0:	682b      	ldr	r3, [r5, #0]
 80039c2:	695a      	ldr	r2, [r3, #20]
 80039c4:	9203      	str	r2, [sp, #12]
 80039c6:	699b      	ldr	r3, [r3, #24]
 80039c8:	9303      	str	r3, [sp, #12]
 80039ca:	9b03      	ldr	r3, [sp, #12]
 80039cc:	9700      	str	r7, [sp, #0]
 80039ce:	2319      	movs	r3, #25
 80039d0:	2201      	movs	r2, #1
 80039d2:	490e      	ldr	r1, [pc, #56]	; (8003a0c <HAL_I2C_IsDeviceReady+0x190>)
 80039d4:	4628      	mov	r0, r5
 80039d6:	f7ff fb7e 	bl	80030d6 <I2C_WaitOnFlagUntilTimeout>
 80039da:	b990      	cbnz	r0, 8003a02 <HAL_I2C_IsDeviceReady+0x186>
 80039dc:	2320      	movs	r3, #32
 80039de:	f885 303d 	strb.w	r3, [r5, #61]	; 0x3d
 80039e2:	2300      	movs	r3, #0
 80039e4:	f885 303c 	strb.w	r3, [r5, #60]	; 0x3c
 80039e8:	e757      	b.n	800389a <HAL_I2C_IsDeviceReady+0x1e>
 80039ea:	2320      	movs	r3, #32
 80039ec:	f885 303d 	strb.w	r3, [r5, #61]	; 0x3d
 80039f0:	2300      	movs	r3, #0
 80039f2:	f885 303c 	strb.w	r3, [r5, #60]	; 0x3c
 80039f6:	2001      	movs	r0, #1
 80039f8:	e74f      	b.n	800389a <HAL_I2C_IsDeviceReady+0x1e>
 80039fa:	2002      	movs	r0, #2
 80039fc:	e74d      	b.n	800389a <HAL_I2C_IsDeviceReady+0x1e>
 80039fe:	2002      	movs	r0, #2
 8003a00:	e74b      	b.n	800389a <HAL_I2C_IsDeviceReady+0x1e>
 8003a02:	2001      	movs	r0, #1
 8003a04:	e749      	b.n	800389a <HAL_I2C_IsDeviceReady+0x1e>
 8003a06:	2001      	movs	r0, #1
 8003a08:	e747      	b.n	800389a <HAL_I2C_IsDeviceReady+0x1e>
 8003a0a:	bf00      	nop
 8003a0c:	00100002 	.word	0x00100002

08003a10 <HAL_I2C_MasterTxCpltCallback>:
 8003a10:	4770      	bx	lr

08003a12 <HAL_I2C_MasterRxCpltCallback>:
 8003a12:	4770      	bx	lr

08003a14 <HAL_I2C_SlaveTxCpltCallback>:
 8003a14:	4770      	bx	lr

08003a16 <I2C_SlaveTransmit_TXE>:
 8003a16:	b508      	push	{r3, lr}
 8003a18:	f890 303d 	ldrb.w	r3, [r0, #61]	; 0x3d
 8003a1c:	b2da      	uxtb	r2, r3
 8003a1e:	8d43      	ldrh	r3, [r0, #42]	; 0x2a
 8003a20:	b29b      	uxth	r3, r3
 8003a22:	b183      	cbz	r3, 8003a46 <I2C_SlaveTransmit_TXE+0x30>
 8003a24:	6a41      	ldr	r1, [r0, #36]	; 0x24
 8003a26:	6803      	ldr	r3, [r0, #0]
 8003a28:	7809      	ldrb	r1, [r1, #0]
 8003a2a:	6119      	str	r1, [r3, #16]
 8003a2c:	6a43      	ldr	r3, [r0, #36]	; 0x24
 8003a2e:	3301      	adds	r3, #1
 8003a30:	6243      	str	r3, [r0, #36]	; 0x24
 8003a32:	8d43      	ldrh	r3, [r0, #42]	; 0x2a
 8003a34:	b29b      	uxth	r3, r3
 8003a36:	3b01      	subs	r3, #1
 8003a38:	b29b      	uxth	r3, r3
 8003a3a:	8543      	strh	r3, [r0, #42]	; 0x2a
 8003a3c:	8d43      	ldrh	r3, [r0, #42]	; 0x2a
 8003a3e:	b29b      	uxth	r3, r3
 8003a40:	b90b      	cbnz	r3, 8003a46 <I2C_SlaveTransmit_TXE+0x30>
 8003a42:	2a29      	cmp	r2, #41	; 0x29
 8003a44:	d000      	beq.n	8003a48 <I2C_SlaveTransmit_TXE+0x32>
 8003a46:	bd08      	pop	{r3, pc}
 8003a48:	6802      	ldr	r2, [r0, #0]
 8003a4a:	6853      	ldr	r3, [r2, #4]
 8003a4c:	f423 6380 	bic.w	r3, r3, #1024	; 0x400
 8003a50:	6053      	str	r3, [r2, #4]
 8003a52:	2321      	movs	r3, #33	; 0x21
 8003a54:	6303      	str	r3, [r0, #48]	; 0x30
 8003a56:	2328      	movs	r3, #40	; 0x28
 8003a58:	f880 303d 	strb.w	r3, [r0, #61]	; 0x3d
 8003a5c:	f7ff ffda 	bl	8003a14 <HAL_I2C_SlaveTxCpltCallback>
 8003a60:	e7f1      	b.n	8003a46 <I2C_SlaveTransmit_TXE+0x30>

08003a62 <HAL_I2C_SlaveRxCpltCallback>:
 8003a62:	4770      	bx	lr

08003a64 <I2C_SlaveReceive_RXNE>:
 8003a64:	b508      	push	{r3, lr}
 8003a66:	f890 303d 	ldrb.w	r3, [r0, #61]	; 0x3d
 8003a6a:	b2da      	uxtb	r2, r3
 8003a6c:	8d43      	ldrh	r3, [r0, #42]	; 0x2a
 8003a6e:	b29b      	uxth	r3, r3
 8003a70:	b183      	cbz	r3, 8003a94 <I2C_SlaveReceive_RXNE+0x30>
 8003a72:	6803      	ldr	r3, [r0, #0]
 8003a74:	6919      	ldr	r1, [r3, #16]
 8003a76:	6a43      	ldr	r3, [r0, #36]	; 0x24
 8003a78:	7019      	strb	r1, [r3, #0]
 8003a7a:	6a43      	ldr	r3, [r0, #36]	; 0x24
 8003a7c:	3301      	adds	r3, #1
 8003a7e:	6243      	str	r3, [r0, #36]	; 0x24
 8003a80:	8d43      	ldrh	r3, [r0, #42]	; 0x2a
 8003a82:	b29b      	uxth	r3, r3
 8003a84:	3b01      	subs	r3, #1
 8003a86:	b29b      	uxth	r3, r3
 8003a88:	8543      	strh	r3, [r0, #42]	; 0x2a
 8003a8a:	8d43      	ldrh	r3, [r0, #42]	; 0x2a
 8003a8c:	b29b      	uxth	r3, r3
 8003a8e:	b90b      	cbnz	r3, 8003a94 <I2C_SlaveReceive_RXNE+0x30>
 8003a90:	2a2a      	cmp	r2, #42	; 0x2a
 8003a92:	d000      	beq.n	8003a96 <I2C_SlaveReceive_RXNE+0x32>
 8003a94:	bd08      	pop	{r3, pc}
 8003a96:	6802      	ldr	r2, [r0, #0]
 8003a98:	6853      	ldr	r3, [r2, #4]
 8003a9a:	f423 6380 	bic.w	r3, r3, #1024	; 0x400
 8003a9e:	6053      	str	r3, [r2, #4]
 8003aa0:	2322      	movs	r3, #34	; 0x22
 8003aa2:	6303      	str	r3, [r0, #48]	; 0x30
 8003aa4:	2328      	movs	r3, #40	; 0x28
 8003aa6:	f880 303d 	strb.w	r3, [r0, #61]	; 0x3d
 8003aaa:	f7ff ffda 	bl	8003a62 <HAL_I2C_SlaveRxCpltCallback>
 8003aae:	e7f1      	b.n	8003a94 <I2C_SlaveReceive_RXNE+0x30>

08003ab0 <HAL_I2C_AddrCallback>:
 8003ab0:	4770      	bx	lr

08003ab2 <I2C_Slave_ADDR>:
 8003ab2:	b500      	push	{lr}
 8003ab4:	b083      	sub	sp, #12
 8003ab6:	f890 303d 	ldrb.w	r3, [r0, #61]	; 0x3d
 8003aba:	f003 0328 	and.w	r3, r3, #40	; 0x28
 8003abe:	2b28      	cmp	r3, #40	; 0x28
 8003ac0:	d00c      	beq.n	8003adc <I2C_Slave_ADDR+0x2a>
 8003ac2:	2300      	movs	r3, #0
 8003ac4:	9301      	str	r3, [sp, #4]
 8003ac6:	6802      	ldr	r2, [r0, #0]
 8003ac8:	6951      	ldr	r1, [r2, #20]
 8003aca:	9101      	str	r1, [sp, #4]
 8003acc:	6992      	ldr	r2, [r2, #24]
 8003ace:	9201      	str	r2, [sp, #4]
 8003ad0:	9a01      	ldr	r2, [sp, #4]
 8003ad2:	f880 303c 	strb.w	r3, [r0, #60]	; 0x3c
 8003ad6:	b003      	add	sp, #12
 8003ad8:	f85d fb04 	ldr.w	pc, [sp], #4
 8003adc:	6802      	ldr	r2, [r0, #0]
 8003ade:	6853      	ldr	r3, [r2, #4]
 8003ae0:	f423 6380 	bic.w	r3, r3, #1024	; 0x400
 8003ae4:	6053      	str	r3, [r2, #4]
 8003ae6:	f011 0f04 	tst.w	r1, #4
 8003aea:	d00b      	beq.n	8003b04 <I2C_Slave_ADDR+0x52>
 8003aec:	2300      	movs	r3, #0
 8003aee:	f011 0f80 	tst.w	r1, #128	; 0x80
 8003af2:	d109      	bne.n	8003b08 <I2C_Slave_ADDR+0x56>
 8003af4:	8982      	ldrh	r2, [r0, #12]
 8003af6:	2100      	movs	r1, #0
 8003af8:	f880 103c 	strb.w	r1, [r0, #60]	; 0x3c
 8003afc:	4619      	mov	r1, r3
 8003afe:	f7ff ffd7 	bl	8003ab0 <HAL_I2C_AddrCallback>
 8003b02:	e7e8      	b.n	8003ad6 <I2C_Slave_ADDR+0x24>
 8003b04:	2301      	movs	r3, #1
 8003b06:	e7f2      	b.n	8003aee <I2C_Slave_ADDR+0x3c>
 8003b08:	8b02      	ldrh	r2, [r0, #24]
 8003b0a:	e7f4      	b.n	8003af6 <I2C_Slave_ADDR+0x44>

08003b0c <HAL_I2C_ListenCpltCallback>:
 8003b0c:	4770      	bx	lr
	...

08003b10 <I2C_Slave_AF>:
 8003b10:	b508      	push	{r3, lr}
 8003b12:	f890 303d 	ldrb.w	r3, [r0, #61]	; 0x3d
 8003b16:	b2db      	uxtb	r3, r3
 8003b18:	6ac2      	ldr	r2, [r0, #44]	; 0x2c
 8003b1a:	2a08      	cmp	r2, #8
 8003b1c:	d001      	beq.n	8003b22 <I2C_Slave_AF+0x12>
 8003b1e:	2a20      	cmp	r2, #32
 8003b20:	d101      	bne.n	8003b26 <I2C_Slave_AF+0x16>
 8003b22:	2b28      	cmp	r3, #40	; 0x28
 8003b24:	d006      	beq.n	8003b34 <I2C_Slave_AF+0x24>
 8003b26:	2b21      	cmp	r3, #33	; 0x21
 8003b28:	d01e      	beq.n	8003b68 <I2C_Slave_AF+0x58>
 8003b2a:	6803      	ldr	r3, [r0, #0]
 8003b2c:	f46f 6280 	mvn.w	r2, #1024	; 0x400
 8003b30:	615a      	str	r2, [r3, #20]
 8003b32:	bd08      	pop	{r3, pc}
 8003b34:	4b1a      	ldr	r3, [pc, #104]	; (8003ba0 <I2C_Slave_AF+0x90>)
 8003b36:	62c3      	str	r3, [r0, #44]	; 0x2c
 8003b38:	6802      	ldr	r2, [r0, #0]
 8003b3a:	6853      	ldr	r3, [r2, #4]
 8003b3c:	f423 63e0 	bic.w	r3, r3, #1792	; 0x700
 8003b40:	6053      	str	r3, [r2, #4]
 8003b42:	6803      	ldr	r3, [r0, #0]
 8003b44:	f46f 6280 	mvn.w	r2, #1024	; 0x400
 8003b48:	615a      	str	r2, [r3, #20]
 8003b4a:	6802      	ldr	r2, [r0, #0]
 8003b4c:	6813      	ldr	r3, [r2, #0]
 8003b4e:	f423 6380 	bic.w	r3, r3, #1024	; 0x400
 8003b52:	6013      	str	r3, [r2, #0]
 8003b54:	2300      	movs	r3, #0
 8003b56:	6303      	str	r3, [r0, #48]	; 0x30
 8003b58:	2220      	movs	r2, #32
 8003b5a:	f880 203d 	strb.w	r2, [r0, #61]	; 0x3d
 8003b5e:	f880 303e 	strb.w	r3, [r0, #62]	; 0x3e
 8003b62:	f7ff ffd3 	bl	8003b0c <HAL_I2C_ListenCpltCallback>
 8003b66:	e7e4      	b.n	8003b32 <I2C_Slave_AF+0x22>
 8003b68:	4b0d      	ldr	r3, [pc, #52]	; (8003ba0 <I2C_Slave_AF+0x90>)
 8003b6a:	62c3      	str	r3, [r0, #44]	; 0x2c
 8003b6c:	2321      	movs	r3, #33	; 0x21
 8003b6e:	6303      	str	r3, [r0, #48]	; 0x30
 8003b70:	2320      	movs	r3, #32
 8003b72:	f880 303d 	strb.w	r3, [r0, #61]	; 0x3d
 8003b76:	2300      	movs	r3, #0
 8003b78:	f880 303e 	strb.w	r3, [r0, #62]	; 0x3e
 8003b7c:	6802      	ldr	r2, [r0, #0]
 8003b7e:	6853      	ldr	r3, [r2, #4]
 8003b80:	f423 63e0 	bic.w	r3, r3, #1792	; 0x700
 8003b84:	6053      	str	r3, [r2, #4]
 8003b86:	6803      	ldr	r3, [r0, #0]
 8003b88:	f46f 6280 	mvn.w	r2, #1024	; 0x400
 8003b8c:	615a      	str	r2, [r3, #20]
 8003b8e:	6802      	ldr	r2, [r0, #0]
 8003b90:	6813      	ldr	r3, [r2, #0]
 8003b92:	f423 6380 	bic.w	r3, r3, #1024	; 0x400
 8003b96:	6013      	str	r3, [r2, #0]
 8003b98:	f7ff ff3c 	bl	8003a14 <HAL_I2C_SlaveTxCpltCallback>
 8003b9c:	e7c9      	b.n	8003b32 <I2C_Slave_AF+0x22>
 8003b9e:	bf00      	nop
 8003ba0:	ffff0000 	.word	0xffff0000

08003ba4 <HAL_I2C_MemTxCpltCallback>:
 8003ba4:	4770      	bx	lr

08003ba6 <I2C_MasterTransmit_BTF>:
 8003ba6:	b508      	push	{r3, lr}
 8003ba8:	6ac2      	ldr	r2, [r0, #44]	; 0x2c
 8003baa:	f890 303d 	ldrb.w	r3, [r0, #61]	; 0x3d
 8003bae:	b2db      	uxtb	r3, r3
 8003bb0:	2b21      	cmp	r3, #33	; 0x21
 8003bb2:	d000      	beq.n	8003bb6 <I2C_MasterTransmit_BTF+0x10>
 8003bb4:	bd08      	pop	{r3, pc}
 8003bb6:	8d43      	ldrh	r3, [r0, #42]	; 0x2a
 8003bb8:	b29b      	uxth	r3, r3
 8003bba:	b163      	cbz	r3, 8003bd6 <I2C_MasterTransmit_BTF+0x30>
 8003bbc:	6a42      	ldr	r2, [r0, #36]	; 0x24
 8003bbe:	6803      	ldr	r3, [r0, #0]
 8003bc0:	7812      	ldrb	r2, [r2, #0]
 8003bc2:	611a      	str	r2, [r3, #16]
 8003bc4:	6a43      	ldr	r3, [r0, #36]	; 0x24
 8003bc6:	3301      	adds	r3, #1
 8003bc8:	6243      	str	r3, [r0, #36]	; 0x24
 8003bca:	8d43      	ldrh	r3, [r0, #42]	; 0x2a
 8003bcc:	b29b      	uxth	r3, r3
 8003bce:	3b01      	subs	r3, #1
 8003bd0:	b29b      	uxth	r3, r3
 8003bd2:	8543      	strh	r3, [r0, #42]	; 0x2a
 8003bd4:	e7ee      	b.n	8003bb4 <I2C_MasterTransmit_BTF+0xe>
 8003bd6:	2a08      	cmp	r2, #8
 8003bd8:	d004      	beq.n	8003be4 <I2C_MasterTransmit_BTF+0x3e>
 8003bda:	2a20      	cmp	r2, #32
 8003bdc:	d002      	beq.n	8003be4 <I2C_MasterTransmit_BTF+0x3e>
 8003bde:	f512 3f80 	cmn.w	r2, #65536	; 0x10000
 8003be2:	d119      	bne.n	8003c18 <I2C_MasterTransmit_BTF+0x72>
 8003be4:	6802      	ldr	r2, [r0, #0]
 8003be6:	6853      	ldr	r3, [r2, #4]
 8003be8:	f423 63e0 	bic.w	r3, r3, #1792	; 0x700
 8003bec:	6053      	str	r3, [r2, #4]
 8003bee:	6802      	ldr	r2, [r0, #0]
 8003bf0:	6813      	ldr	r3, [r2, #0]
 8003bf2:	f443 7300 	orr.w	r3, r3, #512	; 0x200
 8003bf6:	6013      	str	r3, [r2, #0]
 8003bf8:	2300      	movs	r3, #0
 8003bfa:	6303      	str	r3, [r0, #48]	; 0x30
 8003bfc:	2320      	movs	r3, #32
 8003bfe:	f880 303d 	strb.w	r3, [r0, #61]	; 0x3d
 8003c02:	f890 303e 	ldrb.w	r3, [r0, #62]	; 0x3e
 8003c06:	b2db      	uxtb	r3, r3
 8003c08:	2b40      	cmp	r3, #64	; 0x40
 8003c0a:	d015      	beq.n	8003c38 <I2C_MasterTransmit_BTF+0x92>
 8003c0c:	2300      	movs	r3, #0
 8003c0e:	f880 303e 	strb.w	r3, [r0, #62]	; 0x3e
 8003c12:	f7ff fefd 	bl	8003a10 <HAL_I2C_MasterTxCpltCallback>
 8003c16:	e7cd      	b.n	8003bb4 <I2C_MasterTransmit_BTF+0xe>
 8003c18:	6802      	ldr	r2, [r0, #0]
 8003c1a:	6853      	ldr	r3, [r2, #4]
 8003c1c:	f423 63e0 	bic.w	r3, r3, #1792	; 0x700
 8003c20:	6053      	str	r3, [r2, #4]
 8003c22:	2311      	movs	r3, #17
 8003c24:	6303      	str	r3, [r0, #48]	; 0x30
 8003c26:	2300      	movs	r3, #0
 8003c28:	f880 303e 	strb.w	r3, [r0, #62]	; 0x3e
 8003c2c:	2320      	movs	r3, #32
 8003c2e:	f880 303d 	strb.w	r3, [r0, #61]	; 0x3d
 8003c32:	f7ff feed 	bl	8003a10 <HAL_I2C_MasterTxCpltCallback>
 8003c36:	e7bd      	b.n	8003bb4 <I2C_MasterTransmit_BTF+0xe>
 8003c38:	2300      	movs	r3, #0
 8003c3a:	f880 303e 	strb.w	r3, [r0, #62]	; 0x3e
 8003c3e:	f7ff ffb1 	bl	8003ba4 <HAL_I2C_MemTxCpltCallback>
 8003c42:	e7b7      	b.n	8003bb4 <I2C_MasterTransmit_BTF+0xe>

08003c44 <I2C_MemoryTransmit_TXE_BTF>:
 8003c44:	b508      	push	{r3, lr}
 8003c46:	f890 303d 	ldrb.w	r3, [r0, #61]	; 0x3d
 8003c4a:	6d02      	ldr	r2, [r0, #80]	; 0x50
 8003c4c:	b99a      	cbnz	r2, 8003c76 <I2C_MemoryTransmit_TXE_BTF+0x32>
 8003c4e:	6cc3      	ldr	r3, [r0, #76]	; 0x4c
 8003c50:	2b01      	cmp	r3, #1
 8003c52:	d008      	beq.n	8003c66 <I2C_MemoryTransmit_TXE_BTF+0x22>
 8003c54:	6c83      	ldr	r3, [r0, #72]	; 0x48
 8003c56:	f3c3 2307 	ubfx	r3, r3, #8, #8
 8003c5a:	6802      	ldr	r2, [r0, #0]
 8003c5c:	6113      	str	r3, [r2, #16]
 8003c5e:	6d03      	ldr	r3, [r0, #80]	; 0x50
 8003c60:	3301      	adds	r3, #1
 8003c62:	6503      	str	r3, [r0, #80]	; 0x50
 8003c64:	bd08      	pop	{r3, pc}
 8003c66:	6c83      	ldr	r3, [r0, #72]	; 0x48
 8003c68:	6802      	ldr	r2, [r0, #0]
 8003c6a:	b2db      	uxtb	r3, r3
 8003c6c:	6113      	str	r3, [r2, #16]
 8003c6e:	6d03      	ldr	r3, [r0, #80]	; 0x50
 8003c70:	3302      	adds	r3, #2
 8003c72:	6503      	str	r3, [r0, #80]	; 0x50
 8003c74:	e7f6      	b.n	8003c64 <I2C_MemoryTransmit_TXE_BTF+0x20>
 8003c76:	b2db      	uxtb	r3, r3
 8003c78:	6d02      	ldr	r2, [r0, #80]	; 0x50
 8003c7a:	2a01      	cmp	r2, #1
 8003c7c:	d023      	beq.n	8003cc6 <I2C_MemoryTransmit_TXE_BTF+0x82>
 8003c7e:	6d02      	ldr	r2, [r0, #80]	; 0x50
 8003c80:	2a02      	cmp	r2, #2
 8003c82:	d1ef      	bne.n	8003c64 <I2C_MemoryTransmit_TXE_BTF+0x20>
 8003c84:	2b22      	cmp	r3, #34	; 0x22
 8003c86:	d026      	beq.n	8003cd6 <I2C_MemoryTransmit_TXE_BTF+0x92>
 8003c88:	8d42      	ldrh	r2, [r0, #42]	; 0x2a
 8003c8a:	b292      	uxth	r2, r2
 8003c8c:	b10a      	cbz	r2, 8003c92 <I2C_MemoryTransmit_TXE_BTF+0x4e>
 8003c8e:	2b21      	cmp	r3, #33	; 0x21
 8003c90:	d02a      	beq.n	8003ce8 <I2C_MemoryTransmit_TXE_BTF+0xa4>
 8003c92:	8d42      	ldrh	r2, [r0, #42]	; 0x2a
 8003c94:	b292      	uxth	r2, r2
 8003c96:	2a00      	cmp	r2, #0
 8003c98:	d1e4      	bne.n	8003c64 <I2C_MemoryTransmit_TXE_BTF+0x20>
 8003c9a:	2b21      	cmp	r3, #33	; 0x21
 8003c9c:	d1e2      	bne.n	8003c64 <I2C_MemoryTransmit_TXE_BTF+0x20>
 8003c9e:	6802      	ldr	r2, [r0, #0]
 8003ca0:	6853      	ldr	r3, [r2, #4]
 8003ca2:	f423 63e0 	bic.w	r3, r3, #1792	; 0x700
 8003ca6:	6053      	str	r3, [r2, #4]
 8003ca8:	6802      	ldr	r2, [r0, #0]
 8003caa:	6813      	ldr	r3, [r2, #0]
 8003cac:	f443 7300 	orr.w	r3, r3, #512	; 0x200
 8003cb0:	6013      	str	r3, [r2, #0]
 8003cb2:	2300      	movs	r3, #0
 8003cb4:	6303      	str	r3, [r0, #48]	; 0x30
 8003cb6:	2220      	movs	r2, #32
 8003cb8:	f880 203d 	strb.w	r2, [r0, #61]	; 0x3d
 8003cbc:	f880 303e 	strb.w	r3, [r0, #62]	; 0x3e
 8003cc0:	f7ff ff70 	bl	8003ba4 <HAL_I2C_MemTxCpltCallback>
 8003cc4:	e7ce      	b.n	8003c64 <I2C_MemoryTransmit_TXE_BTF+0x20>
 8003cc6:	6c83      	ldr	r3, [r0, #72]	; 0x48
 8003cc8:	6802      	ldr	r2, [r0, #0]
 8003cca:	b2db      	uxtb	r3, r3
 8003ccc:	6113      	str	r3, [r2, #16]
 8003cce:	6d03      	ldr	r3, [r0, #80]	; 0x50
 8003cd0:	3301      	adds	r3, #1
 8003cd2:	6503      	str	r3, [r0, #80]	; 0x50
 8003cd4:	e7c6      	b.n	8003c64 <I2C_MemoryTransmit_TXE_BTF+0x20>
 8003cd6:	6802      	ldr	r2, [r0, #0]
 8003cd8:	6813      	ldr	r3, [r2, #0]
 8003cda:	f443 7380 	orr.w	r3, r3, #256	; 0x100
 8003cde:	6013      	str	r3, [r2, #0]
 8003ce0:	6d03      	ldr	r3, [r0, #80]	; 0x50
 8003ce2:	3301      	adds	r3, #1
 8003ce4:	6503      	str	r3, [r0, #80]	; 0x50
 8003ce6:	e7bd      	b.n	8003c64 <I2C_MemoryTransmit_TXE_BTF+0x20>
 8003ce8:	6a42      	ldr	r2, [r0, #36]	; 0x24
 8003cea:	6803      	ldr	r3, [r0, #0]
 8003cec:	7812      	ldrb	r2, [r2, #0]
 8003cee:	611a      	str	r2, [r3, #16]
 8003cf0:	6a43      	ldr	r3, [r0, #36]	; 0x24
 8003cf2:	3301      	adds	r3, #1
 8003cf4:	6243      	str	r3, [r0, #36]	; 0x24
 8003cf6:	8d43      	ldrh	r3, [r0, #42]	; 0x2a
 8003cf8:	b29b      	uxth	r3, r3
 8003cfa:	3b01      	subs	r3, #1
 8003cfc:	b29b      	uxth	r3, r3
 8003cfe:	8543      	strh	r3, [r0, #42]	; 0x2a
 8003d00:	e7b0      	b.n	8003c64 <I2C_MemoryTransmit_TXE_BTF+0x20>

08003d02 <I2C_MasterTransmit_TXE>:
 8003d02:	b510      	push	{r4, lr}
 8003d04:	f890 303d 	ldrb.w	r3, [r0, #61]	; 0x3d
 8003d08:	b2db      	uxtb	r3, r3
 8003d0a:	f890 203e 	ldrb.w	r2, [r0, #62]	; 0x3e
 8003d0e:	b2d2      	uxtb	r2, r2
 8003d10:	6ac4      	ldr	r4, [r0, #44]	; 0x2c
 8003d12:	8d01      	ldrh	r1, [r0, #40]	; 0x28
 8003d14:	b909      	cbnz	r1, 8003d1a <I2C_MasterTransmit_TXE+0x18>
 8003d16:	2b21      	cmp	r3, #33	; 0x21
 8003d18:	d004      	beq.n	8003d24 <I2C_MasterTransmit_TXE+0x22>
 8003d1a:	2b21      	cmp	r3, #33	; 0x21
 8003d1c:	d03b      	beq.n	8003d96 <I2C_MasterTransmit_TXE+0x94>
 8003d1e:	2a40      	cmp	r2, #64	; 0x40
 8003d20:	d037      	beq.n	8003d92 <I2C_MasterTransmit_TXE+0x90>
 8003d22:	bd10      	pop	{r4, pc}
 8003d24:	2c08      	cmp	r4, #8
 8003d26:	d004      	beq.n	8003d32 <I2C_MasterTransmit_TXE+0x30>
 8003d28:	2c20      	cmp	r4, #32
 8003d2a:	d002      	beq.n	8003d32 <I2C_MasterTransmit_TXE+0x30>
 8003d2c:	f514 3f80 	cmn.w	r4, #65536	; 0x10000
 8003d30:	d119      	bne.n	8003d66 <I2C_MasterTransmit_TXE+0x64>
 8003d32:	6802      	ldr	r2, [r0, #0]
 8003d34:	6853      	ldr	r3, [r2, #4]
 8003d36:	f423 63e0 	bic.w	r3, r3, #1792	; 0x700
 8003d3a:	6053      	str	r3, [r2, #4]
 8003d3c:	6802      	ldr	r2, [r0, #0]
 8003d3e:	6813      	ldr	r3, [r2, #0]
 8003d40:	f443 7300 	orr.w	r3, r3, #512	; 0x200
 8003d44:	6013      	str	r3, [r2, #0]
 8003d46:	2300      	movs	r3, #0
 8003d48:	6303      	str	r3, [r0, #48]	; 0x30
 8003d4a:	2320      	movs	r3, #32
 8003d4c:	f880 303d 	strb.w	r3, [r0, #61]	; 0x3d
 8003d50:	f890 303e 	ldrb.w	r3, [r0, #62]	; 0x3e
 8003d54:	b2db      	uxtb	r3, r3
 8003d56:	2b40      	cmp	r3, #64	; 0x40
 8003d58:	d015      	beq.n	8003d86 <I2C_MasterTransmit_TXE+0x84>
 8003d5a:	2300      	movs	r3, #0
 8003d5c:	f880 303e 	strb.w	r3, [r0, #62]	; 0x3e
 8003d60:	f7ff fe56 	bl	8003a10 <HAL_I2C_MasterTxCpltCallback>
 8003d64:	e7dd      	b.n	8003d22 <I2C_MasterTransmit_TXE+0x20>
 8003d66:	6802      	ldr	r2, [r0, #0]
 8003d68:	6853      	ldr	r3, [r2, #4]
 8003d6a:	f423 63e0 	bic.w	r3, r3, #1792	; 0x700
 8003d6e:	6053      	str	r3, [r2, #4]
 8003d70:	2311      	movs	r3, #17
 8003d72:	6303      	str	r3, [r0, #48]	; 0x30
 8003d74:	2300      	movs	r3, #0
 8003d76:	f880 303e 	strb.w	r3, [r0, #62]	; 0x3e
 8003d7a:	2320      	movs	r3, #32
 8003d7c:	f880 303d 	strb.w	r3, [r0, #61]	; 0x3d
 8003d80:	f7ff fe46 	bl	8003a10 <HAL_I2C_MasterTxCpltCallback>
 8003d84:	e7cd      	b.n	8003d22 <I2C_MasterTransmit_TXE+0x20>
 8003d86:	2300      	movs	r3, #0
 8003d88:	f880 303e 	strb.w	r3, [r0, #62]	; 0x3e
 8003d8c:	f7ff ff0a 	bl	8003ba4 <HAL_I2C_MemTxCpltCallback>
 8003d90:	e7c7      	b.n	8003d22 <I2C_MasterTransmit_TXE+0x20>
 8003d92:	2b22      	cmp	r3, #34	; 0x22
 8003d94:	d1c5      	bne.n	8003d22 <I2C_MasterTransmit_TXE+0x20>
 8003d96:	8d43      	ldrh	r3, [r0, #42]	; 0x2a
 8003d98:	b29b      	uxth	r3, r3
 8003d9a:	b92b      	cbnz	r3, 8003da8 <I2C_MasterTransmit_TXE+0xa6>
 8003d9c:	6802      	ldr	r2, [r0, #0]
 8003d9e:	6853      	ldr	r3, [r2, #4]
 8003da0:	f423 6380 	bic.w	r3, r3, #1024	; 0x400
 8003da4:	6053      	str	r3, [r2, #4]
 8003da6:	e7bc      	b.n	8003d22 <I2C_MasterTransmit_TXE+0x20>
 8003da8:	f890 303e 	ldrb.w	r3, [r0, #62]	; 0x3e
 8003dac:	b2db      	uxtb	r3, r3
 8003dae:	2b40      	cmp	r3, #64	; 0x40
 8003db0:	d00c      	beq.n	8003dcc <I2C_MasterTransmit_TXE+0xca>
 8003db2:	6a42      	ldr	r2, [r0, #36]	; 0x24
 8003db4:	6803      	ldr	r3, [r0, #0]
 8003db6:	7812      	ldrb	r2, [r2, #0]
 8003db8:	611a      	str	r2, [r3, #16]
 8003dba:	6a43      	ldr	r3, [r0, #36]	; 0x24
 8003dbc:	3301      	adds	r3, #1
 8003dbe:	6243      	str	r3, [r0, #36]	; 0x24
 8003dc0:	8d43      	ldrh	r3, [r0, #42]	; 0x2a
 8003dc2:	b29b      	uxth	r3, r3
 8003dc4:	3b01      	subs	r3, #1
 8003dc6:	b29b      	uxth	r3, r3
 8003dc8:	8543      	strh	r3, [r0, #42]	; 0x2a
 8003dca:	e7aa      	b.n	8003d22 <I2C_MasterTransmit_TXE+0x20>
 8003dcc:	f7ff ff3a 	bl	8003c44 <I2C_MemoryTransmit_TXE_BTF>
 8003dd0:	e7a7      	b.n	8003d22 <I2C_MasterTransmit_TXE+0x20>

08003dd2 <HAL_I2C_MemRxCpltCallback>:
 8003dd2:	4770      	bx	lr

08003dd4 <I2C_MasterReceive_BTF>:
 8003dd4:	b508      	push	{r3, lr}
 8003dd6:	6ac2      	ldr	r2, [r0, #44]	; 0x2c
 8003dd8:	8d43      	ldrh	r3, [r0, #42]	; 0x2a
 8003dda:	b29b      	uxth	r3, r3
 8003ddc:	2b04      	cmp	r3, #4
 8003dde:	d014      	beq.n	8003e0a <I2C_MasterReceive_BTF+0x36>
 8003de0:	8d43      	ldrh	r3, [r0, #42]	; 0x2a
 8003de2:	b29b      	uxth	r3, r3
 8003de4:	2b03      	cmp	r3, #3
 8003de6:	d022      	beq.n	8003e2e <I2C_MasterReceive_BTF+0x5a>
 8003de8:	8d43      	ldrh	r3, [r0, #42]	; 0x2a
 8003dea:	b29b      	uxth	r3, r3
 8003dec:	2b02      	cmp	r3, #2
 8003dee:	d039      	beq.n	8003e64 <I2C_MasterReceive_BTF+0x90>
 8003df0:	6803      	ldr	r3, [r0, #0]
 8003df2:	691a      	ldr	r2, [r3, #16]
 8003df4:	6a43      	ldr	r3, [r0, #36]	; 0x24
 8003df6:	701a      	strb	r2, [r3, #0]
 8003df8:	6a43      	ldr	r3, [r0, #36]	; 0x24
 8003dfa:	3301      	adds	r3, #1
 8003dfc:	6243      	str	r3, [r0, #36]	; 0x24
 8003dfe:	8d43      	ldrh	r3, [r0, #42]	; 0x2a
 8003e00:	b29b      	uxth	r3, r3
 8003e02:	3b01      	subs	r3, #1
 8003e04:	b29b      	uxth	r3, r3
 8003e06:	8543      	strh	r3, [r0, #42]	; 0x2a
 8003e08:	e010      	b.n	8003e2c <I2C_MasterReceive_BTF+0x58>
 8003e0a:	6802      	ldr	r2, [r0, #0]
 8003e0c:	6853      	ldr	r3, [r2, #4]
 8003e0e:	f423 6380 	bic.w	r3, r3, #1024	; 0x400
 8003e12:	6053      	str	r3, [r2, #4]
 8003e14:	6803      	ldr	r3, [r0, #0]
 8003e16:	691a      	ldr	r2, [r3, #16]
 8003e18:	6a43      	ldr	r3, [r0, #36]	; 0x24
 8003e1a:	701a      	strb	r2, [r3, #0]
 8003e1c:	6a43      	ldr	r3, [r0, #36]	; 0x24
 8003e1e:	3301      	adds	r3, #1
 8003e20:	6243      	str	r3, [r0, #36]	; 0x24
 8003e22:	8d43      	ldrh	r3, [r0, #42]	; 0x2a
 8003e24:	b29b      	uxth	r3, r3
 8003e26:	3b01      	subs	r3, #1
 8003e28:	b29b      	uxth	r3, r3
 8003e2a:	8543      	strh	r3, [r0, #42]	; 0x2a
 8003e2c:	bd08      	pop	{r3, pc}
 8003e2e:	6801      	ldr	r1, [r0, #0]
 8003e30:	684b      	ldr	r3, [r1, #4]
 8003e32:	f423 6380 	bic.w	r3, r3, #1024	; 0x400
 8003e36:	604b      	str	r3, [r1, #4]
 8003e38:	2a04      	cmp	r2, #4
 8003e3a:	d006      	beq.n	8003e4a <I2C_MasterReceive_BTF+0x76>
 8003e3c:	2a02      	cmp	r2, #2
 8003e3e:	d004      	beq.n	8003e4a <I2C_MasterReceive_BTF+0x76>
 8003e40:	6802      	ldr	r2, [r0, #0]
 8003e42:	6813      	ldr	r3, [r2, #0]
 8003e44:	f423 6380 	bic.w	r3, r3, #1024	; 0x400
 8003e48:	6013      	str	r3, [r2, #0]
 8003e4a:	6803      	ldr	r3, [r0, #0]
 8003e4c:	691a      	ldr	r2, [r3, #16]
 8003e4e:	6a43      	ldr	r3, [r0, #36]	; 0x24
 8003e50:	701a      	strb	r2, [r3, #0]
 8003e52:	6a43      	ldr	r3, [r0, #36]	; 0x24
 8003e54:	3301      	adds	r3, #1
 8003e56:	6243      	str	r3, [r0, #36]	; 0x24
 8003e58:	8d43      	ldrh	r3, [r0, #42]	; 0x2a
 8003e5a:	b29b      	uxth	r3, r3
 8003e5c:	3b01      	subs	r3, #1
 8003e5e:	b29b      	uxth	r3, r3
 8003e60:	8543      	strh	r3, [r0, #42]	; 0x2a
 8003e62:	e7e3      	b.n	8003e2c <I2C_MasterReceive_BTF+0x58>
 8003e64:	2a01      	cmp	r2, #1
 8003e66:	d00b      	beq.n	8003e80 <I2C_MasterReceive_BTF+0xac>
 8003e68:	2a10      	cmp	r2, #16
 8003e6a:	d009      	beq.n	8003e80 <I2C_MasterReceive_BTF+0xac>
 8003e6c:	2a04      	cmp	r2, #4
 8003e6e:	d038      	beq.n	8003ee2 <I2C_MasterReceive_BTF+0x10e>
 8003e70:	2a02      	cmp	r2, #2
 8003e72:	d036      	beq.n	8003ee2 <I2C_MasterReceive_BTF+0x10e>
 8003e74:	6802      	ldr	r2, [r0, #0]
 8003e76:	6813      	ldr	r3, [r2, #0]
 8003e78:	f443 7300 	orr.w	r3, r3, #512	; 0x200
 8003e7c:	6013      	str	r3, [r2, #0]
 8003e7e:	e004      	b.n	8003e8a <I2C_MasterReceive_BTF+0xb6>
 8003e80:	6802      	ldr	r2, [r0, #0]
 8003e82:	6813      	ldr	r3, [r2, #0]
 8003e84:	f423 6380 	bic.w	r3, r3, #1024	; 0x400
 8003e88:	6013      	str	r3, [r2, #0]
 8003e8a:	6803      	ldr	r3, [r0, #0]
 8003e8c:	691a      	ldr	r2, [r3, #16]
 8003e8e:	6a43      	ldr	r3, [r0, #36]	; 0x24
 8003e90:	701a      	strb	r2, [r3, #0]
 8003e92:	6a42      	ldr	r2, [r0, #36]	; 0x24
 8003e94:	1c53      	adds	r3, r2, #1
 8003e96:	6243      	str	r3, [r0, #36]	; 0x24
 8003e98:	8d43      	ldrh	r3, [r0, #42]	; 0x2a
 8003e9a:	b29b      	uxth	r3, r3
 8003e9c:	3b01      	subs	r3, #1
 8003e9e:	b29b      	uxth	r3, r3
 8003ea0:	8543      	strh	r3, [r0, #42]	; 0x2a
 8003ea2:	6803      	ldr	r3, [r0, #0]
 8003ea4:	691b      	ldr	r3, [r3, #16]
 8003ea6:	7053      	strb	r3, [r2, #1]
 8003ea8:	6a43      	ldr	r3, [r0, #36]	; 0x24
 8003eaa:	3301      	adds	r3, #1
 8003eac:	6243      	str	r3, [r0, #36]	; 0x24
 8003eae:	8d43      	ldrh	r3, [r0, #42]	; 0x2a
 8003eb0:	b29b      	uxth	r3, r3
 8003eb2:	3b01      	subs	r3, #1
 8003eb4:	b29b      	uxth	r3, r3
 8003eb6:	8543      	strh	r3, [r0, #42]	; 0x2a
 8003eb8:	6802      	ldr	r2, [r0, #0]
 8003eba:	6853      	ldr	r3, [r2, #4]
 8003ebc:	f423 7340 	bic.w	r3, r3, #768	; 0x300
 8003ec0:	6053      	str	r3, [r2, #4]
 8003ec2:	2320      	movs	r3, #32
 8003ec4:	f880 303d 	strb.w	r3, [r0, #61]	; 0x3d
 8003ec8:	f890 303e 	ldrb.w	r3, [r0, #62]	; 0x3e
 8003ecc:	b2db      	uxtb	r3, r3
 8003ece:	2b40      	cmp	r3, #64	; 0x40
 8003ed0:	d00d      	beq.n	8003eee <I2C_MasterReceive_BTF+0x11a>
 8003ed2:	2300      	movs	r3, #0
 8003ed4:	f880 303e 	strb.w	r3, [r0, #62]	; 0x3e
 8003ed8:	2312      	movs	r3, #18
 8003eda:	6303      	str	r3, [r0, #48]	; 0x30
 8003edc:	f7ff fd99 	bl	8003a12 <HAL_I2C_MasterRxCpltCallback>
 8003ee0:	e7a4      	b.n	8003e2c <I2C_MasterReceive_BTF+0x58>
 8003ee2:	6802      	ldr	r2, [r0, #0]
 8003ee4:	6813      	ldr	r3, [r2, #0]
 8003ee6:	f443 6380 	orr.w	r3, r3, #1024	; 0x400
 8003eea:	6013      	str	r3, [r2, #0]
 8003eec:	e7cd      	b.n	8003e8a <I2C_MasterReceive_BTF+0xb6>
 8003eee:	2300      	movs	r3, #0
 8003ef0:	f880 303e 	strb.w	r3, [r0, #62]	; 0x3e
 8003ef4:	6303      	str	r3, [r0, #48]	; 0x30
 8003ef6:	f7ff ff6c 	bl	8003dd2 <HAL_I2C_MemRxCpltCallback>
 8003efa:	e797      	b.n	8003e2c <I2C_MasterReceive_BTF+0x58>

08003efc <HAL_I2C_ErrorCallback>:
 8003efc:	4770      	bx	lr

08003efe <I2C_MasterReceive_RXNE>:
 8003efe:	f890 303d 	ldrb.w	r3, [r0, #61]	; 0x3d
 8003f02:	b2db      	uxtb	r3, r3
 8003f04:	2b22      	cmp	r3, #34	; 0x22
 8003f06:	d000      	beq.n	8003f0a <I2C_MasterReceive_RXNE+0xc>
 8003f08:	4770      	bx	lr
 8003f0a:	b510      	push	{r4, lr}
 8003f0c:	4604      	mov	r4, r0
 8003f0e:	8d43      	ldrh	r3, [r0, #42]	; 0x2a
 8003f10:	b29b      	uxth	r3, r3
 8003f12:	2b03      	cmp	r3, #3
 8003f14:	d916      	bls.n	8003f44 <I2C_MasterReceive_RXNE+0x46>
 8003f16:	6803      	ldr	r3, [r0, #0]
 8003f18:	691a      	ldr	r2, [r3, #16]
 8003f1a:	6a43      	ldr	r3, [r0, #36]	; 0x24
 8003f1c:	701a      	strb	r2, [r3, #0]
 8003f1e:	6a43      	ldr	r3, [r0, #36]	; 0x24
 8003f20:	3301      	adds	r3, #1
 8003f22:	6243      	str	r3, [r0, #36]	; 0x24
 8003f24:	8d43      	ldrh	r3, [r0, #42]	; 0x2a
 8003f26:	b29b      	uxth	r3, r3
 8003f28:	3b01      	subs	r3, #1
 8003f2a:	b29b      	uxth	r3, r3
 8003f2c:	8543      	strh	r3, [r0, #42]	; 0x2a
 8003f2e:	8d43      	ldrh	r3, [r0, #42]	; 0x2a
 8003f30:	b29b      	uxth	r3, r3
 8003f32:	2b03      	cmp	r3, #3
 8003f34:	d000      	beq.n	8003f38 <I2C_MasterReceive_RXNE+0x3a>
 8003f36:	bd10      	pop	{r4, pc}
 8003f38:	6802      	ldr	r2, [r0, #0]
 8003f3a:	6853      	ldr	r3, [r2, #4]
 8003f3c:	f423 6380 	bic.w	r3, r3, #1024	; 0x400
 8003f40:	6053      	str	r3, [r2, #4]
 8003f42:	e7f8      	b.n	8003f36 <I2C_MasterReceive_RXNE+0x38>
 8003f44:	6ac2      	ldr	r2, [r0, #44]	; 0x2c
 8003f46:	2a02      	cmp	r2, #2
 8003f48:	d0f5      	beq.n	8003f36 <I2C_MasterReceive_RXNE+0x38>
 8003f4a:	2b01      	cmp	r3, #1
 8003f4c:	d8f3      	bhi.n	8003f36 <I2C_MasterReceive_RXNE+0x38>
 8003f4e:	f7ff f88f 	bl	8003070 <I2C_WaitOnSTOPRequestThroughIT>
 8003f52:	2800      	cmp	r0, #0
 8003f54:	d12e      	bne.n	8003fb4 <I2C_MasterReceive_RXNE+0xb6>
 8003f56:	6822      	ldr	r2, [r4, #0]
 8003f58:	6813      	ldr	r3, [r2, #0]
 8003f5a:	f423 6380 	bic.w	r3, r3, #1024	; 0x400
 8003f5e:	6013      	str	r3, [r2, #0]
 8003f60:	6822      	ldr	r2, [r4, #0]
 8003f62:	6853      	ldr	r3, [r2, #4]
 8003f64:	f423 63e0 	bic.w	r3, r3, #1792	; 0x700
 8003f68:	6053      	str	r3, [r2, #4]
 8003f6a:	6823      	ldr	r3, [r4, #0]
 8003f6c:	691a      	ldr	r2, [r3, #16]
 8003f6e:	6a63      	ldr	r3, [r4, #36]	; 0x24
 8003f70:	701a      	strb	r2, [r3, #0]
 8003f72:	6a63      	ldr	r3, [r4, #36]	; 0x24
 8003f74:	3301      	adds	r3, #1
 8003f76:	6263      	str	r3, [r4, #36]	; 0x24
 8003f78:	8d63      	ldrh	r3, [r4, #42]	; 0x2a
 8003f7a:	b29b      	uxth	r3, r3
 8003f7c:	3b01      	subs	r3, #1
 8003f7e:	b29b      	uxth	r3, r3
 8003f80:	8563      	strh	r3, [r4, #42]	; 0x2a
 8003f82:	2320      	movs	r3, #32
 8003f84:	f884 303d 	strb.w	r3, [r4, #61]	; 0x3d
 8003f88:	f894 303e 	ldrb.w	r3, [r4, #62]	; 0x3e
 8003f8c:	b2db      	uxtb	r3, r3
 8003f8e:	2b40      	cmp	r3, #64	; 0x40
 8003f90:	d008      	beq.n	8003fa4 <I2C_MasterReceive_RXNE+0xa6>
 8003f92:	2300      	movs	r3, #0
 8003f94:	f884 303e 	strb.w	r3, [r4, #62]	; 0x3e
 8003f98:	2312      	movs	r3, #18
 8003f9a:	6323      	str	r3, [r4, #48]	; 0x30
 8003f9c:	4620      	mov	r0, r4
 8003f9e:	f7ff fd38 	bl	8003a12 <HAL_I2C_MasterRxCpltCallback>
 8003fa2:	e7c8      	b.n	8003f36 <I2C_MasterReceive_RXNE+0x38>
 8003fa4:	2300      	movs	r3, #0
 8003fa6:	f884 303e 	strb.w	r3, [r4, #62]	; 0x3e
 8003faa:	6323      	str	r3, [r4, #48]	; 0x30
 8003fac:	4620      	mov	r0, r4
 8003fae:	f7ff ff10 	bl	8003dd2 <HAL_I2C_MemRxCpltCallback>
 8003fb2:	e7c0      	b.n	8003f36 <I2C_MasterReceive_RXNE+0x38>
 8003fb4:	6822      	ldr	r2, [r4, #0]
 8003fb6:	6853      	ldr	r3, [r2, #4]
 8003fb8:	f423 63e0 	bic.w	r3, r3, #1792	; 0x700
 8003fbc:	6053      	str	r3, [r2, #4]
 8003fbe:	6823      	ldr	r3, [r4, #0]
 8003fc0:	691a      	ldr	r2, [r3, #16]
 8003fc2:	6a63      	ldr	r3, [r4, #36]	; 0x24
 8003fc4:	701a      	strb	r2, [r3, #0]
 8003fc6:	6a63      	ldr	r3, [r4, #36]	; 0x24
 8003fc8:	3301      	adds	r3, #1
 8003fca:	6263      	str	r3, [r4, #36]	; 0x24
 8003fcc:	8d63      	ldrh	r3, [r4, #42]	; 0x2a
 8003fce:	b29b      	uxth	r3, r3
 8003fd0:	3b01      	subs	r3, #1
 8003fd2:	b29b      	uxth	r3, r3
 8003fd4:	8563      	strh	r3, [r4, #42]	; 0x2a
 8003fd6:	2320      	movs	r3, #32
 8003fd8:	f884 303d 	strb.w	r3, [r4, #61]	; 0x3d
 8003fdc:	2300      	movs	r3, #0
 8003fde:	f884 303e 	strb.w	r3, [r4, #62]	; 0x3e
 8003fe2:	4620      	mov	r0, r4
 8003fe4:	f7ff ff8a 	bl	8003efc <HAL_I2C_ErrorCallback>
 8003fe8:	e7a5      	b.n	8003f36 <I2C_MasterReceive_RXNE+0x38>

08003fea <HAL_I2C_AbortCpltCallback>:
 8003fea:	4770      	bx	lr

08003fec <I2C_DMAAbort>:
 8003fec:	b500      	push	{lr}
 8003fee:	b083      	sub	sp, #12
 8003ff0:	2300      	movs	r3, #0
 8003ff2:	9301      	str	r3, [sp, #4]
 8003ff4:	6a40      	ldr	r0, [r0, #36]	; 0x24
 8003ff6:	f890 203d 	ldrb.w	r2, [r0, #61]	; 0x3d
 8003ffa:	b2d2      	uxtb	r2, r2
 8003ffc:	4b32      	ldr	r3, [pc, #200]	; (80040c8 <I2C_DMAAbort+0xdc>)
 8003ffe:	681b      	ldr	r3, [r3, #0]
 8004000:	08db      	lsrs	r3, r3, #3
 8004002:	4932      	ldr	r1, [pc, #200]	; (80040cc <I2C_DMAAbort+0xe0>)
 8004004:	fba1 1303 	umull	r1, r3, r1, r3
 8004008:	0a1b      	lsrs	r3, r3, #8
 800400a:	eb03 0383 	add.w	r3, r3, r3, lsl #2
 800400e:	ebc3 03c3 	rsb	r3, r3, r3, lsl #3
 8004012:	9301      	str	r3, [sp, #4]
 8004014:	9b01      	ldr	r3, [sp, #4]
 8004016:	b143      	cbz	r3, 800402a <I2C_DMAAbort+0x3e>
 8004018:	9b01      	ldr	r3, [sp, #4]
 800401a:	3b01      	subs	r3, #1
 800401c:	9301      	str	r3, [sp, #4]
 800401e:	6803      	ldr	r3, [r0, #0]
 8004020:	681b      	ldr	r3, [r3, #0]
 8004022:	f413 7f00 	tst.w	r3, #512	; 0x200
 8004026:	d1f5      	bne.n	8004014 <I2C_DMAAbort+0x28>
 8004028:	e003      	b.n	8004032 <I2C_DMAAbort+0x46>
 800402a:	6c03      	ldr	r3, [r0, #64]	; 0x40
 800402c:	f043 0320 	orr.w	r3, r3, #32
 8004030:	6403      	str	r3, [r0, #64]	; 0x40
 8004032:	6b43      	ldr	r3, [r0, #52]	; 0x34
 8004034:	b10b      	cbz	r3, 800403a <I2C_DMAAbort+0x4e>
 8004036:	2100      	movs	r1, #0
 8004038:	6299      	str	r1, [r3, #40]	; 0x28
 800403a:	6b83      	ldr	r3, [r0, #56]	; 0x38
 800403c:	b10b      	cbz	r3, 8004042 <I2C_DMAAbort+0x56>
 800403e:	2100      	movs	r1, #0
 8004040:	6299      	str	r1, [r3, #40]	; 0x28
 8004042:	6801      	ldr	r1, [r0, #0]
 8004044:	680b      	ldr	r3, [r1, #0]
 8004046:	f423 6380 	bic.w	r3, r3, #1024	; 0x400
 800404a:	600b      	str	r3, [r1, #0]
 800404c:	2300      	movs	r3, #0
 800404e:	8543      	strh	r3, [r0, #42]	; 0x2a
 8004050:	6b43      	ldr	r3, [r0, #52]	; 0x34
 8004052:	b10b      	cbz	r3, 8004058 <I2C_DMAAbort+0x6c>
 8004054:	2100      	movs	r1, #0
 8004056:	6359      	str	r1, [r3, #52]	; 0x34
 8004058:	6b83      	ldr	r3, [r0, #56]	; 0x38
 800405a:	b10b      	cbz	r3, 8004060 <I2C_DMAAbort+0x74>
 800405c:	2100      	movs	r1, #0
 800405e:	6359      	str	r1, [r3, #52]	; 0x34
 8004060:	6801      	ldr	r1, [r0, #0]
 8004062:	680b      	ldr	r3, [r1, #0]
 8004064:	f023 0301 	bic.w	r3, r3, #1
 8004068:	600b      	str	r3, [r1, #0]
 800406a:	f890 303d 	ldrb.w	r3, [r0, #61]	; 0x3d
 800406e:	b2db      	uxtb	r3, r3
 8004070:	2b60      	cmp	r3, #96	; 0x60
 8004072:	d00e      	beq.n	8004092 <I2C_DMAAbort+0xa6>
 8004074:	f002 0228 	and.w	r2, r2, #40	; 0x28
 8004078:	2a28      	cmp	r2, #40	; 0x28
 800407a:	d014      	beq.n	80040a6 <I2C_DMAAbort+0xba>
 800407c:	2320      	movs	r3, #32
 800407e:	f880 303d 	strb.w	r3, [r0, #61]	; 0x3d
 8004082:	2300      	movs	r3, #0
 8004084:	f880 303e 	strb.w	r3, [r0, #62]	; 0x3e
 8004088:	f7ff ff38 	bl	8003efc <HAL_I2C_ErrorCallback>
 800408c:	b003      	add	sp, #12
 800408e:	f85d fb04 	ldr.w	pc, [sp], #4
 8004092:	2320      	movs	r3, #32
 8004094:	f880 303d 	strb.w	r3, [r0, #61]	; 0x3d
 8004098:	2300      	movs	r3, #0
 800409a:	f880 303e 	strb.w	r3, [r0, #62]	; 0x3e
 800409e:	6403      	str	r3, [r0, #64]	; 0x40
 80040a0:	f7ff ffa3 	bl	8003fea <HAL_I2C_AbortCpltCallback>
 80040a4:	e7f2      	b.n	800408c <I2C_DMAAbort+0xa0>
 80040a6:	6802      	ldr	r2, [r0, #0]
 80040a8:	6813      	ldr	r3, [r2, #0]
 80040aa:	f043 0301 	orr.w	r3, r3, #1
 80040ae:	6013      	str	r3, [r2, #0]
 80040b0:	6802      	ldr	r2, [r0, #0]
 80040b2:	6813      	ldr	r3, [r2, #0]
 80040b4:	f443 6380 	orr.w	r3, r3, #1024	; 0x400
 80040b8:	6013      	str	r3, [r2, #0]
 80040ba:	2300      	movs	r3, #0
 80040bc:	6303      	str	r3, [r0, #48]	; 0x30
 80040be:	2328      	movs	r3, #40	; 0x28
 80040c0:	f880 303d 	strb.w	r3, [r0, #61]	; 0x3d
 80040c4:	e7e0      	b.n	8004088 <I2C_DMAAbort+0x9c>
 80040c6:	bf00      	nop
 80040c8:	20000008 	.word	0x20000008
 80040cc:	14f8b589 	.word	0x14f8b589

080040d0 <I2C_ITError>:
 80040d0:	b510      	push	{r4, lr}
 80040d2:	4604      	mov	r4, r0
 80040d4:	f890 303d 	ldrb.w	r3, [r0, #61]	; 0x3d
 80040d8:	b2db      	uxtb	r3, r3
 80040da:	f890 203e 	ldrb.w	r2, [r0, #62]	; 0x3e
 80040de:	b2d2      	uxtb	r2, r2
 80040e0:	2a10      	cmp	r2, #16
 80040e2:	d035      	beq.n	8004150 <I2C_ITError+0x80>
 80040e4:	2a40      	cmp	r2, #64	; 0x40
 80040e6:	d033      	beq.n	8004150 <I2C_ITError+0x80>
 80040e8:	f003 0228 	and.w	r2, r3, #40	; 0x28
 80040ec:	2a28      	cmp	r2, #40	; 0x28
 80040ee:	d037      	beq.n	8004160 <I2C_ITError+0x90>
 80040f0:	6822      	ldr	r2, [r4, #0]
 80040f2:	6852      	ldr	r2, [r2, #4]
 80040f4:	f412 6f00 	tst.w	r2, #2048	; 0x800
 80040f8:	d107      	bne.n	800410a <I2C_ITError+0x3a>
 80040fa:	2b60      	cmp	r3, #96	; 0x60
 80040fc:	d005      	beq.n	800410a <I2C_ITError+0x3a>
 80040fe:	2320      	movs	r3, #32
 8004100:	f884 303d 	strb.w	r3, [r4, #61]	; 0x3d
 8004104:	2300      	movs	r3, #0
 8004106:	f884 303e 	strb.w	r3, [r4, #62]	; 0x3e
 800410a:	2300      	movs	r3, #0
 800410c:	6323      	str	r3, [r4, #48]	; 0x30
 800410e:	6823      	ldr	r3, [r4, #0]
 8004110:	685a      	ldr	r2, [r3, #4]
 8004112:	f412 6f00 	tst.w	r2, #2048	; 0x800
 8004116:	d047      	beq.n	80041a8 <I2C_ITError+0xd8>
 8004118:	685a      	ldr	r2, [r3, #4]
 800411a:	f422 6200 	bic.w	r2, r2, #2048	; 0x800
 800411e:	605a      	str	r2, [r3, #4]
 8004120:	6b63      	ldr	r3, [r4, #52]	; 0x34
 8004122:	f893 2021 	ldrb.w	r2, [r3, #33]	; 0x21
 8004126:	2a01      	cmp	r2, #1
 8004128:	d020      	beq.n	800416c <I2C_ITError+0x9c>
 800412a:	4a44      	ldr	r2, [pc, #272]	; (800423c <I2C_ITError+0x16c>)
 800412c:	635a      	str	r2, [r3, #52]	; 0x34
 800412e:	6b60      	ldr	r0, [r4, #52]	; 0x34
 8004130:	f7fe fbfa 	bl	8002928 <HAL_DMA_Abort_IT>
 8004134:	2800      	cmp	r0, #0
 8004136:	d049      	beq.n	80041cc <I2C_ITError+0xfc>
 8004138:	6822      	ldr	r2, [r4, #0]
 800413a:	6813      	ldr	r3, [r2, #0]
 800413c:	f023 0301 	bic.w	r3, r3, #1
 8004140:	6013      	str	r3, [r2, #0]
 8004142:	2320      	movs	r3, #32
 8004144:	f884 303d 	strb.w	r3, [r4, #61]	; 0x3d
 8004148:	6b60      	ldr	r0, [r4, #52]	; 0x34
 800414a:	6b43      	ldr	r3, [r0, #52]	; 0x34
 800414c:	4798      	blx	r3
 800414e:	e03d      	b.n	80041cc <I2C_ITError+0xfc>
 8004150:	2b22      	cmp	r3, #34	; 0x22
 8004152:	d1c9      	bne.n	80040e8 <I2C_ITError+0x18>
 8004154:	6821      	ldr	r1, [r4, #0]
 8004156:	680a      	ldr	r2, [r1, #0]
 8004158:	f422 6200 	bic.w	r2, r2, #2048	; 0x800
 800415c:	600a      	str	r2, [r1, #0]
 800415e:	e7c3      	b.n	80040e8 <I2C_ITError+0x18>
 8004160:	2300      	movs	r3, #0
 8004162:	6323      	str	r3, [r4, #48]	; 0x30
 8004164:	2328      	movs	r3, #40	; 0x28
 8004166:	f884 303d 	strb.w	r3, [r4, #61]	; 0x3d
 800416a:	e7d0      	b.n	800410e <I2C_ITError+0x3e>
 800416c:	6ba3      	ldr	r3, [r4, #56]	; 0x38
 800416e:	4a33      	ldr	r2, [pc, #204]	; (800423c <I2C_ITError+0x16c>)
 8004170:	635a      	str	r2, [r3, #52]	; 0x34
 8004172:	6ba0      	ldr	r0, [r4, #56]	; 0x38
 8004174:	f7fe fbd8 	bl	8002928 <HAL_DMA_Abort_IT>
 8004178:	b340      	cbz	r0, 80041cc <I2C_ITError+0xfc>
 800417a:	6823      	ldr	r3, [r4, #0]
 800417c:	695a      	ldr	r2, [r3, #20]
 800417e:	f012 0f40 	tst.w	r2, #64	; 0x40
 8004182:	d005      	beq.n	8004190 <I2C_ITError+0xc0>
 8004184:	691a      	ldr	r2, [r3, #16]
 8004186:	6a63      	ldr	r3, [r4, #36]	; 0x24
 8004188:	701a      	strb	r2, [r3, #0]
 800418a:	6a63      	ldr	r3, [r4, #36]	; 0x24
 800418c:	3301      	adds	r3, #1
 800418e:	6263      	str	r3, [r4, #36]	; 0x24
 8004190:	6822      	ldr	r2, [r4, #0]
 8004192:	6813      	ldr	r3, [r2, #0]
 8004194:	f023 0301 	bic.w	r3, r3, #1
 8004198:	6013      	str	r3, [r2, #0]
 800419a:	2320      	movs	r3, #32
 800419c:	f884 303d 	strb.w	r3, [r4, #61]	; 0x3d
 80041a0:	6ba0      	ldr	r0, [r4, #56]	; 0x38
 80041a2:	6b43      	ldr	r3, [r0, #52]	; 0x34
 80041a4:	4798      	blx	r3
 80041a6:	e011      	b.n	80041cc <I2C_ITError+0xfc>
 80041a8:	f894 203d 	ldrb.w	r2, [r4, #61]	; 0x3d
 80041ac:	b2d2      	uxtb	r2, r2
 80041ae:	2a60      	cmp	r2, #96	; 0x60
 80041b0:	d01f      	beq.n	80041f2 <I2C_ITError+0x122>
 80041b2:	695a      	ldr	r2, [r3, #20]
 80041b4:	f012 0f40 	tst.w	r2, #64	; 0x40
 80041b8:	d005      	beq.n	80041c6 <I2C_ITError+0xf6>
 80041ba:	691a      	ldr	r2, [r3, #16]
 80041bc:	6a63      	ldr	r3, [r4, #36]	; 0x24
 80041be:	701a      	strb	r2, [r3, #0]
 80041c0:	6a63      	ldr	r3, [r4, #36]	; 0x24
 80041c2:	3301      	adds	r3, #1
 80041c4:	6263      	str	r3, [r4, #36]	; 0x24
 80041c6:	4620      	mov	r0, r4
 80041c8:	f7ff fe98 	bl	8003efc <HAL_I2C_ErrorCallback>
 80041cc:	6c23      	ldr	r3, [r4, #64]	; 0x40
 80041ce:	f013 0f0f 	tst.w	r3, #15
 80041d2:	d004      	beq.n	80041de <I2C_ITError+0x10e>
 80041d4:	6822      	ldr	r2, [r4, #0]
 80041d6:	6853      	ldr	r3, [r2, #4]
 80041d8:	f423 63e0 	bic.w	r3, r3, #1792	; 0x700
 80041dc:	6053      	str	r3, [r2, #4]
 80041de:	f894 303d 	ldrb.w	r3, [r4, #61]	; 0x3d
 80041e2:	b2db      	uxtb	r3, r3
 80041e4:	6c22      	ldr	r2, [r4, #64]	; 0x40
 80041e6:	f012 0f04 	tst.w	r2, #4
 80041ea:	d001      	beq.n	80041f0 <I2C_ITError+0x120>
 80041ec:	2b28      	cmp	r3, #40	; 0x28
 80041ee:	d018      	beq.n	8004222 <I2C_ITError+0x152>
 80041f0:	bd10      	pop	{r4, pc}
 80041f2:	2220      	movs	r2, #32
 80041f4:	f884 203d 	strb.w	r2, [r4, #61]	; 0x3d
 80041f8:	2200      	movs	r2, #0
 80041fa:	6422      	str	r2, [r4, #64]	; 0x40
 80041fc:	695a      	ldr	r2, [r3, #20]
 80041fe:	f012 0f40 	tst.w	r2, #64	; 0x40
 8004202:	d005      	beq.n	8004210 <I2C_ITError+0x140>
 8004204:	691a      	ldr	r2, [r3, #16]
 8004206:	6a63      	ldr	r3, [r4, #36]	; 0x24
 8004208:	701a      	strb	r2, [r3, #0]
 800420a:	6a63      	ldr	r3, [r4, #36]	; 0x24
 800420c:	3301      	adds	r3, #1
 800420e:	6263      	str	r3, [r4, #36]	; 0x24
 8004210:	6822      	ldr	r2, [r4, #0]
 8004212:	6813      	ldr	r3, [r2, #0]
 8004214:	f023 0301 	bic.w	r3, r3, #1
 8004218:	6013      	str	r3, [r2, #0]
 800421a:	4620      	mov	r0, r4
 800421c:	f7ff fee5 	bl	8003fea <HAL_I2C_AbortCpltCallback>
 8004220:	e7d4      	b.n	80041cc <I2C_ITError+0xfc>
 8004222:	4b07      	ldr	r3, [pc, #28]	; (8004240 <I2C_ITError+0x170>)
 8004224:	62e3      	str	r3, [r4, #44]	; 0x2c
 8004226:	2300      	movs	r3, #0
 8004228:	6323      	str	r3, [r4, #48]	; 0x30
 800422a:	2220      	movs	r2, #32
 800422c:	f884 203d 	strb.w	r2, [r4, #61]	; 0x3d
 8004230:	f884 303e 	strb.w	r3, [r4, #62]	; 0x3e
 8004234:	4620      	mov	r0, r4
 8004236:	f7ff fc69 	bl	8003b0c <HAL_I2C_ListenCpltCallback>
 800423a:	e7d9      	b.n	80041f0 <I2C_ITError+0x120>
 800423c:	08003fed 	.word	0x08003fed
 8004240:	ffff0000 	.word	0xffff0000

08004244 <I2C_Slave_STOPF>:
 8004244:	b530      	push	{r4, r5, lr}
 8004246:	b083      	sub	sp, #12
 8004248:	4604      	mov	r4, r0
 800424a:	f890 503d 	ldrb.w	r5, [r0, #61]	; 0x3d
 800424e:	b2ed      	uxtb	r5, r5
 8004250:	6802      	ldr	r2, [r0, #0]
 8004252:	6853      	ldr	r3, [r2, #4]
 8004254:	f423 63e0 	bic.w	r3, r3, #1792	; 0x700
 8004258:	6053      	str	r3, [r2, #4]
 800425a:	2300      	movs	r3, #0
 800425c:	9301      	str	r3, [sp, #4]
 800425e:	6803      	ldr	r3, [r0, #0]
 8004260:	695a      	ldr	r2, [r3, #20]
 8004262:	9201      	str	r2, [sp, #4]
 8004264:	681a      	ldr	r2, [r3, #0]
 8004266:	f042 0201 	orr.w	r2, r2, #1
 800426a:	601a      	str	r2, [r3, #0]
 800426c:	9b01      	ldr	r3, [sp, #4]
 800426e:	6802      	ldr	r2, [r0, #0]
 8004270:	6813      	ldr	r3, [r2, #0]
 8004272:	f423 6380 	bic.w	r3, r3, #1024	; 0x400
 8004276:	6013      	str	r3, [r2, #0]
 8004278:	6803      	ldr	r3, [r0, #0]
 800427a:	685a      	ldr	r2, [r3, #4]
 800427c:	f412 6f00 	tst.w	r2, #2048	; 0x800
 8004280:	d038      	beq.n	80042f4 <I2C_Slave_STOPF+0xb0>
 8004282:	2d22      	cmp	r5, #34	; 0x22
 8004284:	d021      	beq.n	80042ca <I2C_Slave_STOPF+0x86>
 8004286:	2d2a      	cmp	r5, #42	; 0x2a
 8004288:	d01f      	beq.n	80042ca <I2C_Slave_STOPF+0x86>
 800428a:	6b42      	ldr	r2, [r0, #52]	; 0x34
 800428c:	6812      	ldr	r2, [r2, #0]
 800428e:	6852      	ldr	r2, [r2, #4]
 8004290:	b292      	uxth	r2, r2
 8004292:	8542      	strh	r2, [r0, #42]	; 0x2a
 8004294:	8d42      	ldrh	r2, [r0, #42]	; 0x2a
 8004296:	b292      	uxth	r2, r2
 8004298:	b11a      	cbz	r2, 80042a2 <I2C_Slave_STOPF+0x5e>
 800429a:	6c02      	ldr	r2, [r0, #64]	; 0x40
 800429c:	f042 0204 	orr.w	r2, r2, #4
 80042a0:	6402      	str	r2, [r0, #64]	; 0x40
 80042a2:	685a      	ldr	r2, [r3, #4]
 80042a4:	f422 6200 	bic.w	r2, r2, #2048	; 0x800
 80042a8:	605a      	str	r2, [r3, #4]
 80042aa:	6b60      	ldr	r0, [r4, #52]	; 0x34
 80042ac:	f7fe fc2a 	bl	8002b04 <HAL_DMA_GetState>
 80042b0:	2801      	cmp	r0, #1
 80042b2:	d01f      	beq.n	80042f4 <I2C_Slave_STOPF+0xb0>
 80042b4:	6b63      	ldr	r3, [r4, #52]	; 0x34
 80042b6:	4a44      	ldr	r2, [pc, #272]	; (80043c8 <I2C_Slave_STOPF+0x184>)
 80042b8:	635a      	str	r2, [r3, #52]	; 0x34
 80042ba:	6b60      	ldr	r0, [r4, #52]	; 0x34
 80042bc:	f7fe fb34 	bl	8002928 <HAL_DMA_Abort_IT>
 80042c0:	b1c0      	cbz	r0, 80042f4 <I2C_Slave_STOPF+0xb0>
 80042c2:	6b60      	ldr	r0, [r4, #52]	; 0x34
 80042c4:	6b43      	ldr	r3, [r0, #52]	; 0x34
 80042c6:	4798      	blx	r3
 80042c8:	e014      	b.n	80042f4 <I2C_Slave_STOPF+0xb0>
 80042ca:	6ba2      	ldr	r2, [r4, #56]	; 0x38
 80042cc:	6812      	ldr	r2, [r2, #0]
 80042ce:	6852      	ldr	r2, [r2, #4]
 80042d0:	b292      	uxth	r2, r2
 80042d2:	8562      	strh	r2, [r4, #42]	; 0x2a
 80042d4:	8d62      	ldrh	r2, [r4, #42]	; 0x2a
 80042d6:	b292      	uxth	r2, r2
 80042d8:	b11a      	cbz	r2, 80042e2 <I2C_Slave_STOPF+0x9e>
 80042da:	6c22      	ldr	r2, [r4, #64]	; 0x40
 80042dc:	f042 0204 	orr.w	r2, r2, #4
 80042e0:	6422      	str	r2, [r4, #64]	; 0x40
 80042e2:	685a      	ldr	r2, [r3, #4]
 80042e4:	f422 6200 	bic.w	r2, r2, #2048	; 0x800
 80042e8:	605a      	str	r2, [r3, #4]
 80042ea:	6ba0      	ldr	r0, [r4, #56]	; 0x38
 80042ec:	f7fe fc0a 	bl	8002b04 <HAL_DMA_GetState>
 80042f0:	2801      	cmp	r0, #1
 80042f2:	d142      	bne.n	800437a <I2C_Slave_STOPF+0x136>
 80042f4:	8d63      	ldrh	r3, [r4, #42]	; 0x2a
 80042f6:	b29b      	uxth	r3, r3
 80042f8:	b333      	cbz	r3, 8004348 <I2C_Slave_STOPF+0x104>
 80042fa:	6823      	ldr	r3, [r4, #0]
 80042fc:	695a      	ldr	r2, [r3, #20]
 80042fe:	f012 0f04 	tst.w	r2, #4
 8004302:	d00a      	beq.n	800431a <I2C_Slave_STOPF+0xd6>
 8004304:	691a      	ldr	r2, [r3, #16]
 8004306:	6a63      	ldr	r3, [r4, #36]	; 0x24
 8004308:	701a      	strb	r2, [r3, #0]
 800430a:	6a63      	ldr	r3, [r4, #36]	; 0x24
 800430c:	3301      	adds	r3, #1
 800430e:	6263      	str	r3, [r4, #36]	; 0x24
 8004310:	8d63      	ldrh	r3, [r4, #42]	; 0x2a
 8004312:	b29b      	uxth	r3, r3
 8004314:	3b01      	subs	r3, #1
 8004316:	b29b      	uxth	r3, r3
 8004318:	8563      	strh	r3, [r4, #42]	; 0x2a
 800431a:	6823      	ldr	r3, [r4, #0]
 800431c:	695a      	ldr	r2, [r3, #20]
 800431e:	f012 0f40 	tst.w	r2, #64	; 0x40
 8004322:	d00a      	beq.n	800433a <I2C_Slave_STOPF+0xf6>
 8004324:	691a      	ldr	r2, [r3, #16]
 8004326:	6a63      	ldr	r3, [r4, #36]	; 0x24
 8004328:	701a      	strb	r2, [r3, #0]
 800432a:	6a63      	ldr	r3, [r4, #36]	; 0x24
 800432c:	3301      	adds	r3, #1
 800432e:	6263      	str	r3, [r4, #36]	; 0x24
 8004330:	8d63      	ldrh	r3, [r4, #42]	; 0x2a
 8004332:	b29b      	uxth	r3, r3
 8004334:	3b01      	subs	r3, #1
 8004336:	b29b      	uxth	r3, r3
 8004338:	8563      	strh	r3, [r4, #42]	; 0x2a
 800433a:	8d63      	ldrh	r3, [r4, #42]	; 0x2a
 800433c:	b29b      	uxth	r3, r3
 800433e:	b11b      	cbz	r3, 8004348 <I2C_Slave_STOPF+0x104>
 8004340:	6c23      	ldr	r3, [r4, #64]	; 0x40
 8004342:	f043 0304 	orr.w	r3, r3, #4
 8004346:	6423      	str	r3, [r4, #64]	; 0x40
 8004348:	6c23      	ldr	r3, [r4, #64]	; 0x40
 800434a:	bb13      	cbnz	r3, 8004392 <I2C_Slave_STOPF+0x14e>
 800434c:	2d2a      	cmp	r5, #42	; 0x2a
 800434e:	d025      	beq.n	800439c <I2C_Slave_STOPF+0x158>
 8004350:	f894 303d 	ldrb.w	r3, [r4, #61]	; 0x3d
 8004354:	b2db      	uxtb	r3, r3
 8004356:	2b28      	cmp	r3, #40	; 0x28
 8004358:	d029      	beq.n	80043ae <I2C_Slave_STOPF+0x16a>
 800435a:	6b23      	ldr	r3, [r4, #48]	; 0x30
 800435c:	2b22      	cmp	r3, #34	; 0x22
 800435e:	d001      	beq.n	8004364 <I2C_Slave_STOPF+0x120>
 8004360:	2d22      	cmp	r5, #34	; 0x22
 8004362:	d119      	bne.n	8004398 <I2C_Slave_STOPF+0x154>
 8004364:	2300      	movs	r3, #0
 8004366:	6323      	str	r3, [r4, #48]	; 0x30
 8004368:	2220      	movs	r2, #32
 800436a:	f884 203d 	strb.w	r2, [r4, #61]	; 0x3d
 800436e:	f884 303e 	strb.w	r3, [r4, #62]	; 0x3e
 8004372:	4620      	mov	r0, r4
 8004374:	f7ff fb75 	bl	8003a62 <HAL_I2C_SlaveRxCpltCallback>
 8004378:	e00e      	b.n	8004398 <I2C_Slave_STOPF+0x154>
 800437a:	6ba3      	ldr	r3, [r4, #56]	; 0x38
 800437c:	4a12      	ldr	r2, [pc, #72]	; (80043c8 <I2C_Slave_STOPF+0x184>)
 800437e:	635a      	str	r2, [r3, #52]	; 0x34
 8004380:	6ba0      	ldr	r0, [r4, #56]	; 0x38
 8004382:	f7fe fad1 	bl	8002928 <HAL_DMA_Abort_IT>
 8004386:	2800      	cmp	r0, #0
 8004388:	d0b4      	beq.n	80042f4 <I2C_Slave_STOPF+0xb0>
 800438a:	6ba0      	ldr	r0, [r4, #56]	; 0x38
 800438c:	6b43      	ldr	r3, [r0, #52]	; 0x34
 800438e:	4798      	blx	r3
 8004390:	e7b0      	b.n	80042f4 <I2C_Slave_STOPF+0xb0>
 8004392:	4620      	mov	r0, r4
 8004394:	f7ff fe9c 	bl	80040d0 <I2C_ITError>
 8004398:	b003      	add	sp, #12
 800439a:	bd30      	pop	{r4, r5, pc}
 800439c:	2300      	movs	r3, #0
 800439e:	6323      	str	r3, [r4, #48]	; 0x30
 80043a0:	2328      	movs	r3, #40	; 0x28
 80043a2:	f884 303d 	strb.w	r3, [r4, #61]	; 0x3d
 80043a6:	4620      	mov	r0, r4
 80043a8:	f7ff fb5b 	bl	8003a62 <HAL_I2C_SlaveRxCpltCallback>
 80043ac:	e7d0      	b.n	8004350 <I2C_Slave_STOPF+0x10c>
 80043ae:	4b07      	ldr	r3, [pc, #28]	; (80043cc <I2C_Slave_STOPF+0x188>)
 80043b0:	62e3      	str	r3, [r4, #44]	; 0x2c
 80043b2:	2300      	movs	r3, #0
 80043b4:	6323      	str	r3, [r4, #48]	; 0x30
 80043b6:	2220      	movs	r2, #32
 80043b8:	f884 203d 	strb.w	r2, [r4, #61]	; 0x3d
 80043bc:	f884 303e 	strb.w	r3, [r4, #62]	; 0x3e
 80043c0:	4620      	mov	r0, r4
 80043c2:	f7ff fba3 	bl	8003b0c <HAL_I2C_ListenCpltCallback>
 80043c6:	e7e7      	b.n	8004398 <I2C_Slave_STOPF+0x154>
 80043c8:	08003fed 	.word	0x08003fed
 80043cc:	ffff0000 	.word	0xffff0000

080043d0 <HAL_I2C_EV_IRQHandler>:
 80043d0:	b5f8      	push	{r3, r4, r5, r6, r7, lr}
 80043d2:	4604      	mov	r4, r0
 80043d4:	6802      	ldr	r2, [r0, #0]
 80043d6:	6855      	ldr	r5, [r2, #4]
 80043d8:	6ac6      	ldr	r6, [r0, #44]	; 0x2c
 80043da:	f890 303e 	ldrb.w	r3, [r0, #62]	; 0x3e
 80043de:	b2db      	uxtb	r3, r3
 80043e0:	f890 103d 	ldrb.w	r1, [r0, #61]	; 0x3d
 80043e4:	b2c8      	uxtb	r0, r1
 80043e6:	2b10      	cmp	r3, #16
 80043e8:	d013      	beq.n	8004412 <HAL_I2C_EV_IRQHandler+0x42>
 80043ea:	2b40      	cmp	r3, #64	; 0x40
 80043ec:	d011      	beq.n	8004412 <HAL_I2C_EV_IRQHandler+0x42>
 80043ee:	6c23      	ldr	r3, [r4, #64]	; 0x40
 80043f0:	2b00      	cmp	r3, #0
 80043f2:	d07a      	beq.n	80044ea <HAL_I2C_EV_IRQHandler+0x11a>
 80043f4:	6953      	ldr	r3, [r2, #20]
 80043f6:	2100      	movs	r1, #0
 80043f8:	f013 0f02 	tst.w	r3, #2
 80043fc:	d078      	beq.n	80044f0 <HAL_I2C_EV_IRQHandler+0x120>
 80043fe:	f415 7f00 	tst.w	r5, #512	; 0x200
 8004402:	d075      	beq.n	80044f0 <HAL_I2C_EV_IRQHandler+0x120>
 8004404:	6c23      	ldr	r3, [r4, #64]	; 0x40
 8004406:	b103      	cbz	r3, 800440a <HAL_I2C_EV_IRQHandler+0x3a>
 8004408:	6991      	ldr	r1, [r2, #24]
 800440a:	4620      	mov	r0, r4
 800440c:	f7ff fb51 	bl	8003ab2 <I2C_Slave_ADDR>
 8004410:	bdf8      	pop	{r3, r4, r5, r6, r7, pc}
 8004412:	f8d2 c018 	ldr.w	ip, [r2, #24]
 8004416:	6951      	ldr	r1, [r2, #20]
 8004418:	f011 0701 	ands.w	r7, r1, #1
 800441c:	d105      	bne.n	800442a <HAL_I2C_EV_IRQHandler+0x5a>
 800441e:	f5b6 0f2a 	cmp.w	r6, #11141120	; 0xaa0000
 8004422:	d0f5      	beq.n	8004410 <HAL_I2C_EV_IRQHandler+0x40>
 8004424:	f1b6 4f2a 	cmp.w	r6, #2852126720	; 0xaa000000
 8004428:	d0f2      	beq.n	8004410 <HAL_I2C_EV_IRQHandler+0x40>
 800442a:	b117      	cbz	r7, 8004432 <HAL_I2C_EV_IRQHandler+0x62>
 800442c:	f415 7f00 	tst.w	r5, #512	; 0x200
 8004430:	d129      	bne.n	8004486 <HAL_I2C_EV_IRQHandler+0xb6>
 8004432:	f011 0f08 	tst.w	r1, #8
 8004436:	d002      	beq.n	800443e <HAL_I2C_EV_IRQHandler+0x6e>
 8004438:	f415 7f00 	tst.w	r5, #512	; 0x200
 800443c:	d12a      	bne.n	8004494 <HAL_I2C_EV_IRQHandler+0xc4>
 800443e:	f011 0f02 	tst.w	r1, #2
 8004442:	d002      	beq.n	800444a <HAL_I2C_EV_IRQHandler+0x7a>
 8004444:	f415 7f00 	tst.w	r5, #512	; 0x200
 8004448:	d128      	bne.n	800449c <HAL_I2C_EV_IRQHandler+0xcc>
 800444a:	f01c 0f04 	tst.w	ip, #4
 800444e:	d031      	beq.n	80044b4 <HAL_I2C_EV_IRQHandler+0xe4>
 8004450:	6852      	ldr	r2, [r2, #4]
 8004452:	f412 6f00 	tst.w	r2, #2048	; 0x800
 8004456:	d1db      	bne.n	8004410 <HAL_I2C_EV_IRQHandler+0x40>
 8004458:	f011 0f80 	tst.w	r1, #128	; 0x80
 800445c:	d005      	beq.n	800446a <HAL_I2C_EV_IRQHandler+0x9a>
 800445e:	f415 6f80 	tst.w	r5, #1024	; 0x400
 8004462:	d002      	beq.n	800446a <HAL_I2C_EV_IRQHandler+0x9a>
 8004464:	f011 0f04 	tst.w	r1, #4
 8004468:	d01c      	beq.n	80044a4 <HAL_I2C_EV_IRQHandler+0xd4>
 800446a:	f011 0f04 	tst.w	r1, #4
 800446e:	d0cf      	beq.n	8004410 <HAL_I2C_EV_IRQHandler+0x40>
 8004470:	f415 7f00 	tst.w	r5, #512	; 0x200
 8004474:	d0cc      	beq.n	8004410 <HAL_I2C_EV_IRQHandler+0x40>
 8004476:	2821      	cmp	r0, #33	; 0x21
 8004478:	d018      	beq.n	80044ac <HAL_I2C_EV_IRQHandler+0xdc>
 800447a:	2b40      	cmp	r3, #64	; 0x40
 800447c:	d1c8      	bne.n	8004410 <HAL_I2C_EV_IRQHandler+0x40>
 800447e:	4620      	mov	r0, r4
 8004480:	f7ff fbe0 	bl	8003c44 <I2C_MemoryTransmit_TXE_BTF>
 8004484:	e7c4      	b.n	8004410 <HAL_I2C_EV_IRQHandler+0x40>
 8004486:	4620      	mov	r0, r4
 8004488:	f7fe fe16 	bl	80030b8 <I2C_ConvertOtherXferOptions>
 800448c:	4620      	mov	r0, r4
 800448e:	f7fe fc5a 	bl	8002d46 <I2C_Master_SB>
 8004492:	e7bd      	b.n	8004410 <HAL_I2C_EV_IRQHandler+0x40>
 8004494:	4620      	mov	r0, r4
 8004496:	f7fe fcaa 	bl	8002dee <I2C_Master_ADD10>
 800449a:	e7b9      	b.n	8004410 <HAL_I2C_EV_IRQHandler+0x40>
 800449c:	4620      	mov	r0, r4
 800449e:	f7fe fcbb 	bl	8002e18 <I2C_Master_ADDR>
 80044a2:	e7b5      	b.n	8004410 <HAL_I2C_EV_IRQHandler+0x40>
 80044a4:	4620      	mov	r0, r4
 80044a6:	f7ff fc2c 	bl	8003d02 <I2C_MasterTransmit_TXE>
 80044aa:	e7b1      	b.n	8004410 <HAL_I2C_EV_IRQHandler+0x40>
 80044ac:	4620      	mov	r0, r4
 80044ae:	f7ff fb7a 	bl	8003ba6 <I2C_MasterTransmit_BTF>
 80044b2:	e7ad      	b.n	8004410 <HAL_I2C_EV_IRQHandler+0x40>
 80044b4:	6853      	ldr	r3, [r2, #4]
 80044b6:	f413 6f00 	tst.w	r3, #2048	; 0x800
 80044ba:	d1a9      	bne.n	8004410 <HAL_I2C_EV_IRQHandler+0x40>
 80044bc:	f011 0f40 	tst.w	r1, #64	; 0x40
 80044c0:	d005      	beq.n	80044ce <HAL_I2C_EV_IRQHandler+0xfe>
 80044c2:	f415 6f80 	tst.w	r5, #1024	; 0x400
 80044c6:	d002      	beq.n	80044ce <HAL_I2C_EV_IRQHandler+0xfe>
 80044c8:	f011 0f04 	tst.w	r1, #4
 80044cc:	d009      	beq.n	80044e2 <HAL_I2C_EV_IRQHandler+0x112>
 80044ce:	f011 0f04 	tst.w	r1, #4
 80044d2:	d09d      	beq.n	8004410 <HAL_I2C_EV_IRQHandler+0x40>
 80044d4:	f415 7f00 	tst.w	r5, #512	; 0x200
 80044d8:	d09a      	beq.n	8004410 <HAL_I2C_EV_IRQHandler+0x40>
 80044da:	4620      	mov	r0, r4
 80044dc:	f7ff fc7a 	bl	8003dd4 <I2C_MasterReceive_BTF>
 80044e0:	e796      	b.n	8004410 <HAL_I2C_EV_IRQHandler+0x40>
 80044e2:	4620      	mov	r0, r4
 80044e4:	f7ff fd0b 	bl	8003efe <I2C_MasterReceive_RXNE>
 80044e8:	e792      	b.n	8004410 <HAL_I2C_EV_IRQHandler+0x40>
 80044ea:	6991      	ldr	r1, [r2, #24]
 80044ec:	6953      	ldr	r3, [r2, #20]
 80044ee:	e783      	b.n	80043f8 <HAL_I2C_EV_IRQHandler+0x28>
 80044f0:	f013 0f10 	tst.w	r3, #16
 80044f4:	d002      	beq.n	80044fc <HAL_I2C_EV_IRQHandler+0x12c>
 80044f6:	f415 7f00 	tst.w	r5, #512	; 0x200
 80044fa:	d118      	bne.n	800452e <HAL_I2C_EV_IRQHandler+0x15e>
 80044fc:	2821      	cmp	r0, #33	; 0x21
 80044fe:	d01a      	beq.n	8004536 <HAL_I2C_EV_IRQHandler+0x166>
 8004500:	2829      	cmp	r0, #41	; 0x29
 8004502:	d018      	beq.n	8004536 <HAL_I2C_EV_IRQHandler+0x166>
 8004504:	f013 0f40 	tst.w	r3, #64	; 0x40
 8004508:	d005      	beq.n	8004516 <HAL_I2C_EV_IRQHandler+0x146>
 800450a:	f415 6f80 	tst.w	r5, #1024	; 0x400
 800450e:	d002      	beq.n	8004516 <HAL_I2C_EV_IRQHandler+0x146>
 8004510:	f013 0f04 	tst.w	r3, #4
 8004514:	d028      	beq.n	8004568 <HAL_I2C_EV_IRQHandler+0x198>
 8004516:	f013 0f04 	tst.w	r3, #4
 800451a:	f43f af79 	beq.w	8004410 <HAL_I2C_EV_IRQHandler+0x40>
 800451e:	f415 7f00 	tst.w	r5, #512	; 0x200
 8004522:	f43f af75 	beq.w	8004410 <HAL_I2C_EV_IRQHandler+0x40>
 8004526:	4620      	mov	r0, r4
 8004528:	f7fe fd91 	bl	800304e <I2C_SlaveReceive_BTF>
 800452c:	e770      	b.n	8004410 <HAL_I2C_EV_IRQHandler+0x40>
 800452e:	4620      	mov	r0, r4
 8004530:	f7ff fe88 	bl	8004244 <I2C_Slave_STOPF>
 8004534:	e76c      	b.n	8004410 <HAL_I2C_EV_IRQHandler+0x40>
 8004536:	f013 0f80 	tst.w	r3, #128	; 0x80
 800453a:	d005      	beq.n	8004548 <HAL_I2C_EV_IRQHandler+0x178>
 800453c:	f415 6f80 	tst.w	r5, #1024	; 0x400
 8004540:	d002      	beq.n	8004548 <HAL_I2C_EV_IRQHandler+0x178>
 8004542:	f013 0f04 	tst.w	r3, #4
 8004546:	d00b      	beq.n	8004560 <HAL_I2C_EV_IRQHandler+0x190>
 8004548:	f013 0f04 	tst.w	r3, #4
 800454c:	f43f af60 	beq.w	8004410 <HAL_I2C_EV_IRQHandler+0x40>
 8004550:	f415 7f00 	tst.w	r5, #512	; 0x200
 8004554:	f43f af5c 	beq.w	8004410 <HAL_I2C_EV_IRQHandler+0x40>
 8004558:	4620      	mov	r0, r4
 800455a:	f7fe fd68 	bl	800302e <I2C_SlaveTransmit_BTF>
 800455e:	e757      	b.n	8004410 <HAL_I2C_EV_IRQHandler+0x40>
 8004560:	4620      	mov	r0, r4
 8004562:	f7ff fa58 	bl	8003a16 <I2C_SlaveTransmit_TXE>
 8004566:	e753      	b.n	8004410 <HAL_I2C_EV_IRQHandler+0x40>
 8004568:	4620      	mov	r0, r4
 800456a:	f7ff fa7b 	bl	8003a64 <I2C_SlaveReceive_RXNE>
 800456e:	e74f      	b.n	8004410 <HAL_I2C_EV_IRQHandler+0x40>

08004570 <HAL_I2C_ER_IRQHandler>:
 8004570:	b5f8      	push	{r3, r4, r5, r6, r7, lr}
 8004572:	4604      	mov	r4, r0
 8004574:	6803      	ldr	r3, [r0, #0]
 8004576:	695d      	ldr	r5, [r3, #20]
 8004578:	685f      	ldr	r7, [r3, #4]
 800457a:	f890 203e 	ldrb.w	r2, [r0, #62]	; 0x3e
 800457e:	b2d2      	uxtb	r2, r2
 8004580:	f415 7f80 	tst.w	r5, #256	; 0x100
 8004584:	d00c      	beq.n	80045a0 <HAL_I2C_ER_IRQHandler+0x30>
 8004586:	f417 7f80 	tst.w	r7, #256	; 0x100
 800458a:	d041      	beq.n	8004610 <HAL_I2C_ER_IRQHandler+0xa0>
 800458c:	f46f 7180 	mvn.w	r1, #256	; 0x100
 8004590:	6159      	str	r1, [r3, #20]
 8004592:	6801      	ldr	r1, [r0, #0]
 8004594:	680b      	ldr	r3, [r1, #0]
 8004596:	f443 4300 	orr.w	r3, r3, #32768	; 0x8000
 800459a:	600b      	str	r3, [r1, #0]
 800459c:	2601      	movs	r6, #1
 800459e:	e000      	b.n	80045a2 <HAL_I2C_ER_IRQHandler+0x32>
 80045a0:	2600      	movs	r6, #0
 80045a2:	f415 7f00 	tst.w	r5, #512	; 0x200
 80045a6:	d008      	beq.n	80045ba <HAL_I2C_ER_IRQHandler+0x4a>
 80045a8:	f417 7f80 	tst.w	r7, #256	; 0x100
 80045ac:	d005      	beq.n	80045ba <HAL_I2C_ER_IRQHandler+0x4a>
 80045ae:	f046 0602 	orr.w	r6, r6, #2
 80045b2:	6823      	ldr	r3, [r4, #0]
 80045b4:	f46f 7100 	mvn.w	r1, #512	; 0x200
 80045b8:	6159      	str	r1, [r3, #20]
 80045ba:	f415 6f80 	tst.w	r5, #1024	; 0x400
 80045be:	d019      	beq.n	80045f4 <HAL_I2C_ER_IRQHandler+0x84>
 80045c0:	f417 7f80 	tst.w	r7, #256	; 0x100
 80045c4:	d016      	beq.n	80045f4 <HAL_I2C_ER_IRQHandler+0x84>
 80045c6:	8d63      	ldrh	r3, [r4, #42]	; 0x2a
 80045c8:	b299      	uxth	r1, r3
 80045ca:	f894 303d 	ldrb.w	r3, [r4, #61]	; 0x3d
 80045ce:	b2db      	uxtb	r3, r3
 80045d0:	6b20      	ldr	r0, [r4, #48]	; 0x30
 80045d2:	2a20      	cmp	r2, #32
 80045d4:	d01e      	beq.n	8004614 <HAL_I2C_ER_IRQHandler+0xa4>
 80045d6:	6823      	ldr	r3, [r4, #0]
 80045d8:	f46f 6180 	mvn.w	r1, #1024	; 0x400
 80045dc:	6159      	str	r1, [r3, #20]
 80045de:	f046 0604 	orr.w	r6, r6, #4
 80045e2:	2a10      	cmp	r2, #16
 80045e4:	d001      	beq.n	80045ea <HAL_I2C_ER_IRQHandler+0x7a>
 80045e6:	2a40      	cmp	r2, #64	; 0x40
 80045e8:	d104      	bne.n	80045f4 <HAL_I2C_ER_IRQHandler+0x84>
 80045ea:	6822      	ldr	r2, [r4, #0]
 80045ec:	6813      	ldr	r3, [r2, #0]
 80045ee:	f443 7300 	orr.w	r3, r3, #512	; 0x200
 80045f2:	6013      	str	r3, [r2, #0]
 80045f4:	f415 6f00 	tst.w	r5, #2048	; 0x800
 80045f8:	d008      	beq.n	800460c <HAL_I2C_ER_IRQHandler+0x9c>
 80045fa:	f417 7f80 	tst.w	r7, #256	; 0x100
 80045fe:	d005      	beq.n	800460c <HAL_I2C_ER_IRQHandler+0x9c>
 8004600:	f046 0608 	orr.w	r6, r6, #8
 8004604:	6823      	ldr	r3, [r4, #0]
 8004606:	f46f 6200 	mvn.w	r2, #2048	; 0x800
 800460a:	615a      	str	r2, [r3, #20]
 800460c:	b986      	cbnz	r6, 8004630 <HAL_I2C_ER_IRQHandler+0xc0>
 800460e:	bdf8      	pop	{r3, r4, r5, r6, r7, pc}
 8004610:	2600      	movs	r6, #0
 8004612:	e7c6      	b.n	80045a2 <HAL_I2C_ER_IRQHandler+0x32>
 8004614:	2900      	cmp	r1, #0
 8004616:	d1de      	bne.n	80045d6 <HAL_I2C_ER_IRQHandler+0x66>
 8004618:	2b21      	cmp	r3, #33	; 0x21
 800461a:	d005      	beq.n	8004628 <HAL_I2C_ER_IRQHandler+0xb8>
 800461c:	2b29      	cmp	r3, #41	; 0x29
 800461e:	d003      	beq.n	8004628 <HAL_I2C_ER_IRQHandler+0xb8>
 8004620:	2b28      	cmp	r3, #40	; 0x28
 8004622:	d1d8      	bne.n	80045d6 <HAL_I2C_ER_IRQHandler+0x66>
 8004624:	2821      	cmp	r0, #33	; 0x21
 8004626:	d1d6      	bne.n	80045d6 <HAL_I2C_ER_IRQHandler+0x66>
 8004628:	4620      	mov	r0, r4
 800462a:	f7ff fa71 	bl	8003b10 <I2C_Slave_AF>
 800462e:	e7e1      	b.n	80045f4 <HAL_I2C_ER_IRQHandler+0x84>
 8004630:	6c23      	ldr	r3, [r4, #64]	; 0x40
 8004632:	431e      	orrs	r6, r3
 8004634:	6426      	str	r6, [r4, #64]	; 0x40
 8004636:	4620      	mov	r0, r4
 8004638:	f7ff fd4a 	bl	80040d0 <I2C_ITError>
 800463c:	e7e7      	b.n	800460e <HAL_I2C_ER_IRQHandler+0x9e>

0800463e <HAL_PCD_EP_DB_Receive>:
 800463e:	b570      	push	{r4, r5, r6, lr}
 8004640:	f412 4f80 	tst.w	r2, #16384	; 0x4000
 8004644:	d043      	beq.n	80046ce <HAL_PCD_EP_DB_Receive+0x90>
 8004646:	6804      	ldr	r4, [r0, #0]
 8004648:	f8b4 3050 	ldrh.w	r3, [r4, #80]	; 0x50
 800464c:	b29b      	uxth	r3, r3
 800464e:	780d      	ldrb	r5, [r1, #0]
 8004650:	eb03 03c5 	add.w	r3, r3, r5, lsl #3
 8004654:	3302      	adds	r3, #2
 8004656:	eb04 0343 	add.w	r3, r4, r3, lsl #1
 800465a:	f8b3 4400 	ldrh.w	r4, [r3, #1024]	; 0x400
 800465e:	f3c4 0409 	ubfx	r4, r4, #0, #10
 8004662:	698b      	ldr	r3, [r1, #24]
 8004664:	42a3      	cmp	r3, r4
 8004666:	d328      	bcc.n	80046ba <HAL_PCD_EP_DB_Receive+0x7c>
 8004668:	1b1b      	subs	r3, r3, r4
 800466a:	618b      	str	r3, [r1, #24]
 800466c:	698b      	ldr	r3, [r1, #24]
 800466e:	b97b      	cbnz	r3, 8004690 <HAL_PCD_EP_DB_Receive+0x52>
 8004670:	6806      	ldr	r6, [r0, #0]
 8004672:	f836 3025 	ldrh.w	r3, [r6, r5, lsl #2]
 8004676:	b29b      	uxth	r3, r3
 8004678:	f423 4380 	bic.w	r3, r3, #16384	; 0x4000
 800467c:	f023 0370 	bic.w	r3, r3, #112	; 0x70
 8004680:	f483 5300 	eor.w	r3, r3, #8192	; 0x2000
 8004684:	f443 4300 	orr.w	r3, r3, #32768	; 0x8000
 8004688:	f043 0380 	orr.w	r3, r3, #128	; 0x80
 800468c:	f826 3025 	strh.w	r3, [r6, r5, lsl #2]
 8004690:	f012 0f40 	tst.w	r2, #64	; 0x40
 8004694:	d00e      	beq.n	80046b4 <HAL_PCD_EP_DB_Receive+0x76>
 8004696:	6802      	ldr	r2, [r0, #0]
 8004698:	780d      	ldrb	r5, [r1, #0]
 800469a:	f832 3025 	ldrh.w	r3, [r2, r5, lsl #2]
 800469e:	b29b      	uxth	r3, r3
 80046a0:	f423 43e0 	bic.w	r3, r3, #28672	; 0x7000
 80046a4:	f023 0370 	bic.w	r3, r3, #112	; 0x70
 80046a8:	f443 4300 	orr.w	r3, r3, #32768	; 0x8000
 80046ac:	f043 03c0 	orr.w	r3, r3, #192	; 0xc0
 80046b0:	f822 3025 	strh.w	r3, [r2, r5, lsl #2]
 80046b4:	b924      	cbnz	r4, 80046c0 <HAL_PCD_EP_DB_Receive+0x82>
 80046b6:	4620      	mov	r0, r4
 80046b8:	bd70      	pop	{r4, r5, r6, pc}
 80046ba:	2300      	movs	r3, #0
 80046bc:	618b      	str	r3, [r1, #24]
 80046be:	e7d5      	b.n	800466c <HAL_PCD_EP_DB_Receive+0x2e>
 80046c0:	4623      	mov	r3, r4
 80046c2:	890a      	ldrh	r2, [r1, #8]
 80046c4:	6949      	ldr	r1, [r1, #20]
 80046c6:	6800      	ldr	r0, [r0, #0]
 80046c8:	f003 fa3b 	bl	8007b42 <USB_ReadPMA>
 80046cc:	e7f3      	b.n	80046b6 <HAL_PCD_EP_DB_Receive+0x78>
 80046ce:	6804      	ldr	r4, [r0, #0]
 80046d0:	f8b4 3050 	ldrh.w	r3, [r4, #80]	; 0x50
 80046d4:	b29b      	uxth	r3, r3
 80046d6:	780d      	ldrb	r5, [r1, #0]
 80046d8:	eb03 03c5 	add.w	r3, r3, r5, lsl #3
 80046dc:	3306      	adds	r3, #6
 80046de:	eb04 0343 	add.w	r3, r4, r3, lsl #1
 80046e2:	f8b3 4400 	ldrh.w	r4, [r3, #1024]	; 0x400
 80046e6:	f3c4 0409 	ubfx	r4, r4, #0, #10
 80046ea:	698b      	ldr	r3, [r1, #24]
 80046ec:	42a3      	cmp	r3, r4
 80046ee:	d32e      	bcc.n	800474e <HAL_PCD_EP_DB_Receive+0x110>
 80046f0:	1b1b      	subs	r3, r3, r4
 80046f2:	618b      	str	r3, [r1, #24]
 80046f4:	698b      	ldr	r3, [r1, #24]
 80046f6:	b97b      	cbnz	r3, 8004718 <HAL_PCD_EP_DB_Receive+0xda>
 80046f8:	6806      	ldr	r6, [r0, #0]
 80046fa:	f836 3025 	ldrh.w	r3, [r6, r5, lsl #2]
 80046fe:	b29b      	uxth	r3, r3
 8004700:	f423 4380 	bic.w	r3, r3, #16384	; 0x4000
 8004704:	f023 0370 	bic.w	r3, r3, #112	; 0x70
 8004708:	f483 5300 	eor.w	r3, r3, #8192	; 0x2000
 800470c:	f443 4300 	orr.w	r3, r3, #32768	; 0x8000
 8004710:	f043 0380 	orr.w	r3, r3, #128	; 0x80
 8004714:	f826 3025 	strh.w	r3, [r6, r5, lsl #2]
 8004718:	f012 0f40 	tst.w	r2, #64	; 0x40
 800471c:	d10e      	bne.n	800473c <HAL_PCD_EP_DB_Receive+0xfe>
 800471e:	6802      	ldr	r2, [r0, #0]
 8004720:	780d      	ldrb	r5, [r1, #0]
 8004722:	f832 3025 	ldrh.w	r3, [r2, r5, lsl #2]
 8004726:	b29b      	uxth	r3, r3
 8004728:	f423 43e0 	bic.w	r3, r3, #28672	; 0x7000
 800472c:	f023 0370 	bic.w	r3, r3, #112	; 0x70
 8004730:	f443 4300 	orr.w	r3, r3, #32768	; 0x8000
 8004734:	f043 03c0 	orr.w	r3, r3, #192	; 0xc0
 8004738:	f822 3025 	strh.w	r3, [r2, r5, lsl #2]
 800473c:	2c00      	cmp	r4, #0
 800473e:	d0ba      	beq.n	80046b6 <HAL_PCD_EP_DB_Receive+0x78>
 8004740:	4623      	mov	r3, r4
 8004742:	894a      	ldrh	r2, [r1, #10]
 8004744:	6949      	ldr	r1, [r1, #20]
 8004746:	6800      	ldr	r0, [r0, #0]
 8004748:	f003 f9fb 	bl	8007b42 <USB_ReadPMA>
 800474c:	e7b3      	b.n	80046b6 <HAL_PCD_EP_DB_Receive+0x78>
 800474e:	2300      	movs	r3, #0
 8004750:	618b      	str	r3, [r1, #24]
 8004752:	e7cf      	b.n	80046f4 <HAL_PCD_EP_DB_Receive+0xb6>

08004754 <HAL_PCD_Init>:
 8004754:	b5f0      	push	{r4, r5, r6, r7, lr}
 8004756:	b087      	sub	sp, #28
 8004758:	2800      	cmp	r0, #0
 800475a:	d07f      	beq.n	800485c <HAL_PCD_Init+0x108>
 800475c:	4604      	mov	r4, r0
 800475e:	f890 32a9 	ldrb.w	r3, [r0, #681]	; 0x2a9
 8004762:	b1db      	cbz	r3, 800479c <HAL_PCD_Init+0x48>
 8004764:	2303      	movs	r3, #3
 8004766:	f884 32a9 	strb.w	r3, [r4, #681]	; 0x2a9
 800476a:	6820      	ldr	r0, [r4, #0]
 800476c:	f002 fa4f 	bl	8006c0e <USB_DisableGlobalInt>
 8004770:	4625      	mov	r5, r4
 8004772:	f855 7b10 	ldr.w	r7, [r5], #16
 8004776:	466e      	mov	r6, sp
 8004778:	cd0f      	ldmia	r5!, {r0, r1, r2, r3}
 800477a:	c60f      	stmia	r6!, {r0, r1, r2, r3}
 800477c:	682b      	ldr	r3, [r5, #0]
 800477e:	6033      	str	r3, [r6, #0]
 8004780:	1d23      	adds	r3, r4, #4
 8004782:	cb0e      	ldmia	r3, {r1, r2, r3}
 8004784:	4638      	mov	r0, r7
 8004786:	f002 fa32 	bl	8006bee <USB_CoreInit>
 800478a:	4605      	mov	r5, r0
 800478c:	b158      	cbz	r0, 80047a6 <HAL_PCD_Init+0x52>
 800478e:	2302      	movs	r3, #2
 8004790:	f884 32a9 	strb.w	r3, [r4, #681]	; 0x2a9
 8004794:	2501      	movs	r5, #1
 8004796:	4628      	mov	r0, r5
 8004798:	b007      	add	sp, #28
 800479a:	bdf0      	pop	{r4, r5, r6, r7, pc}
 800479c:	f880 32a8 	strb.w	r3, [r0, #680]	; 0x2a8
 80047a0:	f004 f970 	bl	8008a84 <HAL_PCD_MspInit>
 80047a4:	e7de      	b.n	8004764 <HAL_PCD_Init+0x10>
 80047a6:	2100      	movs	r1, #0
 80047a8:	6820      	ldr	r0, [r4, #0]
 80047aa:	f002 fa3a 	bl	8006c22 <USB_SetCurrentMode>
 80047ae:	462b      	mov	r3, r5
 80047b0:	e019      	b.n	80047e6 <HAL_PCD_Init+0x92>
 80047b2:	1c5a      	adds	r2, r3, #1
 80047b4:	eb02 0182 	add.w	r1, r2, r2, lsl #2
 80047b8:	eb04 01c1 	add.w	r1, r4, r1, lsl #3
 80047bc:	2001      	movs	r0, #1
 80047be:	7048      	strb	r0, [r1, #1]
 80047c0:	eb02 0182 	add.w	r1, r2, r2, lsl #2
 80047c4:	f804 3031 	strb.w	r3, [r4, r1, lsl #3]
 80047c8:	eb03 0183 	add.w	r1, r3, r3, lsl #2
 80047cc:	eb04 01c1 	add.w	r1, r4, r1, lsl #3
 80047d0:	86cb      	strh	r3, [r1, #54]	; 0x36
 80047d2:	eb02 0682 	add.w	r6, r2, r2, lsl #2
 80047d6:	eb04 06c6 	add.w	r6, r4, r6, lsl #3
 80047da:	2000      	movs	r0, #0
 80047dc:	70f0      	strb	r0, [r6, #3]
 80047de:	6388      	str	r0, [r1, #56]	; 0x38
 80047e0:	63c8      	str	r0, [r1, #60]	; 0x3c
 80047e2:	6408      	str	r0, [r1, #64]	; 0x40
 80047e4:	b2d3      	uxtb	r3, r2
 80047e6:	6861      	ldr	r1, [r4, #4]
 80047e8:	428b      	cmp	r3, r1
 80047ea:	d3e2      	bcc.n	80047b2 <HAL_PCD_Init+0x5e>
 80047ec:	e016      	b.n	800481c <HAL_PCD_Init+0xc8>
 80047ee:	eb05 0385 	add.w	r3, r5, r5, lsl #2
 80047f2:	eb04 03c3 	add.w	r3, r4, r3, lsl #3
 80047f6:	2200      	movs	r2, #0
 80047f8:	f883 2169 	strb.w	r2, [r3, #361]	; 0x169
 80047fc:	f883 5168 	strb.w	r5, [r3, #360]	; 0x168
 8004800:	f883 216b 	strb.w	r2, [r3, #363]	; 0x16b
 8004804:	f8c3 2178 	str.w	r2, [r3, #376]	; 0x178
 8004808:	f8c3 217c 	str.w	r2, [r3, #380]	; 0x17c
 800480c:	eb05 0385 	add.w	r3, r5, r5, lsl #2
 8004810:	eb04 03c3 	add.w	r3, r4, r3, lsl #3
 8004814:	f8c3 2180 	str.w	r2, [r3, #384]	; 0x180
 8004818:	3501      	adds	r5, #1
 800481a:	b2ed      	uxtb	r5, r5
 800481c:	42a9      	cmp	r1, r5
 800481e:	d8e6      	bhi.n	80047ee <HAL_PCD_Init+0x9a>
 8004820:	4625      	mov	r5, r4
 8004822:	f855 7b10 	ldr.w	r7, [r5], #16
 8004826:	466e      	mov	r6, sp
 8004828:	cd0f      	ldmia	r5!, {r0, r1, r2, r3}
 800482a:	c60f      	stmia	r6!, {r0, r1, r2, r3}
 800482c:	682b      	ldr	r3, [r5, #0]
 800482e:	6033      	str	r3, [r6, #0]
 8004830:	1d23      	adds	r3, r4, #4
 8004832:	cb0e      	ldmia	r3, {r1, r2, r3}
 8004834:	4638      	mov	r0, r7
 8004836:	f002 f9f6 	bl	8006c26 <USB_DevInit>
 800483a:	4605      	mov	r5, r0
 800483c:	b120      	cbz	r0, 8004848 <HAL_PCD_Init+0xf4>
 800483e:	2302      	movs	r3, #2
 8004840:	f884 32a9 	strb.w	r3, [r4, #681]	; 0x2a9
 8004844:	2501      	movs	r5, #1
 8004846:	e7a6      	b.n	8004796 <HAL_PCD_Init+0x42>
 8004848:	2300      	movs	r3, #0
 800484a:	f884 3024 	strb.w	r3, [r4, #36]	; 0x24
 800484e:	2301      	movs	r3, #1
 8004850:	f884 32a9 	strb.w	r3, [r4, #681]	; 0x2a9
 8004854:	6820      	ldr	r0, [r4, #0]
 8004856:	f002 fd00 	bl	800725a <USB_DevDisconnect>
 800485a:	e79c      	b.n	8004796 <HAL_PCD_Init+0x42>
 800485c:	2501      	movs	r5, #1
 800485e:	e79a      	b.n	8004796 <HAL_PCD_Init+0x42>

08004860 <HAL_PCD_Start>:
 8004860:	b538      	push	{r3, r4, r5, lr}
 8004862:	f890 32a8 	ldrb.w	r3, [r0, #680]	; 0x2a8
 8004866:	2b01      	cmp	r3, #1
 8004868:	d011      	beq.n	800488e <HAL_PCD_Start+0x2e>
 800486a:	4604      	mov	r4, r0
 800486c:	2501      	movs	r5, #1
 800486e:	f880 52a8 	strb.w	r5, [r0, #680]	; 0x2a8
 8004872:	6800      	ldr	r0, [r0, #0]
 8004874:	f002 f9c2 	bl	8006bfc <USB_EnableGlobalInt>
 8004878:	4629      	mov	r1, r5
 800487a:	4620      	mov	r0, r4
 800487c:	f004 fa1f 	bl	8008cbe <HAL_PCDEx_SetConnectionState>
 8004880:	6820      	ldr	r0, [r4, #0]
 8004882:	f002 fce8 	bl	8007256 <USB_DevConnect>
 8004886:	2000      	movs	r0, #0
 8004888:	f884 02a8 	strb.w	r0, [r4, #680]	; 0x2a8
 800488c:	bd38      	pop	{r3, r4, r5, pc}
 800488e:	2002      	movs	r0, #2
 8004890:	e7fc      	b.n	800488c <HAL_PCD_Start+0x2c>

08004892 <HAL_PCD_EP_DB_Transmit>:
 8004892:	b570      	push	{r4, r5, r6, lr}
 8004894:	4605      	mov	r5, r0
 8004896:	460c      	mov	r4, r1
 8004898:	4616      	mov	r6, r2
 800489a:	f012 0f40 	tst.w	r2, #64	; 0x40
 800489e:	f000 810d 	beq.w	8004abc <HAL_PCD_EP_DB_Transmit+0x22a>
 80048a2:	6802      	ldr	r2, [r0, #0]
 80048a4:	f8b2 3050 	ldrh.w	r3, [r2, #80]	; 0x50
 80048a8:	b29b      	uxth	r3, r3
 80048aa:	7809      	ldrb	r1, [r1, #0]
 80048ac:	eb03 03c1 	add.w	r3, r3, r1, lsl #3
 80048b0:	3302      	adds	r3, #2
 80048b2:	eb02 0343 	add.w	r3, r2, r3, lsl #1
 80048b6:	f8b3 2400 	ldrh.w	r2, [r3, #1024]	; 0x400
 80048ba:	f3c2 0209 	ubfx	r2, r2, #0, #10
 80048be:	69a3      	ldr	r3, [r4, #24]
 80048c0:	4293      	cmp	r3, r2
 80048c2:	d952      	bls.n	800496a <HAL_PCD_EP_DB_Transmit+0xd8>
 80048c4:	1a9b      	subs	r3, r3, r2
 80048c6:	61a3      	str	r3, [r4, #24]
 80048c8:	69a3      	ldr	r3, [r4, #24]
 80048ca:	2b00      	cmp	r3, #0
 80048cc:	d16a      	bne.n	80049a4 <HAL_PCD_EP_DB_Transmit+0x112>
 80048ce:	7863      	ldrb	r3, [r4, #1]
 80048d0:	2b00      	cmp	r3, #0
 80048d2:	d14d      	bne.n	8004970 <HAL_PCD_EP_DB_Transmit+0xde>
 80048d4:	682b      	ldr	r3, [r5, #0]
 80048d6:	f8b3 2050 	ldrh.w	r2, [r3, #80]	; 0x50
 80048da:	b292      	uxth	r2, r2
 80048dc:	4413      	add	r3, r2
 80048de:	eb03 1101 	add.w	r1, r3, r1, lsl #4
 80048e2:	f8b1 3404 	ldrh.w	r3, [r1, #1028]	; 0x404
 80048e6:	b29b      	uxth	r3, r3
 80048e8:	f423 43f8 	bic.w	r3, r3, #31744	; 0x7c00
 80048ec:	b29b      	uxth	r3, r3
 80048ee:	f8a1 3404 	strh.w	r3, [r1, #1028]	; 0x404
 80048f2:	f8b1 3404 	ldrh.w	r3, [r1, #1028]	; 0x404
 80048f6:	ea6f 4343 	mvn.w	r3, r3, lsl #17
 80048fa:	ea6f 4353 	mvn.w	r3, r3, lsr #17
 80048fe:	b29b      	uxth	r3, r3
 8004900:	f8a1 3404 	strh.w	r3, [r1, #1028]	; 0x404
 8004904:	682b      	ldr	r3, [r5, #0]
 8004906:	7862      	ldrb	r2, [r4, #1]
 8004908:	2a00      	cmp	r2, #0
 800490a:	d13e      	bne.n	800498a <HAL_PCD_EP_DB_Transmit+0xf8>
 800490c:	f8b3 2050 	ldrh.w	r2, [r3, #80]	; 0x50
 8004910:	b292      	uxth	r2, r2
 8004912:	4413      	add	r3, r2
 8004914:	7822      	ldrb	r2, [r4, #0]
 8004916:	eb03 1302 	add.w	r3, r3, r2, lsl #4
 800491a:	f8b3 240c 	ldrh.w	r2, [r3, #1036]	; 0x40c
 800491e:	b292      	uxth	r2, r2
 8004920:	f422 42f8 	bic.w	r2, r2, #31744	; 0x7c00
 8004924:	b292      	uxth	r2, r2
 8004926:	f8a3 240c 	strh.w	r2, [r3, #1036]	; 0x40c
 800492a:	f8b3 240c 	ldrh.w	r2, [r3, #1036]	; 0x40c
 800492e:	ea6f 4242 	mvn.w	r2, r2, lsl #17
 8004932:	ea6f 4252 	mvn.w	r2, r2, lsr #17
 8004936:	b292      	uxth	r2, r2
 8004938:	f8a3 240c 	strh.w	r2, [r3, #1036]	; 0x40c
 800493c:	7821      	ldrb	r1, [r4, #0]
 800493e:	4628      	mov	r0, r5
 8004940:	f004 f8dc 	bl	8008afc <HAL_PCD_DataInStageCallback>
 8004944:	f416 4f80 	tst.w	r6, #16384	; 0x4000
 8004948:	d041      	beq.n	80049ce <HAL_PCD_EP_DB_Transmit+0x13c>
 800494a:	682a      	ldr	r2, [r5, #0]
 800494c:	7821      	ldrb	r1, [r4, #0]
 800494e:	f832 3021 	ldrh.w	r3, [r2, r1, lsl #2]
 8004952:	b29b      	uxth	r3, r3
 8004954:	f423 43e0 	bic.w	r3, r3, #28672	; 0x7000
 8004958:	f023 0370 	bic.w	r3, r3, #112	; 0x70
 800495c:	f443 4340 	orr.w	r3, r3, #49152	; 0xc000
 8004960:	f043 0380 	orr.w	r3, r3, #128	; 0x80
 8004964:	f822 3021 	strh.w	r3, [r2, r1, lsl #2]
 8004968:	e031      	b.n	80049ce <HAL_PCD_EP_DB_Transmit+0x13c>
 800496a:	2300      	movs	r3, #0
 800496c:	61a3      	str	r3, [r4, #24]
 800496e:	e7ab      	b.n	80048c8 <HAL_PCD_EP_DB_Transmit+0x36>
 8004970:	2b01      	cmp	r3, #1
 8004972:	d1c7      	bne.n	8004904 <HAL_PCD_EP_DB_Transmit+0x72>
 8004974:	682b      	ldr	r3, [r5, #0]
 8004976:	f8b3 2050 	ldrh.w	r2, [r3, #80]	; 0x50
 800497a:	b292      	uxth	r2, r2
 800497c:	4413      	add	r3, r2
 800497e:	eb03 1101 	add.w	r1, r3, r1, lsl #4
 8004982:	2300      	movs	r3, #0
 8004984:	f8a1 3404 	strh.w	r3, [r1, #1028]	; 0x404
 8004988:	e7bc      	b.n	8004904 <HAL_PCD_EP_DB_Transmit+0x72>
 800498a:	2a01      	cmp	r2, #1
 800498c:	d1d6      	bne.n	800493c <HAL_PCD_EP_DB_Transmit+0xaa>
 800498e:	f8b3 2050 	ldrh.w	r2, [r3, #80]	; 0x50
 8004992:	b292      	uxth	r2, r2
 8004994:	4413      	add	r3, r2
 8004996:	7822      	ldrb	r2, [r4, #0]
 8004998:	eb03 1302 	add.w	r3, r3, r2, lsl #4
 800499c:	2200      	movs	r2, #0
 800499e:	f8a3 240c 	strh.w	r2, [r3, #1036]	; 0x40c
 80049a2:	e7cb      	b.n	800493c <HAL_PCD_EP_DB_Transmit+0xaa>
 80049a4:	f416 4f80 	tst.w	r6, #16384	; 0x4000
 80049a8:	d00d      	beq.n	80049c6 <HAL_PCD_EP_DB_Transmit+0x134>
 80049aa:	6828      	ldr	r0, [r5, #0]
 80049ac:	f830 3021 	ldrh.w	r3, [r0, r1, lsl #2]
 80049b0:	b29b      	uxth	r3, r3
 80049b2:	f423 43e0 	bic.w	r3, r3, #28672	; 0x7000
 80049b6:	f023 0370 	bic.w	r3, r3, #112	; 0x70
 80049ba:	f443 4340 	orr.w	r3, r3, #49152	; 0xc000
 80049be:	f043 0380 	orr.w	r3, r3, #128	; 0x80
 80049c2:	f820 3021 	strh.w	r3, [r0, r1, lsl #2]
 80049c6:	f894 3024 	ldrb.w	r3, [r4, #36]	; 0x24
 80049ca:	2b01      	cmp	r3, #1
 80049cc:	d012      	beq.n	80049f4 <HAL_PCD_EP_DB_Transmit+0x162>
 80049ce:	682a      	ldr	r2, [r5, #0]
 80049d0:	7821      	ldrb	r1, [r4, #0]
 80049d2:	f832 3021 	ldrh.w	r3, [r2, r1, lsl #2]
 80049d6:	b29b      	uxth	r3, r3
 80049d8:	f423 43e0 	bic.w	r3, r3, #28672	; 0x7000
 80049dc:	f023 0340 	bic.w	r3, r3, #64	; 0x40
 80049e0:	f083 0330 	eor.w	r3, r3, #48	; 0x30
 80049e4:	f443 4300 	orr.w	r3, r3, #32768	; 0x8000
 80049e8:	f043 0380 	orr.w	r3, r3, #128	; 0x80
 80049ec:	f822 3021 	strh.w	r3, [r2, r1, lsl #2]
 80049f0:	2000      	movs	r0, #0
 80049f2:	bd70      	pop	{r4, r5, r6, pc}
 80049f4:	6963      	ldr	r3, [r4, #20]
 80049f6:	4413      	add	r3, r2
 80049f8:	6163      	str	r3, [r4, #20]
 80049fa:	69e3      	ldr	r3, [r4, #28]
 80049fc:	4413      	add	r3, r2
 80049fe:	61e3      	str	r3, [r4, #28]
 8004a00:	6a21      	ldr	r1, [r4, #32]
 8004a02:	6923      	ldr	r3, [r4, #16]
 8004a04:	4299      	cmp	r1, r3
 8004a06:	d31f      	bcc.n	8004a48 <HAL_PCD_EP_DB_Transmit+0x1b6>
 8004a08:	1ac9      	subs	r1, r1, r3
 8004a0a:	6221      	str	r1, [r4, #32]
 8004a0c:	7862      	ldrb	r2, [r4, #1]
 8004a0e:	2a00      	cmp	r2, #0
 8004a10:	d13f      	bne.n	8004a92 <HAL_PCD_EP_DB_Transmit+0x200>
 8004a12:	682a      	ldr	r2, [r5, #0]
 8004a14:	f8b2 1050 	ldrh.w	r1, [r2, #80]	; 0x50
 8004a18:	b289      	uxth	r1, r1
 8004a1a:	440a      	add	r2, r1
 8004a1c:	7821      	ldrb	r1, [r4, #0]
 8004a1e:	eb02 1201 	add.w	r2, r2, r1, lsl #4
 8004a22:	b9eb      	cbnz	r3, 8004a60 <HAL_PCD_EP_DB_Transmit+0x1ce>
 8004a24:	f8b2 1404 	ldrh.w	r1, [r2, #1028]	; 0x404
 8004a28:	b289      	uxth	r1, r1
 8004a2a:	f421 41f8 	bic.w	r1, r1, #31744	; 0x7c00
 8004a2e:	b289      	uxth	r1, r1
 8004a30:	f8a2 1404 	strh.w	r1, [r2, #1028]	; 0x404
 8004a34:	f8b2 1404 	ldrh.w	r1, [r2, #1028]	; 0x404
 8004a38:	ea6f 4141 	mvn.w	r1, r1, lsl #17
 8004a3c:	ea6f 4151 	mvn.w	r1, r1, lsr #17
 8004a40:	b289      	uxth	r1, r1
 8004a42:	f8a2 1404 	strh.w	r1, [r2, #1028]	; 0x404
 8004a46:	e026      	b.n	8004a96 <HAL_PCD_EP_DB_Transmit+0x204>
 8004a48:	b921      	cbnz	r1, 8004a54 <HAL_PCD_EP_DB_Transmit+0x1c2>
 8004a4a:	2300      	movs	r3, #0
 8004a4c:	f884 3024 	strb.w	r3, [r4, #36]	; 0x24
 8004a50:	4613      	mov	r3, r2
 8004a52:	e7db      	b.n	8004a0c <HAL_PCD_EP_DB_Transmit+0x17a>
 8004a54:	2300      	movs	r3, #0
 8004a56:	f884 3024 	strb.w	r3, [r4, #36]	; 0x24
 8004a5a:	6223      	str	r3, [r4, #32]
 8004a5c:	460b      	mov	r3, r1
 8004a5e:	e7d5      	b.n	8004a0c <HAL_PCD_EP_DB_Transmit+0x17a>
 8004a60:	2b3e      	cmp	r3, #62	; 0x3e
 8004a62:	d809      	bhi.n	8004a78 <HAL_PCD_EP_DB_Transmit+0x1e6>
 8004a64:	0859      	lsrs	r1, r3, #1
 8004a66:	f013 0f01 	tst.w	r3, #1
 8004a6a:	d000      	beq.n	8004a6e <HAL_PCD_EP_DB_Transmit+0x1dc>
 8004a6c:	3101      	adds	r1, #1
 8004a6e:	0289      	lsls	r1, r1, #10
 8004a70:	b289      	uxth	r1, r1
 8004a72:	f8a2 1404 	strh.w	r1, [r2, #1028]	; 0x404
 8004a76:	e00e      	b.n	8004a96 <HAL_PCD_EP_DB_Transmit+0x204>
 8004a78:	0959      	lsrs	r1, r3, #5
 8004a7a:	f013 0f1f 	tst.w	r3, #31
 8004a7e:	d100      	bne.n	8004a82 <HAL_PCD_EP_DB_Transmit+0x1f0>
 8004a80:	3901      	subs	r1, #1
 8004a82:	ea6f 61c1 	mvn.w	r1, r1, lsl #27
 8004a86:	ea6f 4151 	mvn.w	r1, r1, lsr #17
 8004a8a:	b289      	uxth	r1, r1
 8004a8c:	f8a2 1404 	strh.w	r1, [r2, #1028]	; 0x404
 8004a90:	e001      	b.n	8004a96 <HAL_PCD_EP_DB_Transmit+0x204>
 8004a92:	2a01      	cmp	r2, #1
 8004a94:	d006      	beq.n	8004aa4 <HAL_PCD_EP_DB_Transmit+0x212>
 8004a96:	b29b      	uxth	r3, r3
 8004a98:	8922      	ldrh	r2, [r4, #8]
 8004a9a:	6961      	ldr	r1, [r4, #20]
 8004a9c:	6828      	ldr	r0, [r5, #0]
 8004a9e:	f002 fbe4 	bl	800726a <USB_WritePMA>
 8004aa2:	e794      	b.n	80049ce <HAL_PCD_EP_DB_Transmit+0x13c>
 8004aa4:	682a      	ldr	r2, [r5, #0]
 8004aa6:	f8b2 1050 	ldrh.w	r1, [r2, #80]	; 0x50
 8004aaa:	b289      	uxth	r1, r1
 8004aac:	440a      	add	r2, r1
 8004aae:	7821      	ldrb	r1, [r4, #0]
 8004ab0:	eb02 1201 	add.w	r2, r2, r1, lsl #4
 8004ab4:	b299      	uxth	r1, r3
 8004ab6:	f8a2 1404 	strh.w	r1, [r2, #1028]	; 0x404
 8004aba:	e7ec      	b.n	8004a96 <HAL_PCD_EP_DB_Transmit+0x204>
 8004abc:	6802      	ldr	r2, [r0, #0]
 8004abe:	f8b2 3050 	ldrh.w	r3, [r2, #80]	; 0x50
 8004ac2:	b29b      	uxth	r3, r3
 8004ac4:	7809      	ldrb	r1, [r1, #0]
 8004ac6:	eb03 03c1 	add.w	r3, r3, r1, lsl #3
 8004aca:	3306      	adds	r3, #6
 8004acc:	eb02 0343 	add.w	r3, r2, r3, lsl #1
 8004ad0:	f8b3 2400 	ldrh.w	r2, [r3, #1024]	; 0x400
 8004ad4:	f3c2 0209 	ubfx	r2, r2, #0, #10
 8004ad8:	69a3      	ldr	r3, [r4, #24]
 8004ada:	4293      	cmp	r3, r2
 8004adc:	d353      	bcc.n	8004b86 <HAL_PCD_EP_DB_Transmit+0x2f4>
 8004ade:	1a9b      	subs	r3, r3, r2
 8004ae0:	61a3      	str	r3, [r4, #24]
 8004ae2:	69a3      	ldr	r3, [r4, #24]
 8004ae4:	2b00      	cmp	r3, #0
 8004ae6:	d16b      	bne.n	8004bc0 <HAL_PCD_EP_DB_Transmit+0x32e>
 8004ae8:	7863      	ldrb	r3, [r4, #1]
 8004aea:	2b00      	cmp	r3, #0
 8004aec:	d14e      	bne.n	8004b8c <HAL_PCD_EP_DB_Transmit+0x2fa>
 8004aee:	682b      	ldr	r3, [r5, #0]
 8004af0:	f8b3 2050 	ldrh.w	r2, [r3, #80]	; 0x50
 8004af4:	b292      	uxth	r2, r2
 8004af6:	4413      	add	r3, r2
 8004af8:	eb03 1101 	add.w	r1, r3, r1, lsl #4
 8004afc:	f8b1 3404 	ldrh.w	r3, [r1, #1028]	; 0x404
 8004b00:	b29b      	uxth	r3, r3
 8004b02:	f423 43f8 	bic.w	r3, r3, #31744	; 0x7c00
 8004b06:	b29b      	uxth	r3, r3
 8004b08:	f8a1 3404 	strh.w	r3, [r1, #1028]	; 0x404
 8004b0c:	f8b1 3404 	ldrh.w	r3, [r1, #1028]	; 0x404
 8004b10:	ea6f 4343 	mvn.w	r3, r3, lsl #17
 8004b14:	ea6f 4353 	mvn.w	r3, r3, lsr #17
 8004b18:	b29b      	uxth	r3, r3
 8004b1a:	f8a1 3404 	strh.w	r3, [r1, #1028]	; 0x404
 8004b1e:	682b      	ldr	r3, [r5, #0]
 8004b20:	7862      	ldrb	r2, [r4, #1]
 8004b22:	2a00      	cmp	r2, #0
 8004b24:	d13f      	bne.n	8004ba6 <HAL_PCD_EP_DB_Transmit+0x314>
 8004b26:	f8b3 2050 	ldrh.w	r2, [r3, #80]	; 0x50
 8004b2a:	b292      	uxth	r2, r2
 8004b2c:	4413      	add	r3, r2
 8004b2e:	7822      	ldrb	r2, [r4, #0]
 8004b30:	eb03 1302 	add.w	r3, r3, r2, lsl #4
 8004b34:	f8b3 240c 	ldrh.w	r2, [r3, #1036]	; 0x40c
 8004b38:	b292      	uxth	r2, r2
 8004b3a:	f422 42f8 	bic.w	r2, r2, #31744	; 0x7c00
 8004b3e:	b292      	uxth	r2, r2
 8004b40:	f8a3 240c 	strh.w	r2, [r3, #1036]	; 0x40c
 8004b44:	f8b3 240c 	ldrh.w	r2, [r3, #1036]	; 0x40c
 8004b48:	ea6f 4242 	mvn.w	r2, r2, lsl #17
 8004b4c:	ea6f 4252 	mvn.w	r2, r2, lsr #17
 8004b50:	b292      	uxth	r2, r2
 8004b52:	f8a3 240c 	strh.w	r2, [r3, #1036]	; 0x40c
 8004b56:	7821      	ldrb	r1, [r4, #0]
 8004b58:	4628      	mov	r0, r5
 8004b5a:	f003 ffcf 	bl	8008afc <HAL_PCD_DataInStageCallback>
 8004b5e:	f416 4f80 	tst.w	r6, #16384	; 0x4000
 8004b62:	f47f af34 	bne.w	80049ce <HAL_PCD_EP_DB_Transmit+0x13c>
 8004b66:	682a      	ldr	r2, [r5, #0]
 8004b68:	7821      	ldrb	r1, [r4, #0]
 8004b6a:	f832 3021 	ldrh.w	r3, [r2, r1, lsl #2]
 8004b6e:	b29b      	uxth	r3, r3
 8004b70:	f423 43e0 	bic.w	r3, r3, #28672	; 0x7000
 8004b74:	f023 0370 	bic.w	r3, r3, #112	; 0x70
 8004b78:	f443 4340 	orr.w	r3, r3, #49152	; 0xc000
 8004b7c:	f043 0380 	orr.w	r3, r3, #128	; 0x80
 8004b80:	f822 3021 	strh.w	r3, [r2, r1, lsl #2]
 8004b84:	e723      	b.n	80049ce <HAL_PCD_EP_DB_Transmit+0x13c>
 8004b86:	2300      	movs	r3, #0
 8004b88:	61a3      	str	r3, [r4, #24]
 8004b8a:	e7aa      	b.n	8004ae2 <HAL_PCD_EP_DB_Transmit+0x250>
 8004b8c:	2b01      	cmp	r3, #1
 8004b8e:	d1c6      	bne.n	8004b1e <HAL_PCD_EP_DB_Transmit+0x28c>
 8004b90:	682b      	ldr	r3, [r5, #0]
 8004b92:	f8b3 2050 	ldrh.w	r2, [r3, #80]	; 0x50
 8004b96:	b292      	uxth	r2, r2
 8004b98:	4413      	add	r3, r2
 8004b9a:	eb03 1101 	add.w	r1, r3, r1, lsl #4
 8004b9e:	2300      	movs	r3, #0
 8004ba0:	f8a1 3404 	strh.w	r3, [r1, #1028]	; 0x404
 8004ba4:	e7bb      	b.n	8004b1e <HAL_PCD_EP_DB_Transmit+0x28c>
 8004ba6:	2a01      	cmp	r2, #1
 8004ba8:	d1d5      	bne.n	8004b56 <HAL_PCD_EP_DB_Transmit+0x2c4>
 8004baa:	f8b3 2050 	ldrh.w	r2, [r3, #80]	; 0x50
 8004bae:	b292      	uxth	r2, r2
 8004bb0:	4413      	add	r3, r2
 8004bb2:	7822      	ldrb	r2, [r4, #0]
 8004bb4:	eb03 1302 	add.w	r3, r3, r2, lsl #4
 8004bb8:	2200      	movs	r2, #0
 8004bba:	f8a3 240c 	strh.w	r2, [r3, #1036]	; 0x40c
 8004bbe:	e7ca      	b.n	8004b56 <HAL_PCD_EP_DB_Transmit+0x2c4>
 8004bc0:	f416 4f80 	tst.w	r6, #16384	; 0x4000
 8004bc4:	d10d      	bne.n	8004be2 <HAL_PCD_EP_DB_Transmit+0x350>
 8004bc6:	6828      	ldr	r0, [r5, #0]
 8004bc8:	f830 3021 	ldrh.w	r3, [r0, r1, lsl #2]
 8004bcc:	b29b      	uxth	r3, r3
 8004bce:	f423 43e0 	bic.w	r3, r3, #28672	; 0x7000
 8004bd2:	f023 0370 	bic.w	r3, r3, #112	; 0x70
 8004bd6:	f443 4340 	orr.w	r3, r3, #49152	; 0xc000
 8004bda:	f043 0380 	orr.w	r3, r3, #128	; 0x80
 8004bde:	f820 3021 	strh.w	r3, [r0, r1, lsl #2]
 8004be2:	f894 3024 	ldrb.w	r3, [r4, #36]	; 0x24
 8004be6:	2b01      	cmp	r3, #1
 8004be8:	f47f aef1 	bne.w	80049ce <HAL_PCD_EP_DB_Transmit+0x13c>
 8004bec:	6963      	ldr	r3, [r4, #20]
 8004bee:	4413      	add	r3, r2
 8004bf0:	6163      	str	r3, [r4, #20]
 8004bf2:	69e3      	ldr	r3, [r4, #28]
 8004bf4:	4413      	add	r3, r2
 8004bf6:	61e3      	str	r3, [r4, #28]
 8004bf8:	6a21      	ldr	r1, [r4, #32]
 8004bfa:	6923      	ldr	r3, [r4, #16]
 8004bfc:	4299      	cmp	r1, r3
 8004bfe:	d31f      	bcc.n	8004c40 <HAL_PCD_EP_DB_Transmit+0x3ae>
 8004c00:	1ac9      	subs	r1, r1, r3
 8004c02:	6221      	str	r1, [r4, #32]
 8004c04:	682a      	ldr	r2, [r5, #0]
 8004c06:	7861      	ldrb	r1, [r4, #1]
 8004c08:	2900      	cmp	r1, #0
 8004c0a:	d13e      	bne.n	8004c8a <HAL_PCD_EP_DB_Transmit+0x3f8>
 8004c0c:	f8b2 1050 	ldrh.w	r1, [r2, #80]	; 0x50
 8004c10:	b289      	uxth	r1, r1
 8004c12:	440a      	add	r2, r1
 8004c14:	7821      	ldrb	r1, [r4, #0]
 8004c16:	eb02 1201 	add.w	r2, r2, r1, lsl #4
 8004c1a:	b9eb      	cbnz	r3, 8004c58 <HAL_PCD_EP_DB_Transmit+0x3c6>
 8004c1c:	f8b2 140c 	ldrh.w	r1, [r2, #1036]	; 0x40c
 8004c20:	b289      	uxth	r1, r1
 8004c22:	f421 41f8 	bic.w	r1, r1, #31744	; 0x7c00
 8004c26:	b289      	uxth	r1, r1
 8004c28:	f8a2 140c 	strh.w	r1, [r2, #1036]	; 0x40c
 8004c2c:	f8b2 140c 	ldrh.w	r1, [r2, #1036]	; 0x40c
 8004c30:	ea6f 4141 	mvn.w	r1, r1, lsl #17
 8004c34:	ea6f 4151 	mvn.w	r1, r1, lsr #17
 8004c38:	b289      	uxth	r1, r1
 8004c3a:	f8a2 140c 	strh.w	r1, [r2, #1036]	; 0x40c
 8004c3e:	e026      	b.n	8004c8e <HAL_PCD_EP_DB_Transmit+0x3fc>
 8004c40:	b921      	cbnz	r1, 8004c4c <HAL_PCD_EP_DB_Transmit+0x3ba>
 8004c42:	2300      	movs	r3, #0
 8004c44:	f884 3024 	strb.w	r3, [r4, #36]	; 0x24
 8004c48:	4613      	mov	r3, r2
 8004c4a:	e7db      	b.n	8004c04 <HAL_PCD_EP_DB_Transmit+0x372>
 8004c4c:	2300      	movs	r3, #0
 8004c4e:	6223      	str	r3, [r4, #32]
 8004c50:	f884 3024 	strb.w	r3, [r4, #36]	; 0x24
 8004c54:	460b      	mov	r3, r1
 8004c56:	e7d5      	b.n	8004c04 <HAL_PCD_EP_DB_Transmit+0x372>
 8004c58:	2b3e      	cmp	r3, #62	; 0x3e
 8004c5a:	d809      	bhi.n	8004c70 <HAL_PCD_EP_DB_Transmit+0x3de>
 8004c5c:	0859      	lsrs	r1, r3, #1
 8004c5e:	f013 0f01 	tst.w	r3, #1
 8004c62:	d000      	beq.n	8004c66 <HAL_PCD_EP_DB_Transmit+0x3d4>
 8004c64:	3101      	adds	r1, #1
 8004c66:	0289      	lsls	r1, r1, #10
 8004c68:	b289      	uxth	r1, r1
 8004c6a:	f8a2 140c 	strh.w	r1, [r2, #1036]	; 0x40c
 8004c6e:	e00e      	b.n	8004c8e <HAL_PCD_EP_DB_Transmit+0x3fc>
 8004c70:	0959      	lsrs	r1, r3, #5
 8004c72:	f013 0f1f 	tst.w	r3, #31
 8004c76:	d100      	bne.n	8004c7a <HAL_PCD_EP_DB_Transmit+0x3e8>
 8004c78:	3901      	subs	r1, #1
 8004c7a:	ea6f 61c1 	mvn.w	r1, r1, lsl #27
 8004c7e:	ea6f 4151 	mvn.w	r1, r1, lsr #17
 8004c82:	b289      	uxth	r1, r1
 8004c84:	f8a2 140c 	strh.w	r1, [r2, #1036]	; 0x40c
 8004c88:	e001      	b.n	8004c8e <HAL_PCD_EP_DB_Transmit+0x3fc>
 8004c8a:	2901      	cmp	r1, #1
 8004c8c:	d006      	beq.n	8004c9c <HAL_PCD_EP_DB_Transmit+0x40a>
 8004c8e:	b29b      	uxth	r3, r3
 8004c90:	8962      	ldrh	r2, [r4, #10]
 8004c92:	6961      	ldr	r1, [r4, #20]
 8004c94:	6828      	ldr	r0, [r5, #0]
 8004c96:	f002 fae8 	bl	800726a <USB_WritePMA>
 8004c9a:	e698      	b.n	80049ce <HAL_PCD_EP_DB_Transmit+0x13c>
 8004c9c:	f8b2 1050 	ldrh.w	r1, [r2, #80]	; 0x50
 8004ca0:	b289      	uxth	r1, r1
 8004ca2:	440a      	add	r2, r1
 8004ca4:	7821      	ldrb	r1, [r4, #0]
 8004ca6:	eb02 1201 	add.w	r2, r2, r1, lsl #4
 8004caa:	b299      	uxth	r1, r3
 8004cac:	f8a2 140c 	strh.w	r1, [r2, #1036]	; 0x40c
 8004cb0:	e7ed      	b.n	8004c8e <HAL_PCD_EP_DB_Transmit+0x3fc>

08004cb2 <PCD_EP_ISR_Handler>:
 8004cb2:	e92d 41f0 	stmdb	sp!, {r4, r5, r6, r7, r8, lr}
 8004cb6:	4605      	mov	r5, r0
 8004cb8:	6828      	ldr	r0, [r5, #0]
 8004cba:	f8b0 3044 	ldrh.w	r3, [r0, #68]	; 0x44
 8004cbe:	f413 4f00 	tst.w	r3, #32768	; 0x8000
 8004cc2:	f000 8213 	beq.w	80050ec <PCD_EP_ISR_Handler+0x43a>
 8004cc6:	f8b0 4044 	ldrh.w	r4, [r0, #68]	; 0x44
 8004cca:	b2a3      	uxth	r3, r4
 8004ccc:	f014 040f 	ands.w	r4, r4, #15
 8004cd0:	f040 80d8 	bne.w	8004e84 <PCD_EP_ISR_Handler+0x1d2>
 8004cd4:	f013 0f10 	tst.w	r3, #16
 8004cd8:	d061      	beq.n	8004d9e <PCD_EP_ISR_Handler+0xec>
 8004cda:	8803      	ldrh	r3, [r0, #0]
 8004cdc:	b29a      	uxth	r2, r3
 8004cde:	f413 6f00 	tst.w	r3, #2048	; 0x800
 8004ce2:	f040 8093 	bne.w	8004e0c <PCD_EP_ISR_Handler+0x15a>
 8004ce6:	f412 4f00 	tst.w	r2, #32768	; 0x8000
 8004cea:	d0e5      	beq.n	8004cb8 <PCD_EP_ISR_Handler+0x6>
 8004cec:	8803      	ldrh	r3, [r0, #0]
 8004cee:	f023 0370 	bic.w	r3, r3, #112	; 0x70
 8004cf2:	051b      	lsls	r3, r3, #20
 8004cf4:	0d1b      	lsrs	r3, r3, #20
 8004cf6:	f043 0380 	orr.w	r3, r3, #128	; 0x80
 8004cfa:	8003      	strh	r3, [r0, #0]
 8004cfc:	6828      	ldr	r0, [r5, #0]
 8004cfe:	f8b0 3050 	ldrh.w	r3, [r0, #80]	; 0x50
 8004d02:	b29b      	uxth	r3, r3
 8004d04:	f895 2168 	ldrb.w	r2, [r5, #360]	; 0x168
 8004d08:	eb03 03c2 	add.w	r3, r3, r2, lsl #3
 8004d0c:	3306      	adds	r3, #6
 8004d0e:	eb00 0343 	add.w	r3, r0, r3, lsl #1
 8004d12:	f8b3 3400 	ldrh.w	r3, [r3, #1024]	; 0x400
 8004d16:	f3c3 0309 	ubfx	r3, r3, #0, #10
 8004d1a:	f8c5 3184 	str.w	r3, [r5, #388]	; 0x184
 8004d1e:	b18b      	cbz	r3, 8004d44 <PCD_EP_ISR_Handler+0x92>
 8004d20:	f8d5 117c 	ldr.w	r1, [r5, #380]	; 0x17c
 8004d24:	b171      	cbz	r1, 8004d44 <PCD_EP_ISR_Handler+0x92>
 8004d26:	f8b5 216e 	ldrh.w	r2, [r5, #366]	; 0x16e
 8004d2a:	f002 ff0a 	bl	8007b42 <USB_ReadPMA>
 8004d2e:	f8d5 2184 	ldr.w	r2, [r5, #388]	; 0x184
 8004d32:	f8d5 317c 	ldr.w	r3, [r5, #380]	; 0x17c
 8004d36:	4413      	add	r3, r2
 8004d38:	f8c5 317c 	str.w	r3, [r5, #380]	; 0x17c
 8004d3c:	2100      	movs	r1, #0
 8004d3e:	4628      	mov	r0, r5
 8004d40:	f003 fed0 	bl	8008ae4 <HAL_PCD_DataOutStageCallback>
 8004d44:	682b      	ldr	r3, [r5, #0]
 8004d46:	881a      	ldrh	r2, [r3, #0]
 8004d48:	f412 6f00 	tst.w	r2, #2048	; 0x800
 8004d4c:	d1b4      	bne.n	8004cb8 <PCD_EP_ISR_Handler+0x6>
 8004d4e:	f8b3 2050 	ldrh.w	r2, [r3, #80]	; 0x50
 8004d52:	b292      	uxth	r2, r2
 8004d54:	4413      	add	r3, r2
 8004d56:	f8d5 2178 	ldr.w	r2, [r5, #376]	; 0x178
 8004d5a:	2a00      	cmp	r2, #0
 8004d5c:	d179      	bne.n	8004e52 <PCD_EP_ISR_Handler+0x1a0>
 8004d5e:	f8b3 240c 	ldrh.w	r2, [r3, #1036]	; 0x40c
 8004d62:	b292      	uxth	r2, r2
 8004d64:	f422 42f8 	bic.w	r2, r2, #31744	; 0x7c00
 8004d68:	b292      	uxth	r2, r2
 8004d6a:	f8a3 240c 	strh.w	r2, [r3, #1036]	; 0x40c
 8004d6e:	f8b3 240c 	ldrh.w	r2, [r3, #1036]	; 0x40c
 8004d72:	ea6f 4242 	mvn.w	r2, r2, lsl #17
 8004d76:	ea6f 4252 	mvn.w	r2, r2, lsr #17
 8004d7a:	b292      	uxth	r2, r2
 8004d7c:	f8a3 240c 	strh.w	r2, [r3, #1036]	; 0x40c
 8004d80:	682a      	ldr	r2, [r5, #0]
 8004d82:	8813      	ldrh	r3, [r2, #0]
 8004d84:	b29b      	uxth	r3, r3
 8004d86:	f423 4380 	bic.w	r3, r3, #16384	; 0x4000
 8004d8a:	f023 0370 	bic.w	r3, r3, #112	; 0x70
 8004d8e:	f483 5340 	eor.w	r3, r3, #12288	; 0x3000
 8004d92:	f443 4300 	orr.w	r3, r3, #32768	; 0x8000
 8004d96:	f043 0380 	orr.w	r3, r3, #128	; 0x80
 8004d9a:	8013      	strh	r3, [r2, #0]
 8004d9c:	e78c      	b.n	8004cb8 <PCD_EP_ISR_Handler+0x6>
 8004d9e:	8803      	ldrh	r3, [r0, #0]
 8004da0:	b29b      	uxth	r3, r3
 8004da2:	f423 43e1 	bic.w	r3, r3, #28800	; 0x7080
 8004da6:	f023 0370 	bic.w	r3, r3, #112	; 0x70
 8004daa:	ea6f 4343 	mvn.w	r3, r3, lsl #17
 8004dae:	ea6f 4353 	mvn.w	r3, r3, lsr #17
 8004db2:	b29b      	uxth	r3, r3
 8004db4:	8003      	strh	r3, [r0, #0]
 8004db6:	682a      	ldr	r2, [r5, #0]
 8004db8:	f8b2 3050 	ldrh.w	r3, [r2, #80]	; 0x50
 8004dbc:	b29b      	uxth	r3, r3
 8004dbe:	f895 1028 	ldrb.w	r1, [r5, #40]	; 0x28
 8004dc2:	eb03 03c1 	add.w	r3, r3, r1, lsl #3
 8004dc6:	3302      	adds	r3, #2
 8004dc8:	eb02 0343 	add.w	r3, r2, r3, lsl #1
 8004dcc:	f8b3 3400 	ldrh.w	r3, [r3, #1024]	; 0x400
 8004dd0:	f3c3 0309 	ubfx	r3, r3, #0, #10
 8004dd4:	646b      	str	r3, [r5, #68]	; 0x44
 8004dd6:	6bea      	ldr	r2, [r5, #60]	; 0x3c
 8004dd8:	4413      	add	r3, r2
 8004dda:	63eb      	str	r3, [r5, #60]	; 0x3c
 8004ddc:	2100      	movs	r1, #0
 8004dde:	4628      	mov	r0, r5
 8004de0:	f003 fe8c 	bl	8008afc <HAL_PCD_DataInStageCallback>
 8004de4:	f895 3024 	ldrb.w	r3, [r5, #36]	; 0x24
 8004de8:	2b00      	cmp	r3, #0
 8004dea:	f43f af65 	beq.w	8004cb8 <PCD_EP_ISR_Handler+0x6>
 8004dee:	6c2b      	ldr	r3, [r5, #64]	; 0x40
 8004df0:	2b00      	cmp	r3, #0
 8004df2:	f47f af61 	bne.w	8004cb8 <PCD_EP_ISR_Handler+0x6>
 8004df6:	f895 3024 	ldrb.w	r3, [r5, #36]	; 0x24
 8004dfa:	682a      	ldr	r2, [r5, #0]
 8004dfc:	f043 0380 	orr.w	r3, r3, #128	; 0x80
 8004e00:	f8a2 304c 	strh.w	r3, [r2, #76]	; 0x4c
 8004e04:	2300      	movs	r3, #0
 8004e06:	f885 3024 	strb.w	r3, [r5, #36]	; 0x24
 8004e0a:	e755      	b.n	8004cb8 <PCD_EP_ISR_Handler+0x6>
 8004e0c:	f8b0 3050 	ldrh.w	r3, [r0, #80]	; 0x50
 8004e10:	b29b      	uxth	r3, r3
 8004e12:	f895 2168 	ldrb.w	r2, [r5, #360]	; 0x168
 8004e16:	eb03 03c2 	add.w	r3, r3, r2, lsl #3
 8004e1a:	3306      	adds	r3, #6
 8004e1c:	eb00 0343 	add.w	r3, r0, r3, lsl #1
 8004e20:	f8b3 3400 	ldrh.w	r3, [r3, #1024]	; 0x400
 8004e24:	f3c3 0309 	ubfx	r3, r3, #0, #10
 8004e28:	f8c5 3184 	str.w	r3, [r5, #388]	; 0x184
 8004e2c:	f8b5 216e 	ldrh.w	r2, [r5, #366]	; 0x16e
 8004e30:	f505 712c 	add.w	r1, r5, #688	; 0x2b0
 8004e34:	f002 fe85 	bl	8007b42 <USB_ReadPMA>
 8004e38:	682a      	ldr	r2, [r5, #0]
 8004e3a:	8813      	ldrh	r3, [r2, #0]
 8004e3c:	f023 0370 	bic.w	r3, r3, #112	; 0x70
 8004e40:	051b      	lsls	r3, r3, #20
 8004e42:	0d1b      	lsrs	r3, r3, #20
 8004e44:	f043 0380 	orr.w	r3, r3, #128	; 0x80
 8004e48:	8013      	strh	r3, [r2, #0]
 8004e4a:	4628      	mov	r0, r5
 8004e4c:	f003 fe42 	bl	8008ad4 <HAL_PCD_SetupStageCallback>
 8004e50:	e732      	b.n	8004cb8 <PCD_EP_ISR_Handler+0x6>
 8004e52:	2a3e      	cmp	r2, #62	; 0x3e
 8004e54:	d809      	bhi.n	8004e6a <PCD_EP_ISR_Handler+0x1b8>
 8004e56:	0851      	lsrs	r1, r2, #1
 8004e58:	f012 0f01 	tst.w	r2, #1
 8004e5c:	d000      	beq.n	8004e60 <PCD_EP_ISR_Handler+0x1ae>
 8004e5e:	3101      	adds	r1, #1
 8004e60:	028a      	lsls	r2, r1, #10
 8004e62:	b292      	uxth	r2, r2
 8004e64:	f8a3 240c 	strh.w	r2, [r3, #1036]	; 0x40c
 8004e68:	e78a      	b.n	8004d80 <PCD_EP_ISR_Handler+0xce>
 8004e6a:	0951      	lsrs	r1, r2, #5
 8004e6c:	f012 0f1f 	tst.w	r2, #31
 8004e70:	d100      	bne.n	8004e74 <PCD_EP_ISR_Handler+0x1c2>
 8004e72:	3901      	subs	r1, #1
 8004e74:	ea6f 62c1 	mvn.w	r2, r1, lsl #27
 8004e78:	ea6f 4252 	mvn.w	r2, r2, lsr #17
 8004e7c:	b292      	uxth	r2, r2
 8004e7e:	f8a3 240c 	strh.w	r2, [r3, #1036]	; 0x40c
 8004e82:	e77d      	b.n	8004d80 <PCD_EP_ISR_Handler+0xce>
 8004e84:	f830 3024 	ldrh.w	r3, [r0, r4, lsl #2]
 8004e88:	b29e      	uxth	r6, r3
 8004e8a:	f413 4f00 	tst.w	r3, #32768	; 0x8000
 8004e8e:	d153      	bne.n	8004f38 <PCD_EP_ISR_Handler+0x286>
 8004e90:	f016 0f80 	tst.w	r6, #128	; 0x80
 8004e94:	f43f af10 	beq.w	8004cb8 <PCD_EP_ISR_Handler+0x6>
 8004e98:	1c62      	adds	r2, r4, #1
 8004e9a:	eb02 0182 	add.w	r1, r2, r2, lsl #2
 8004e9e:	eb05 01c1 	add.w	r1, r5, r1, lsl #3
 8004ea2:	6828      	ldr	r0, [r5, #0]
 8004ea4:	f830 3024 	ldrh.w	r3, [r0, r4, lsl #2]
 8004ea8:	b29b      	uxth	r3, r3
 8004eaa:	f423 43e1 	bic.w	r3, r3, #28800	; 0x7080
 8004eae:	f023 0370 	bic.w	r3, r3, #112	; 0x70
 8004eb2:	ea6f 4343 	mvn.w	r3, r3, lsl #17
 8004eb6:	ea6f 4353 	mvn.w	r3, r3, lsr #17
 8004eba:	b29b      	uxth	r3, r3
 8004ebc:	f820 3024 	strh.w	r3, [r0, r4, lsl #2]
 8004ec0:	78cb      	ldrb	r3, [r1, #3]
 8004ec2:	2b03      	cmp	r3, #3
 8004ec4:	d007      	beq.n	8004ed6 <PCD_EP_ISR_Handler+0x224>
 8004ec6:	b133      	cbz	r3, 8004ed6 <PCD_EP_ISR_Handler+0x224>
 8004ec8:	2b02      	cmp	r3, #2
 8004eca:	f040 810a 	bne.w	80050e2 <PCD_EP_ISR_Handler+0x430>
 8004ece:	f416 7f80 	tst.w	r6, #256	; 0x100
 8004ed2:	f040 8106 	bne.w	80050e2 <PCD_EP_ISR_Handler+0x430>
 8004ed6:	6828      	ldr	r0, [r5, #0]
 8004ed8:	f8b0 3050 	ldrh.w	r3, [r0, #80]	; 0x50
 8004edc:	b29b      	uxth	r3, r3
 8004ede:	1c62      	adds	r2, r4, #1
 8004ee0:	eb02 0282 	add.w	r2, r2, r2, lsl #2
 8004ee4:	f815 2032 	ldrb.w	r2, [r5, r2, lsl #3]
 8004ee8:	eb03 03c2 	add.w	r3, r3, r2, lsl #3
 8004eec:	3302      	adds	r3, #2
 8004eee:	eb00 0343 	add.w	r3, r0, r3, lsl #1
 8004ef2:	f8b3 3400 	ldrh.w	r3, [r3, #1024]	; 0x400
 8004ef6:	f3c3 0309 	ubfx	r3, r3, #0, #10
 8004efa:	eb04 0284 	add.w	r2, r4, r4, lsl #2
 8004efe:	eb05 02c2 	add.w	r2, r5, r2, lsl #3
 8004f02:	6c12      	ldr	r2, [r2, #64]	; 0x40
 8004f04:	429a      	cmp	r2, r3
 8004f06:	f240 80d8 	bls.w	80050ba <PCD_EP_ISR_Handler+0x408>
 8004f0a:	eb04 0684 	add.w	r6, r4, r4, lsl #2
 8004f0e:	eb05 06c6 	add.w	r6, r5, r6, lsl #3
 8004f12:	1ad2      	subs	r2, r2, r3
 8004f14:	6432      	str	r2, [r6, #64]	; 0x40
 8004f16:	eb04 0284 	add.w	r2, r4, r4, lsl #2
 8004f1a:	eb05 02c2 	add.w	r2, r5, r2, lsl #3
 8004f1e:	6c12      	ldr	r2, [r2, #64]	; 0x40
 8004f20:	2a00      	cmp	r2, #0
 8004f22:	f040 80d1 	bne.w	80050c8 <PCD_EP_ISR_Handler+0x416>
 8004f26:	3401      	adds	r4, #1
 8004f28:	eb04 0484 	add.w	r4, r4, r4, lsl #2
 8004f2c:	f815 1034 	ldrb.w	r1, [r5, r4, lsl #3]
 8004f30:	4628      	mov	r0, r5
 8004f32:	f003 fde3 	bl	8008afc <HAL_PCD_DataInStageCallback>
 8004f36:	e6bf      	b.n	8004cb8 <PCD_EP_ISR_Handler+0x6>
 8004f38:	f830 3024 	ldrh.w	r3, [r0, r4, lsl #2]
 8004f3c:	f023 0370 	bic.w	r3, r3, #112	; 0x70
 8004f40:	051b      	lsls	r3, r3, #20
 8004f42:	0d1b      	lsrs	r3, r3, #20
 8004f44:	f043 0380 	orr.w	r3, r3, #128	; 0x80
 8004f48:	f820 3024 	strh.w	r3, [r0, r4, lsl #2]
 8004f4c:	eb04 0184 	add.w	r1, r4, r4, lsl #2
 8004f50:	00c9      	lsls	r1, r1, #3
 8004f52:	f501 71b4 	add.w	r1, r1, #360	; 0x168
 8004f56:	eb05 0801 	add.w	r8, r5, r1
 8004f5a:	eb04 0384 	add.w	r3, r4, r4, lsl #2
 8004f5e:	eb05 03c3 	add.w	r3, r5, r3, lsl #3
 8004f62:	f893 3174 	ldrb.w	r3, [r3, #372]	; 0x174
 8004f66:	2b00      	cmp	r3, #0
 8004f68:	d142      	bne.n	8004ff0 <PCD_EP_ISR_Handler+0x33e>
 8004f6a:	6828      	ldr	r0, [r5, #0]
 8004f6c:	f8b0 3050 	ldrh.w	r3, [r0, #80]	; 0x50
 8004f70:	b29b      	uxth	r3, r3
 8004f72:	eb04 0284 	add.w	r2, r4, r4, lsl #2
 8004f76:	eb05 02c2 	add.w	r2, r5, r2, lsl #3
 8004f7a:	f892 2168 	ldrb.w	r2, [r2, #360]	; 0x168
 8004f7e:	eb03 03c2 	add.w	r3, r3, r2, lsl #3
 8004f82:	3306      	adds	r3, #6
 8004f84:	eb00 0343 	add.w	r3, r0, r3, lsl #1
 8004f88:	f8b3 7400 	ldrh.w	r7, [r3, #1024]	; 0x400
 8004f8c:	f3c7 0709 	ubfx	r7, r7, #0, #10
 8004f90:	bb17      	cbnz	r7, 8004fd8 <PCD_EP_ISR_Handler+0x326>
 8004f92:	eb04 0384 	add.w	r3, r4, r4, lsl #2
 8004f96:	eb05 03c3 	add.w	r3, r5, r3, lsl #3
 8004f9a:	f8d3 2184 	ldr.w	r2, [r3, #388]	; 0x184
 8004f9e:	443a      	add	r2, r7
 8004fa0:	f8c3 2184 	str.w	r2, [r3, #388]	; 0x184
 8004fa4:	f8d3 217c 	ldr.w	r2, [r3, #380]	; 0x17c
 8004fa8:	443a      	add	r2, r7
 8004faa:	f8c3 217c 	str.w	r2, [r3, #380]	; 0x17c
 8004fae:	f8d3 3180 	ldr.w	r3, [r3, #384]	; 0x180
 8004fb2:	b13b      	cbz	r3, 8004fc4 <PCD_EP_ISR_Handler+0x312>
 8004fb4:	eb04 0384 	add.w	r3, r4, r4, lsl #2
 8004fb8:	eb05 03c3 	add.w	r3, r5, r3, lsl #3
 8004fbc:	f8d3 3178 	ldr.w	r3, [r3, #376]	; 0x178
 8004fc0:	429f      	cmp	r7, r3
 8004fc2:	d275      	bcs.n	80050b0 <PCD_EP_ISR_Handler+0x3fe>
 8004fc4:	eb04 0384 	add.w	r3, r4, r4, lsl #2
 8004fc8:	eb05 03c3 	add.w	r3, r5, r3, lsl #3
 8004fcc:	f893 1168 	ldrb.w	r1, [r3, #360]	; 0x168
 8004fd0:	4628      	mov	r0, r5
 8004fd2:	f003 fd87 	bl	8008ae4 <HAL_PCD_DataOutStageCallback>
 8004fd6:	e75b      	b.n	8004e90 <PCD_EP_ISR_Handler+0x1de>
 8004fd8:	eb04 0184 	add.w	r1, r4, r4, lsl #2
 8004fdc:	eb05 01c1 	add.w	r1, r5, r1, lsl #3
 8004fe0:	463b      	mov	r3, r7
 8004fe2:	f8b1 216e 	ldrh.w	r2, [r1, #366]	; 0x16e
 8004fe6:	f8d1 117c 	ldr.w	r1, [r1, #380]	; 0x17c
 8004fea:	f002 fdaa 	bl	8007b42 <USB_ReadPMA>
 8004fee:	e7d0      	b.n	8004f92 <PCD_EP_ISR_Handler+0x2e0>
 8004ff0:	eb04 0384 	add.w	r3, r4, r4, lsl #2
 8004ff4:	eb05 03c3 	add.w	r3, r5, r3, lsl #3
 8004ff8:	f893 316b 	ldrb.w	r3, [r3, #363]	; 0x16b
 8004ffc:	2b02      	cmp	r3, #2
 8004ffe:	d035      	beq.n	800506c <PCD_EP_ISR_Handler+0x3ba>
 8005000:	6829      	ldr	r1, [r5, #0]
 8005002:	eb04 0284 	add.w	r2, r4, r4, lsl #2
 8005006:	eb05 02c2 	add.w	r2, r5, r2, lsl #3
 800500a:	f892 0168 	ldrb.w	r0, [r2, #360]	; 0x168
 800500e:	f831 3020 	ldrh.w	r3, [r1, r0, lsl #2]
 8005012:	b29b      	uxth	r3, r3
 8005014:	f423 43e0 	bic.w	r3, r3, #28672	; 0x7000
 8005018:	f023 0370 	bic.w	r3, r3, #112	; 0x70
 800501c:	f443 4300 	orr.w	r3, r3, #32768	; 0x8000
 8005020:	f043 03c0 	orr.w	r3, r3, #192	; 0xc0
 8005024:	f821 3020 	strh.w	r3, [r1, r0, lsl #2]
 8005028:	6828      	ldr	r0, [r5, #0]
 800502a:	f892 2168 	ldrb.w	r2, [r2, #360]	; 0x168
 800502e:	f830 3022 	ldrh.w	r3, [r0, r2, lsl #2]
 8005032:	f413 4f80 	tst.w	r3, #16384	; 0x4000
 8005036:	d020      	beq.n	800507a <PCD_EP_ISR_Handler+0x3c8>
 8005038:	f8b0 3050 	ldrh.w	r3, [r0, #80]	; 0x50
 800503c:	b29b      	uxth	r3, r3
 800503e:	eb03 03c2 	add.w	r3, r3, r2, lsl #3
 8005042:	3302      	adds	r3, #2
 8005044:	eb00 0343 	add.w	r3, r0, r3, lsl #1
 8005048:	f8b3 7400 	ldrh.w	r7, [r3, #1024]	; 0x400
 800504c:	f3c7 0709 	ubfx	r7, r7, #0, #10
 8005050:	2f00      	cmp	r7, #0
 8005052:	d09e      	beq.n	8004f92 <PCD_EP_ISR_Handler+0x2e0>
 8005054:	eb04 0184 	add.w	r1, r4, r4, lsl #2
 8005058:	eb05 01c1 	add.w	r1, r5, r1, lsl #3
 800505c:	463b      	mov	r3, r7
 800505e:	f8b1 2170 	ldrh.w	r2, [r1, #368]	; 0x170
 8005062:	f8d1 117c 	ldr.w	r1, [r1, #380]	; 0x17c
 8005066:	f002 fd6c 	bl	8007b42 <USB_ReadPMA>
 800506a:	e792      	b.n	8004f92 <PCD_EP_ISR_Handler+0x2e0>
 800506c:	4632      	mov	r2, r6
 800506e:	4641      	mov	r1, r8
 8005070:	4628      	mov	r0, r5
 8005072:	f7ff fae4 	bl	800463e <HAL_PCD_EP_DB_Receive>
 8005076:	4607      	mov	r7, r0
 8005078:	e78b      	b.n	8004f92 <PCD_EP_ISR_Handler+0x2e0>
 800507a:	f8b0 3050 	ldrh.w	r3, [r0, #80]	; 0x50
 800507e:	b29b      	uxth	r3, r3
 8005080:	eb03 03c2 	add.w	r3, r3, r2, lsl #3
 8005084:	3306      	adds	r3, #6
 8005086:	eb00 0343 	add.w	r3, r0, r3, lsl #1
 800508a:	f8b3 7400 	ldrh.w	r7, [r3, #1024]	; 0x400
 800508e:	f3c7 0709 	ubfx	r7, r7, #0, #10
 8005092:	2f00      	cmp	r7, #0
 8005094:	f43f af7d 	beq.w	8004f92 <PCD_EP_ISR_Handler+0x2e0>
 8005098:	eb04 0184 	add.w	r1, r4, r4, lsl #2
 800509c:	eb05 01c1 	add.w	r1, r5, r1, lsl #3
 80050a0:	463b      	mov	r3, r7
 80050a2:	f8b1 2172 	ldrh.w	r2, [r1, #370]	; 0x172
 80050a6:	f8d1 117c 	ldr.w	r1, [r1, #380]	; 0x17c
 80050aa:	f002 fd4a 	bl	8007b42 <USB_ReadPMA>
 80050ae:	e770      	b.n	8004f92 <PCD_EP_ISR_Handler+0x2e0>
 80050b0:	4641      	mov	r1, r8
 80050b2:	6828      	ldr	r0, [r5, #0]
 80050b4:	f002 f8ec 	bl	8007290 <USB_EPStartXfer>
 80050b8:	e6ea      	b.n	8004e90 <PCD_EP_ISR_Handler+0x1de>
 80050ba:	eb04 0284 	add.w	r2, r4, r4, lsl #2
 80050be:	eb05 02c2 	add.w	r2, r5, r2, lsl #3
 80050c2:	2600      	movs	r6, #0
 80050c4:	6416      	str	r6, [r2, #64]	; 0x40
 80050c6:	e726      	b.n	8004f16 <PCD_EP_ISR_Handler+0x264>
 80050c8:	eb04 0284 	add.w	r2, r4, r4, lsl #2
 80050cc:	eb05 02c2 	add.w	r2, r5, r2, lsl #3
 80050d0:	6bd6      	ldr	r6, [r2, #60]	; 0x3c
 80050d2:	441e      	add	r6, r3
 80050d4:	63d6      	str	r6, [r2, #60]	; 0x3c
 80050d6:	6c54      	ldr	r4, [r2, #68]	; 0x44
 80050d8:	4423      	add	r3, r4
 80050da:	6453      	str	r3, [r2, #68]	; 0x44
 80050dc:	f002 f8d8 	bl	8007290 <USB_EPStartXfer>
 80050e0:	e5ea      	b.n	8004cb8 <PCD_EP_ISR_Handler+0x6>
 80050e2:	4632      	mov	r2, r6
 80050e4:	4628      	mov	r0, r5
 80050e6:	f7ff fbd4 	bl	8004892 <HAL_PCD_EP_DB_Transmit>
 80050ea:	e5e5      	b.n	8004cb8 <PCD_EP_ISR_Handler+0x6>
 80050ec:	2000      	movs	r0, #0
 80050ee:	e8bd 81f0 	ldmia.w	sp!, {r4, r5, r6, r7, r8, pc}

080050f2 <HAL_PCD_SetAddress>:
 80050f2:	f890 32a8 	ldrb.w	r3, [r0, #680]	; 0x2a8
 80050f6:	2b01      	cmp	r3, #1
 80050f8:	d00d      	beq.n	8005116 <HAL_PCD_SetAddress+0x24>
 80050fa:	b510      	push	{r4, lr}
 80050fc:	4604      	mov	r4, r0
 80050fe:	2301      	movs	r3, #1
 8005100:	f880 32a8 	strb.w	r3, [r0, #680]	; 0x2a8
 8005104:	f880 1024 	strb.w	r1, [r0, #36]	; 0x24
 8005108:	6800      	ldr	r0, [r0, #0]
 800510a:	f002 f89e 	bl	800724a <USB_SetDevAddress>
 800510e:	2000      	movs	r0, #0
 8005110:	f884 02a8 	strb.w	r0, [r4, #680]	; 0x2a8
 8005114:	bd10      	pop	{r4, pc}
 8005116:	2002      	movs	r0, #2
 8005118:	4770      	bx	lr

0800511a <HAL_PCD_IRQHandler>:
 800511a:	b510      	push	{r4, lr}
 800511c:	b084      	sub	sp, #16
 800511e:	4604      	mov	r4, r0
 8005120:	6800      	ldr	r0, [r0, #0]
 8005122:	f002 f89c 	bl	800725e <USB_ReadInterrupts>
 8005126:	f410 4f00 	tst.w	r0, #32768	; 0x8000
 800512a:	d132      	bne.n	8005192 <HAL_PCD_IRQHandler+0x78>
 800512c:	6820      	ldr	r0, [r4, #0]
 800512e:	f002 f896 	bl	800725e <USB_ReadInterrupts>
 8005132:	f410 6f80 	tst.w	r0, #1024	; 0x400
 8005136:	d130      	bne.n	800519a <HAL_PCD_IRQHandler+0x80>
 8005138:	6820      	ldr	r0, [r4, #0]
 800513a:	f002 f890 	bl	800725e <USB_ReadInterrupts>
 800513e:	f410 4f80 	tst.w	r0, #16384	; 0x4000
 8005142:	d008      	beq.n	8005156 <HAL_PCD_IRQHandler+0x3c>
 8005144:	6822      	ldr	r2, [r4, #0]
 8005146:	f8b2 3044 	ldrh.w	r3, [r2, #68]	; 0x44
 800514a:	b29b      	uxth	r3, r3
 800514c:	f423 4380 	bic.w	r3, r3, #16384	; 0x4000
 8005150:	b29b      	uxth	r3, r3
 8005152:	f8a2 3044 	strh.w	r3, [r2, #68]	; 0x44
 8005156:	6820      	ldr	r0, [r4, #0]
 8005158:	f002 f881 	bl	800725e <USB_ReadInterrupts>
 800515c:	f410 5f00 	tst.w	r0, #8192	; 0x2000
 8005160:	d008      	beq.n	8005174 <HAL_PCD_IRQHandler+0x5a>
 8005162:	6822      	ldr	r2, [r4, #0]
 8005164:	f8b2 3044 	ldrh.w	r3, [r2, #68]	; 0x44
 8005168:	b29b      	uxth	r3, r3
 800516a:	f423 5300 	bic.w	r3, r3, #8192	; 0x2000
 800516e:	b29b      	uxth	r3, r3
 8005170:	f8a2 3044 	strh.w	r3, [r2, #68]	; 0x44
 8005174:	6820      	ldr	r0, [r4, #0]
 8005176:	f002 f872 	bl	800725e <USB_ReadInterrupts>
 800517a:	f410 5f80 	tst.w	r0, #4096	; 0x1000
 800517e:	d11d      	bne.n	80051bc <HAL_PCD_IRQHandler+0xa2>
 8005180:	6820      	ldr	r0, [r4, #0]
 8005182:	f002 f86c 	bl	800725e <USB_ReadInterrupts>
 8005186:	f410 6f00 	tst.w	r0, #2048	; 0x800
 800518a:	f000 808b 	beq.w	80052a4 <HAL_PCD_IRQHandler+0x18a>
 800518e:	2300      	movs	r3, #0
 8005190:	e03d      	b.n	800520e <HAL_PCD_IRQHandler+0xf4>
 8005192:	4620      	mov	r0, r4
 8005194:	f7ff fd8d 	bl	8004cb2 <PCD_EP_ISR_Handler>
 8005198:	e7c8      	b.n	800512c <HAL_PCD_IRQHandler+0x12>
 800519a:	6822      	ldr	r2, [r4, #0]
 800519c:	f8b2 3044 	ldrh.w	r3, [r2, #68]	; 0x44
 80051a0:	b29b      	uxth	r3, r3
 80051a2:	f423 6380 	bic.w	r3, r3, #1024	; 0x400
 80051a6:	b29b      	uxth	r3, r3
 80051a8:	f8a2 3044 	strh.w	r3, [r2, #68]	; 0x44
 80051ac:	4620      	mov	r0, r4
 80051ae:	f003 fcb6 	bl	8008b1e <HAL_PCD_ResetCallback>
 80051b2:	2100      	movs	r1, #0
 80051b4:	4620      	mov	r0, r4
 80051b6:	f7ff ff9c 	bl	80050f2 <HAL_PCD_SetAddress>
 80051ba:	e7bd      	b.n	8005138 <HAL_PCD_IRQHandler+0x1e>
 80051bc:	6822      	ldr	r2, [r4, #0]
 80051be:	f8b2 3040 	ldrh.w	r3, [r2, #64]	; 0x40
 80051c2:	b29b      	uxth	r3, r3
 80051c4:	f023 0304 	bic.w	r3, r3, #4
 80051c8:	b29b      	uxth	r3, r3
 80051ca:	f8a2 3040 	strh.w	r3, [r2, #64]	; 0x40
 80051ce:	6822      	ldr	r2, [r4, #0]
 80051d0:	f8b2 3040 	ldrh.w	r3, [r2, #64]	; 0x40
 80051d4:	b29b      	uxth	r3, r3
 80051d6:	f023 0308 	bic.w	r3, r3, #8
 80051da:	b29b      	uxth	r3, r3
 80051dc:	f8a2 3040 	strh.w	r3, [r2, #64]	; 0x40
 80051e0:	4620      	mov	r0, r4
 80051e2:	f003 fcbf 	bl	8008b64 <HAL_PCD_ResumeCallback>
 80051e6:	6822      	ldr	r2, [r4, #0]
 80051e8:	f8b2 3044 	ldrh.w	r3, [r2, #68]	; 0x44
 80051ec:	b29b      	uxth	r3, r3
 80051ee:	f423 5380 	bic.w	r3, r3, #4096	; 0x1000
 80051f2:	b29b      	uxth	r3, r3
 80051f4:	f8a2 3044 	strh.w	r3, [r2, #68]	; 0x44
 80051f8:	e7c2      	b.n	8005180 <HAL_PCD_IRQHandler+0x66>
 80051fa:	6822      	ldr	r2, [r4, #0]
 80051fc:	f832 1023 	ldrh.w	r1, [r2, r3, lsl #2]
 8005200:	aa04      	add	r2, sp, #16
 8005202:	eb02 0243 	add.w	r2, r2, r3, lsl #1
 8005206:	f822 1c10 	strh.w	r1, [r2, #-16]
 800520a:	3301      	adds	r3, #1
 800520c:	b2db      	uxtb	r3, r3
 800520e:	2b07      	cmp	r3, #7
 8005210:	d9f3      	bls.n	80051fa <HAL_PCD_IRQHandler+0xe0>
 8005212:	6822      	ldr	r2, [r4, #0]
 8005214:	f8b2 3040 	ldrh.w	r3, [r2, #64]	; 0x40
 8005218:	b29b      	uxth	r3, r3
 800521a:	f043 0301 	orr.w	r3, r3, #1
 800521e:	f8a2 3040 	strh.w	r3, [r2, #64]	; 0x40
 8005222:	6822      	ldr	r2, [r4, #0]
 8005224:	f8b2 3040 	ldrh.w	r3, [r2, #64]	; 0x40
 8005228:	b29b      	uxth	r3, r3
 800522a:	f023 0301 	bic.w	r3, r3, #1
 800522e:	b29b      	uxth	r3, r3
 8005230:	f8a2 3040 	strh.w	r3, [r2, #64]	; 0x40
 8005234:	6823      	ldr	r3, [r4, #0]
 8005236:	f8b3 2044 	ldrh.w	r2, [r3, #68]	; 0x44
 800523a:	f412 6f80 	tst.w	r2, #1024	; 0x400
 800523e:	d0f9      	beq.n	8005234 <HAL_PCD_IRQHandler+0x11a>
 8005240:	f8b3 2044 	ldrh.w	r2, [r3, #68]	; 0x44
 8005244:	b292      	uxth	r2, r2
 8005246:	f422 6280 	bic.w	r2, r2, #1024	; 0x400
 800524a:	b292      	uxth	r2, r2
 800524c:	f8a3 2044 	strh.w	r2, [r3, #68]	; 0x44
 8005250:	2300      	movs	r3, #0
 8005252:	e009      	b.n	8005268 <HAL_PCD_IRQHandler+0x14e>
 8005254:	6822      	ldr	r2, [r4, #0]
 8005256:	a904      	add	r1, sp, #16
 8005258:	eb01 0143 	add.w	r1, r1, r3, lsl #1
 800525c:	f831 1c10 	ldrh.w	r1, [r1, #-16]
 8005260:	f822 1023 	strh.w	r1, [r2, r3, lsl #2]
 8005264:	3301      	adds	r3, #1
 8005266:	b2db      	uxtb	r3, r3
 8005268:	2b07      	cmp	r3, #7
 800526a:	d9f3      	bls.n	8005254 <HAL_PCD_IRQHandler+0x13a>
 800526c:	6822      	ldr	r2, [r4, #0]
 800526e:	f8b2 3040 	ldrh.w	r3, [r2, #64]	; 0x40
 8005272:	b29b      	uxth	r3, r3
 8005274:	f043 0308 	orr.w	r3, r3, #8
 8005278:	f8a2 3040 	strh.w	r3, [r2, #64]	; 0x40
 800527c:	6822      	ldr	r2, [r4, #0]
 800527e:	f8b2 3044 	ldrh.w	r3, [r2, #68]	; 0x44
 8005282:	b29b      	uxth	r3, r3
 8005284:	f423 6300 	bic.w	r3, r3, #2048	; 0x800
 8005288:	b29b      	uxth	r3, r3
 800528a:	f8a2 3044 	strh.w	r3, [r2, #68]	; 0x44
 800528e:	6822      	ldr	r2, [r4, #0]
 8005290:	f8b2 3040 	ldrh.w	r3, [r2, #64]	; 0x40
 8005294:	b29b      	uxth	r3, r3
 8005296:	f043 0304 	orr.w	r3, r3, #4
 800529a:	f8a2 3040 	strh.w	r3, [r2, #64]	; 0x40
 800529e:	4620      	mov	r0, r4
 80052a0:	f003 fc50 	bl	8008b44 <HAL_PCD_SuspendCallback>
 80052a4:	6820      	ldr	r0, [r4, #0]
 80052a6:	f001 ffda 	bl	800725e <USB_ReadInterrupts>
 80052aa:	f410 7f00 	tst.w	r0, #512	; 0x200
 80052ae:	d110      	bne.n	80052d2 <HAL_PCD_IRQHandler+0x1b8>
 80052b0:	6820      	ldr	r0, [r4, #0]
 80052b2:	f001 ffd4 	bl	800725e <USB_ReadInterrupts>
 80052b6:	f410 7f80 	tst.w	r0, #256	; 0x100
 80052ba:	d008      	beq.n	80052ce <HAL_PCD_IRQHandler+0x1b4>
 80052bc:	6822      	ldr	r2, [r4, #0]
 80052be:	f8b2 3044 	ldrh.w	r3, [r2, #68]	; 0x44
 80052c2:	b29b      	uxth	r3, r3
 80052c4:	f423 7380 	bic.w	r3, r3, #256	; 0x100
 80052c8:	b29b      	uxth	r3, r3
 80052ca:	f8a2 3044 	strh.w	r3, [r2, #68]	; 0x44
 80052ce:	b004      	add	sp, #16
 80052d0:	bd10      	pop	{r4, pc}
 80052d2:	6822      	ldr	r2, [r4, #0]
 80052d4:	f8b2 3044 	ldrh.w	r3, [r2, #68]	; 0x44
 80052d8:	b29b      	uxth	r3, r3
 80052da:	f423 7300 	bic.w	r3, r3, #512	; 0x200
 80052de:	b29b      	uxth	r3, r3
 80052e0:	f8a2 3044 	strh.w	r3, [r2, #68]	; 0x44
 80052e4:	4620      	mov	r0, r4
 80052e6:	f003 fc14 	bl	8008b12 <HAL_PCD_SOFCallback>
 80052ea:	e7e1      	b.n	80052b0 <HAL_PCD_IRQHandler+0x196>

080052ec <HAL_PCD_EP_Open>:
 80052ec:	b570      	push	{r4, r5, r6, lr}
 80052ee:	4605      	mov	r5, r0
 80052f0:	460c      	mov	r4, r1
 80052f2:	f011 0f80 	tst.w	r1, #128	; 0x80
 80052f6:	d126      	bne.n	8005346 <HAL_PCD_EP_Open+0x5a>
 80052f8:	f001 0007 	and.w	r0, r1, #7
 80052fc:	eb00 0180 	add.w	r1, r0, r0, lsl #2
 8005300:	00c9      	lsls	r1, r1, #3
 8005302:	f501 76b4 	add.w	r6, r1, #360	; 0x168
 8005306:	19a9      	adds	r1, r5, r6
 8005308:	eb00 0080 	add.w	r0, r0, r0, lsl #2
 800530c:	eb05 00c0 	add.w	r0, r5, r0, lsl #3
 8005310:	2600      	movs	r6, #0
 8005312:	f880 6169 	strb.w	r6, [r0, #361]	; 0x169
 8005316:	f004 0407 	and.w	r4, r4, #7
 800531a:	700c      	strb	r4, [r1, #0]
 800531c:	610a      	str	r2, [r1, #16]
 800531e:	70cb      	strb	r3, [r1, #3]
 8005320:	784a      	ldrb	r2, [r1, #1]
 8005322:	b102      	cbz	r2, 8005326 <HAL_PCD_EP_Open+0x3a>
 8005324:	81cc      	strh	r4, [r1, #14]
 8005326:	2b02      	cmp	r3, #2
 8005328:	d017      	beq.n	800535a <HAL_PCD_EP_Open+0x6e>
 800532a:	f895 32a8 	ldrb.w	r3, [r5, #680]	; 0x2a8
 800532e:	2b01      	cmp	r3, #1
 8005330:	d016      	beq.n	8005360 <HAL_PCD_EP_Open+0x74>
 8005332:	2301      	movs	r3, #1
 8005334:	f885 32a8 	strb.w	r3, [r5, #680]	; 0x2a8
 8005338:	6828      	ldr	r0, [r5, #0]
 800533a:	f001 fc87 	bl	8006c4c <USB_ActivateEndpoint>
 800533e:	2000      	movs	r0, #0
 8005340:	f885 02a8 	strb.w	r0, [r5, #680]	; 0x2a8
 8005344:	bd70      	pop	{r4, r5, r6, pc}
 8005346:	f001 0007 	and.w	r0, r1, #7
 800534a:	3001      	adds	r0, #1
 800534c:	eb00 0180 	add.w	r1, r0, r0, lsl #2
 8005350:	eb05 01c1 	add.w	r1, r5, r1, lsl #3
 8005354:	2601      	movs	r6, #1
 8005356:	704e      	strb	r6, [r1, #1]
 8005358:	e7dd      	b.n	8005316 <HAL_PCD_EP_Open+0x2a>
 800535a:	2300      	movs	r3, #0
 800535c:	710b      	strb	r3, [r1, #4]
 800535e:	e7e4      	b.n	800532a <HAL_PCD_EP_Open+0x3e>
 8005360:	2002      	movs	r0, #2
 8005362:	e7ef      	b.n	8005344 <HAL_PCD_EP_Open+0x58>

08005364 <HAL_PCD_EP_Close>:
 8005364:	b510      	push	{r4, lr}
 8005366:	4604      	mov	r4, r0
 8005368:	460b      	mov	r3, r1
 800536a:	f011 0f80 	tst.w	r1, #128	; 0x80
 800536e:	d11f      	bne.n	80053b0 <HAL_PCD_EP_Close+0x4c>
 8005370:	f001 0207 	and.w	r2, r1, #7
 8005374:	eb02 0182 	add.w	r1, r2, r2, lsl #2
 8005378:	00c9      	lsls	r1, r1, #3
 800537a:	f501 71b4 	add.w	r1, r1, #360	; 0x168
 800537e:	4401      	add	r1, r0
 8005380:	eb02 0282 	add.w	r2, r2, r2, lsl #2
 8005384:	eb00 02c2 	add.w	r2, r0, r2, lsl #3
 8005388:	2000      	movs	r0, #0
 800538a:	f882 0169 	strb.w	r0, [r2, #361]	; 0x169
 800538e:	f003 0307 	and.w	r3, r3, #7
 8005392:	700b      	strb	r3, [r1, #0]
 8005394:	f894 32a8 	ldrb.w	r3, [r4, #680]	; 0x2a8
 8005398:	2b01      	cmp	r3, #1
 800539a:	d013      	beq.n	80053c4 <HAL_PCD_EP_Close+0x60>
 800539c:	2301      	movs	r3, #1
 800539e:	f884 32a8 	strb.w	r3, [r4, #680]	; 0x2a8
 80053a2:	6820      	ldr	r0, [r4, #0]
 80053a4:	f001 fdf1 	bl	8006f8a <USB_DeactivateEndpoint>
 80053a8:	2000      	movs	r0, #0
 80053aa:	f884 02a8 	strb.w	r0, [r4, #680]	; 0x2a8
 80053ae:	bd10      	pop	{r4, pc}
 80053b0:	f001 0207 	and.w	r2, r1, #7
 80053b4:	3201      	adds	r2, #1
 80053b6:	eb02 0182 	add.w	r1, r2, r2, lsl #2
 80053ba:	eb00 01c1 	add.w	r1, r0, r1, lsl #3
 80053be:	2001      	movs	r0, #1
 80053c0:	7048      	strb	r0, [r1, #1]
 80053c2:	e7e4      	b.n	800538e <HAL_PCD_EP_Close+0x2a>
 80053c4:	2002      	movs	r0, #2
 80053c6:	e7f2      	b.n	80053ae <HAL_PCD_EP_Close+0x4a>

080053c8 <HAL_PCD_EP_Receive>:
 80053c8:	b538      	push	{r3, r4, r5, lr}
 80053ca:	f001 0407 	and.w	r4, r1, #7
 80053ce:	eb04 0184 	add.w	r1, r4, r4, lsl #2
 80053d2:	00c9      	lsls	r1, r1, #3
 80053d4:	f501 71b4 	add.w	r1, r1, #360	; 0x168
 80053d8:	4401      	add	r1, r0
 80053da:	eb04 0584 	add.w	r5, r4, r4, lsl #2
 80053de:	eb00 05c5 	add.w	r5, r0, r5, lsl #3
 80053e2:	f8c5 217c 	str.w	r2, [r5, #380]	; 0x17c
 80053e6:	f8c5 3180 	str.w	r3, [r5, #384]	; 0x180
 80053ea:	2300      	movs	r3, #0
 80053ec:	f8c5 3184 	str.w	r3, [r5, #388]	; 0x184
 80053f0:	f885 3169 	strb.w	r3, [r5, #361]	; 0x169
 80053f4:	f885 4168 	strb.w	r4, [r5, #360]	; 0x168
 80053f8:	b924      	cbnz	r4, 8005404 <HAL_PCD_EP_Receive+0x3c>
 80053fa:	6800      	ldr	r0, [r0, #0]
 80053fc:	f001 ff48 	bl	8007290 <USB_EPStartXfer>
 8005400:	2000      	movs	r0, #0
 8005402:	bd38      	pop	{r3, r4, r5, pc}
 8005404:	6800      	ldr	r0, [r0, #0]
 8005406:	f001 ff43 	bl	8007290 <USB_EPStartXfer>
 800540a:	e7f9      	b.n	8005400 <HAL_PCD_EP_Receive+0x38>

0800540c <HAL_PCD_EP_GetRxCount>:
 800540c:	f001 0107 	and.w	r1, r1, #7
 8005410:	eb01 0181 	add.w	r1, r1, r1, lsl #2
 8005414:	eb00 01c1 	add.w	r1, r0, r1, lsl #3
 8005418:	f8d1 0184 	ldr.w	r0, [r1, #388]	; 0x184
 800541c:	4770      	bx	lr

0800541e <HAL_PCD_EP_Transmit>:
 800541e:	b570      	push	{r4, r5, r6, lr}
 8005420:	f001 0507 	and.w	r5, r1, #7
 8005424:	1c6c      	adds	r4, r5, #1
 8005426:	eb04 0184 	add.w	r1, r4, r4, lsl #2
 800542a:	eb00 01c1 	add.w	r1, r0, r1, lsl #3
 800542e:	eb05 0685 	add.w	r6, r5, r5, lsl #2
 8005432:	eb00 06c6 	add.w	r6, r0, r6, lsl #3
 8005436:	63f2      	str	r2, [r6, #60]	; 0x3c
 8005438:	6433      	str	r3, [r6, #64]	; 0x40
 800543a:	2201      	movs	r2, #1
 800543c:	f886 204c 	strb.w	r2, [r6, #76]	; 0x4c
 8005440:	64b3      	str	r3, [r6, #72]	; 0x48
 8005442:	2300      	movs	r3, #0
 8005444:	6473      	str	r3, [r6, #68]	; 0x44
 8005446:	704a      	strb	r2, [r1, #1]
 8005448:	eb04 0484 	add.w	r4, r4, r4, lsl #2
 800544c:	f800 5034 	strb.w	r5, [r0, r4, lsl #3]
 8005450:	b925      	cbnz	r5, 800545c <HAL_PCD_EP_Transmit+0x3e>
 8005452:	6800      	ldr	r0, [r0, #0]
 8005454:	f001 ff1c 	bl	8007290 <USB_EPStartXfer>
 8005458:	2000      	movs	r0, #0
 800545a:	bd70      	pop	{r4, r5, r6, pc}
 800545c:	6800      	ldr	r0, [r0, #0]
 800545e:	f001 ff17 	bl	8007290 <USB_EPStartXfer>
 8005462:	e7f9      	b.n	8005458 <HAL_PCD_EP_Transmit+0x3a>

08005464 <HAL_PCD_EP_SetStall>:
 8005464:	b538      	push	{r3, r4, r5, lr}
 8005466:	f001 0507 	and.w	r5, r1, #7
 800546a:	6842      	ldr	r2, [r0, #4]
 800546c:	4295      	cmp	r5, r2
 800546e:	d831      	bhi.n	80054d4 <HAL_PCD_EP_SetStall+0x70>
 8005470:	4604      	mov	r4, r0
 8005472:	460b      	mov	r3, r1
 8005474:	f011 0f80 	tst.w	r1, #128	; 0x80
 8005478:	d11e      	bne.n	80054b8 <HAL_PCD_EP_SetStall+0x54>
 800547a:	eb01 0181 	add.w	r1, r1, r1, lsl #2
 800547e:	00c9      	lsls	r1, r1, #3
 8005480:	f501 71b4 	add.w	r1, r1, #360	; 0x168
 8005484:	4401      	add	r1, r0
 8005486:	eb03 0383 	add.w	r3, r3, r3, lsl #2
 800548a:	eb00 03c3 	add.w	r3, r0, r3, lsl #3
 800548e:	2200      	movs	r2, #0
 8005490:	f883 2169 	strb.w	r2, [r3, #361]	; 0x169
 8005494:	2301      	movs	r3, #1
 8005496:	708b      	strb	r3, [r1, #2]
 8005498:	700d      	strb	r5, [r1, #0]
 800549a:	f894 32a8 	ldrb.w	r3, [r4, #680]	; 0x2a8
 800549e:	2b01      	cmp	r3, #1
 80054a0:	d01a      	beq.n	80054d8 <HAL_PCD_EP_SetStall+0x74>
 80054a2:	2301      	movs	r3, #1
 80054a4:	f884 32a8 	strb.w	r3, [r4, #680]	; 0x2a8
 80054a8:	6820      	ldr	r0, [r4, #0]
 80054aa:	f001 fe58 	bl	800715e <USB_EPSetStall>
 80054ae:	b15d      	cbz	r5, 80054c8 <HAL_PCD_EP_SetStall+0x64>
 80054b0:	2000      	movs	r0, #0
 80054b2:	f884 02a8 	strb.w	r0, [r4, #680]	; 0x2a8
 80054b6:	bd38      	pop	{r3, r4, r5, pc}
 80054b8:	1c6b      	adds	r3, r5, #1
 80054ba:	eb03 0183 	add.w	r1, r3, r3, lsl #2
 80054be:	eb00 01c1 	add.w	r1, r0, r1, lsl #3
 80054c2:	2201      	movs	r2, #1
 80054c4:	704a      	strb	r2, [r1, #1]
 80054c6:	e7e5      	b.n	8005494 <HAL_PCD_EP_SetStall+0x30>
 80054c8:	f504 712c 	add.w	r1, r4, #688	; 0x2b0
 80054cc:	6820      	ldr	r0, [r4, #0]
 80054ce:	f001 feca 	bl	8007266 <USB_EP0_OutStart>
 80054d2:	e7ed      	b.n	80054b0 <HAL_PCD_EP_SetStall+0x4c>
 80054d4:	2001      	movs	r0, #1
 80054d6:	e7ee      	b.n	80054b6 <HAL_PCD_EP_SetStall+0x52>
 80054d8:	2002      	movs	r0, #2
 80054da:	e7ec      	b.n	80054b6 <HAL_PCD_EP_SetStall+0x52>

080054dc <HAL_PCD_EP_ClrStall>:
 80054dc:	460b      	mov	r3, r1
 80054de:	f001 010f 	and.w	r1, r1, #15
 80054e2:	6842      	ldr	r2, [r0, #4]
 80054e4:	4291      	cmp	r1, r2
 80054e6:	d830      	bhi.n	800554a <HAL_PCD_EP_ClrStall+0x6e>
 80054e8:	b510      	push	{r4, lr}
 80054ea:	4604      	mov	r4, r0
 80054ec:	f013 0f80 	tst.w	r3, #128	; 0x80
 80054f0:	d121      	bne.n	8005536 <HAL_PCD_EP_ClrStall+0x5a>
 80054f2:	f003 0207 	and.w	r2, r3, #7
 80054f6:	eb02 0182 	add.w	r1, r2, r2, lsl #2
 80054fa:	00c9      	lsls	r1, r1, #3
 80054fc:	f501 71b4 	add.w	r1, r1, #360	; 0x168
 8005500:	4401      	add	r1, r0
 8005502:	eb02 0282 	add.w	r2, r2, r2, lsl #2
 8005506:	eb00 02c2 	add.w	r2, r0, r2, lsl #3
 800550a:	2000      	movs	r0, #0
 800550c:	f882 0169 	strb.w	r0, [r2, #361]	; 0x169
 8005510:	2200      	movs	r2, #0
 8005512:	708a      	strb	r2, [r1, #2]
 8005514:	f003 0307 	and.w	r3, r3, #7
 8005518:	700b      	strb	r3, [r1, #0]
 800551a:	f894 32a8 	ldrb.w	r3, [r4, #680]	; 0x2a8
 800551e:	2b01      	cmp	r3, #1
 8005520:	d015      	beq.n	800554e <HAL_PCD_EP_ClrStall+0x72>
 8005522:	2301      	movs	r3, #1
 8005524:	f884 32a8 	strb.w	r3, [r4, #680]	; 0x2a8
 8005528:	6820      	ldr	r0, [r4, #0]
 800552a:	f001 fe3d 	bl	80071a8 <USB_EPClearStall>
 800552e:	2000      	movs	r0, #0
 8005530:	f884 02a8 	strb.w	r0, [r4, #680]	; 0x2a8
 8005534:	bd10      	pop	{r4, pc}
 8005536:	f003 0207 	and.w	r2, r3, #7
 800553a:	3201      	adds	r2, #1
 800553c:	eb02 0182 	add.w	r1, r2, r2, lsl #2
 8005540:	eb00 01c1 	add.w	r1, r0, r1, lsl #3
 8005544:	2001      	movs	r0, #1
 8005546:	7048      	strb	r0, [r1, #1]
 8005548:	e7e2      	b.n	8005510 <HAL_PCD_EP_ClrStall+0x34>
 800554a:	2001      	movs	r0, #1
 800554c:	4770      	bx	lr
 800554e:	2002      	movs	r0, #2
 8005550:	e7f0      	b.n	8005534 <HAL_PCD_EP_ClrStall+0x58>

08005552 <HAL_PCDEx_PMAConfig>:
 8005552:	f011 0f80 	tst.w	r1, #128	; 0x80
 8005556:	d00b      	beq.n	8005570 <HAL_PCDEx_PMAConfig+0x1e>
 8005558:	f001 0107 	and.w	r1, r1, #7
 800555c:	3101      	adds	r1, #1
 800555e:	eb01 0181 	add.w	r1, r1, r1, lsl #2
 8005562:	eb00 01c1 	add.w	r1, r0, r1, lsl #3
 8005566:	b952      	cbnz	r2, 800557e <HAL_PCDEx_PMAConfig+0x2c>
 8005568:	730a      	strb	r2, [r1, #12]
 800556a:	80cb      	strh	r3, [r1, #6]
 800556c:	2000      	movs	r0, #0
 800556e:	4770      	bx	lr
 8005570:	eb01 0181 	add.w	r1, r1, r1, lsl #2
 8005574:	00c9      	lsls	r1, r1, #3
 8005576:	f501 71b4 	add.w	r1, r1, #360	; 0x168
 800557a:	4401      	add	r1, r0
 800557c:	e7f3      	b.n	8005566 <HAL_PCDEx_PMAConfig+0x14>
 800557e:	2201      	movs	r2, #1
 8005580:	730a      	strb	r2, [r1, #12]
 8005582:	810b      	strh	r3, [r1, #8]
 8005584:	0c1b      	lsrs	r3, r3, #16
 8005586:	814b      	strh	r3, [r1, #10]
 8005588:	e7f0      	b.n	800556c <HAL_PCDEx_PMAConfig+0x1a>
	...

0800558c <RCC_Delay>:
 800558c:	b082      	sub	sp, #8
 800558e:	4b08      	ldr	r3, [pc, #32]	; (80055b0 <RCC_Delay+0x24>)
 8005590:	681b      	ldr	r3, [r3, #0]
 8005592:	4a08      	ldr	r2, [pc, #32]	; (80055b4 <RCC_Delay+0x28>)
 8005594:	fba2 2303 	umull	r2, r3, r2, r3
 8005598:	0a5b      	lsrs	r3, r3, #9
 800559a:	fb00 f303 	mul.w	r3, r0, r3
 800559e:	9301      	str	r3, [sp, #4]
 80055a0:	bf00      	nop
 80055a2:	9b01      	ldr	r3, [sp, #4]
 80055a4:	1e5a      	subs	r2, r3, #1
 80055a6:	9201      	str	r2, [sp, #4]
 80055a8:	2b00      	cmp	r3, #0
 80055aa:	d1f9      	bne.n	80055a0 <RCC_Delay+0x14>
 80055ac:	b002      	add	sp, #8
 80055ae:	4770      	bx	lr
 80055b0:	20000008 	.word	0x20000008
 80055b4:	10624dd3 	.word	0x10624dd3

080055b8 <HAL_RCC_OscConfig>:
 80055b8:	2800      	cmp	r0, #0
 80055ba:	f000 81f1 	beq.w	80059a0 <HAL_RCC_OscConfig+0x3e8>
 80055be:	b570      	push	{r4, r5, r6, lr}
 80055c0:	b082      	sub	sp, #8
 80055c2:	4604      	mov	r4, r0
 80055c4:	6803      	ldr	r3, [r0, #0]
 80055c6:	f013 0f01 	tst.w	r3, #1
 80055ca:	d02c      	beq.n	8005626 <HAL_RCC_OscConfig+0x6e>
 80055cc:	4baa      	ldr	r3, [pc, #680]	; (8005878 <HAL_RCC_OscConfig+0x2c0>)
 80055ce:	685b      	ldr	r3, [r3, #4]
 80055d0:	f003 030c 	and.w	r3, r3, #12
 80055d4:	2b04      	cmp	r3, #4
 80055d6:	d01d      	beq.n	8005614 <HAL_RCC_OscConfig+0x5c>
 80055d8:	4ba7      	ldr	r3, [pc, #668]	; (8005878 <HAL_RCC_OscConfig+0x2c0>)
 80055da:	685b      	ldr	r3, [r3, #4]
 80055dc:	f003 030c 	and.w	r3, r3, #12
 80055e0:	2b08      	cmp	r3, #8
 80055e2:	d012      	beq.n	800560a <HAL_RCC_OscConfig+0x52>
 80055e4:	6863      	ldr	r3, [r4, #4]
 80055e6:	f5b3 3f80 	cmp.w	r3, #65536	; 0x10000
 80055ea:	d041      	beq.n	8005670 <HAL_RCC_OscConfig+0xb8>
 80055ec:	2b00      	cmp	r3, #0
 80055ee:	d155      	bne.n	800569c <HAL_RCC_OscConfig+0xe4>
 80055f0:	f103 4380 	add.w	r3, r3, #1073741824	; 0x40000000
 80055f4:	f503 3304 	add.w	r3, r3, #135168	; 0x21000
 80055f8:	681a      	ldr	r2, [r3, #0]
 80055fa:	f422 3280 	bic.w	r2, r2, #65536	; 0x10000
 80055fe:	601a      	str	r2, [r3, #0]
 8005600:	681a      	ldr	r2, [r3, #0]
 8005602:	f422 2280 	bic.w	r2, r2, #262144	; 0x40000
 8005606:	601a      	str	r2, [r3, #0]
 8005608:	e037      	b.n	800567a <HAL_RCC_OscConfig+0xc2>
 800560a:	4b9b      	ldr	r3, [pc, #620]	; (8005878 <HAL_RCC_OscConfig+0x2c0>)
 800560c:	685b      	ldr	r3, [r3, #4]
 800560e:	f413 3f80 	tst.w	r3, #65536	; 0x10000
 8005612:	d0e7      	beq.n	80055e4 <HAL_RCC_OscConfig+0x2c>
 8005614:	4b98      	ldr	r3, [pc, #608]	; (8005878 <HAL_RCC_OscConfig+0x2c0>)
 8005616:	681b      	ldr	r3, [r3, #0]
 8005618:	f413 3f00 	tst.w	r3, #131072	; 0x20000
 800561c:	d003      	beq.n	8005626 <HAL_RCC_OscConfig+0x6e>
 800561e:	6863      	ldr	r3, [r4, #4]
 8005620:	2b00      	cmp	r3, #0
 8005622:	f000 81bf 	beq.w	80059a4 <HAL_RCC_OscConfig+0x3ec>
 8005626:	6823      	ldr	r3, [r4, #0]
 8005628:	f013 0f02 	tst.w	r3, #2
 800562c:	d075      	beq.n	800571a <HAL_RCC_OscConfig+0x162>
 800562e:	4b92      	ldr	r3, [pc, #584]	; (8005878 <HAL_RCC_OscConfig+0x2c0>)
 8005630:	685b      	ldr	r3, [r3, #4]
 8005632:	f013 0f0c 	tst.w	r3, #12
 8005636:	d05f      	beq.n	80056f8 <HAL_RCC_OscConfig+0x140>
 8005638:	4b8f      	ldr	r3, [pc, #572]	; (8005878 <HAL_RCC_OscConfig+0x2c0>)
 800563a:	685b      	ldr	r3, [r3, #4]
 800563c:	f003 030c 	and.w	r3, r3, #12
 8005640:	2b08      	cmp	r3, #8
 8005642:	d054      	beq.n	80056ee <HAL_RCC_OscConfig+0x136>
 8005644:	6923      	ldr	r3, [r4, #16]
 8005646:	2b00      	cmp	r3, #0
 8005648:	f000 8089 	beq.w	800575e <HAL_RCC_OscConfig+0x1a6>
 800564c:	4b8b      	ldr	r3, [pc, #556]	; (800587c <HAL_RCC_OscConfig+0x2c4>)
 800564e:	2201      	movs	r2, #1
 8005650:	601a      	str	r2, [r3, #0]
 8005652:	f7fc fd31 	bl	80020b8 <HAL_GetTick>
 8005656:	4605      	mov	r5, r0
 8005658:	4b87      	ldr	r3, [pc, #540]	; (8005878 <HAL_RCC_OscConfig+0x2c0>)
 800565a:	681b      	ldr	r3, [r3, #0]
 800565c:	f013 0f02 	tst.w	r3, #2
 8005660:	d174      	bne.n	800574c <HAL_RCC_OscConfig+0x194>
 8005662:	f7fc fd29 	bl	80020b8 <HAL_GetTick>
 8005666:	1b40      	subs	r0, r0, r5
 8005668:	2802      	cmp	r0, #2
 800566a:	d9f5      	bls.n	8005658 <HAL_RCC_OscConfig+0xa0>
 800566c:	2003      	movs	r0, #3
 800566e:	e19e      	b.n	80059ae <HAL_RCC_OscConfig+0x3f6>
 8005670:	4a81      	ldr	r2, [pc, #516]	; (8005878 <HAL_RCC_OscConfig+0x2c0>)
 8005672:	6813      	ldr	r3, [r2, #0]
 8005674:	f443 3380 	orr.w	r3, r3, #65536	; 0x10000
 8005678:	6013      	str	r3, [r2, #0]
 800567a:	6863      	ldr	r3, [r4, #4]
 800567c:	b343      	cbz	r3, 80056d0 <HAL_RCC_OscConfig+0x118>
 800567e:	f7fc fd1b 	bl	80020b8 <HAL_GetTick>
 8005682:	4605      	mov	r5, r0
 8005684:	4b7c      	ldr	r3, [pc, #496]	; (8005878 <HAL_RCC_OscConfig+0x2c0>)
 8005686:	681b      	ldr	r3, [r3, #0]
 8005688:	f413 3f00 	tst.w	r3, #131072	; 0x20000
 800568c:	d1cb      	bne.n	8005626 <HAL_RCC_OscConfig+0x6e>
 800568e:	f7fc fd13 	bl	80020b8 <HAL_GetTick>
 8005692:	1b40      	subs	r0, r0, r5
 8005694:	2864      	cmp	r0, #100	; 0x64
 8005696:	d9f5      	bls.n	8005684 <HAL_RCC_OscConfig+0xcc>
 8005698:	2003      	movs	r0, #3
 800569a:	e188      	b.n	80059ae <HAL_RCC_OscConfig+0x3f6>
 800569c:	f5b3 2fa0 	cmp.w	r3, #327680	; 0x50000
 80056a0:	d009      	beq.n	80056b6 <HAL_RCC_OscConfig+0xfe>
 80056a2:	4b75      	ldr	r3, [pc, #468]	; (8005878 <HAL_RCC_OscConfig+0x2c0>)
 80056a4:	681a      	ldr	r2, [r3, #0]
 80056a6:	f422 3280 	bic.w	r2, r2, #65536	; 0x10000
 80056aa:	601a      	str	r2, [r3, #0]
 80056ac:	681a      	ldr	r2, [r3, #0]
 80056ae:	f422 2280 	bic.w	r2, r2, #262144	; 0x40000
 80056b2:	601a      	str	r2, [r3, #0]
 80056b4:	e7e1      	b.n	800567a <HAL_RCC_OscConfig+0xc2>
 80056b6:	f103 4380 	add.w	r3, r3, #1073741824	; 0x40000000
 80056ba:	f5a3 333c 	sub.w	r3, r3, #192512	; 0x2f000
 80056be:	681a      	ldr	r2, [r3, #0]
 80056c0:	f442 2280 	orr.w	r2, r2, #262144	; 0x40000
 80056c4:	601a      	str	r2, [r3, #0]
 80056c6:	681a      	ldr	r2, [r3, #0]
 80056c8:	f442 3280 	orr.w	r2, r2, #65536	; 0x10000
 80056cc:	601a      	str	r2, [r3, #0]
 80056ce:	e7d4      	b.n	800567a <HAL_RCC_OscConfig+0xc2>
 80056d0:	f7fc fcf2 	bl	80020b8 <HAL_GetTick>
 80056d4:	4605      	mov	r5, r0
 80056d6:	4b68      	ldr	r3, [pc, #416]	; (8005878 <HAL_RCC_OscConfig+0x2c0>)
 80056d8:	681b      	ldr	r3, [r3, #0]
 80056da:	f413 3f00 	tst.w	r3, #131072	; 0x20000
 80056de:	d0a2      	beq.n	8005626 <HAL_RCC_OscConfig+0x6e>
 80056e0:	f7fc fcea 	bl	80020b8 <HAL_GetTick>
 80056e4:	1b40      	subs	r0, r0, r5
 80056e6:	2864      	cmp	r0, #100	; 0x64
 80056e8:	d9f5      	bls.n	80056d6 <HAL_RCC_OscConfig+0x11e>
 80056ea:	2003      	movs	r0, #3
 80056ec:	e15f      	b.n	80059ae <HAL_RCC_OscConfig+0x3f6>
 80056ee:	4b62      	ldr	r3, [pc, #392]	; (8005878 <HAL_RCC_OscConfig+0x2c0>)
 80056f0:	685b      	ldr	r3, [r3, #4]
 80056f2:	f413 3f80 	tst.w	r3, #65536	; 0x10000
 80056f6:	d1a5      	bne.n	8005644 <HAL_RCC_OscConfig+0x8c>
 80056f8:	4b5f      	ldr	r3, [pc, #380]	; (8005878 <HAL_RCC_OscConfig+0x2c0>)
 80056fa:	681b      	ldr	r3, [r3, #0]
 80056fc:	f013 0f02 	tst.w	r3, #2
 8005700:	d003      	beq.n	800570a <HAL_RCC_OscConfig+0x152>
 8005702:	6923      	ldr	r3, [r4, #16]
 8005704:	2b01      	cmp	r3, #1
 8005706:	f040 814f 	bne.w	80059a8 <HAL_RCC_OscConfig+0x3f0>
 800570a:	4a5b      	ldr	r2, [pc, #364]	; (8005878 <HAL_RCC_OscConfig+0x2c0>)
 800570c:	6813      	ldr	r3, [r2, #0]
 800570e:	f023 03f8 	bic.w	r3, r3, #248	; 0xf8
 8005712:	6961      	ldr	r1, [r4, #20]
 8005714:	ea43 03c1 	orr.w	r3, r3, r1, lsl #3
 8005718:	6013      	str	r3, [r2, #0]
 800571a:	6823      	ldr	r3, [r4, #0]
 800571c:	f013 0f08 	tst.w	r3, #8
 8005720:	d032      	beq.n	8005788 <HAL_RCC_OscConfig+0x1d0>
 8005722:	69a3      	ldr	r3, [r4, #24]
 8005724:	2b00      	cmp	r3, #0
 8005726:	d045      	beq.n	80057b4 <HAL_RCC_OscConfig+0x1fc>
 8005728:	4b55      	ldr	r3, [pc, #340]	; (8005880 <HAL_RCC_OscConfig+0x2c8>)
 800572a:	2201      	movs	r2, #1
 800572c:	601a      	str	r2, [r3, #0]
 800572e:	f7fc fcc3 	bl	80020b8 <HAL_GetTick>
 8005732:	4605      	mov	r5, r0
 8005734:	4b50      	ldr	r3, [pc, #320]	; (8005878 <HAL_RCC_OscConfig+0x2c0>)
 8005736:	6a5b      	ldr	r3, [r3, #36]	; 0x24
 8005738:	f013 0f02 	tst.w	r3, #2
 800573c:	d121      	bne.n	8005782 <HAL_RCC_OscConfig+0x1ca>
 800573e:	f7fc fcbb 	bl	80020b8 <HAL_GetTick>
 8005742:	1b40      	subs	r0, r0, r5
 8005744:	2802      	cmp	r0, #2
 8005746:	d9f5      	bls.n	8005734 <HAL_RCC_OscConfig+0x17c>
 8005748:	2003      	movs	r0, #3
 800574a:	e130      	b.n	80059ae <HAL_RCC_OscConfig+0x3f6>
 800574c:	4a4a      	ldr	r2, [pc, #296]	; (8005878 <HAL_RCC_OscConfig+0x2c0>)
 800574e:	6813      	ldr	r3, [r2, #0]
 8005750:	f023 03f8 	bic.w	r3, r3, #248	; 0xf8
 8005754:	6961      	ldr	r1, [r4, #20]
 8005756:	ea43 03c1 	orr.w	r3, r3, r1, lsl #3
 800575a:	6013      	str	r3, [r2, #0]
 800575c:	e7dd      	b.n	800571a <HAL_RCC_OscConfig+0x162>
 800575e:	4b47      	ldr	r3, [pc, #284]	; (800587c <HAL_RCC_OscConfig+0x2c4>)
 8005760:	2200      	movs	r2, #0
 8005762:	601a      	str	r2, [r3, #0]
 8005764:	f7fc fca8 	bl	80020b8 <HAL_GetTick>
 8005768:	4605      	mov	r5, r0
 800576a:	4b43      	ldr	r3, [pc, #268]	; (8005878 <HAL_RCC_OscConfig+0x2c0>)
 800576c:	681b      	ldr	r3, [r3, #0]
 800576e:	f013 0f02 	tst.w	r3, #2
 8005772:	d0d2      	beq.n	800571a <HAL_RCC_OscConfig+0x162>
 8005774:	f7fc fca0 	bl	80020b8 <HAL_GetTick>
 8005778:	1b40      	subs	r0, r0, r5
 800577a:	2802      	cmp	r0, #2
 800577c:	d9f5      	bls.n	800576a <HAL_RCC_OscConfig+0x1b2>
 800577e:	2003      	movs	r0, #3
 8005780:	e115      	b.n	80059ae <HAL_RCC_OscConfig+0x3f6>
 8005782:	2001      	movs	r0, #1
 8005784:	f7ff ff02 	bl	800558c <RCC_Delay>
 8005788:	6823      	ldr	r3, [r4, #0]
 800578a:	f013 0f04 	tst.w	r3, #4
 800578e:	f000 8097 	beq.w	80058c0 <HAL_RCC_OscConfig+0x308>
 8005792:	4b39      	ldr	r3, [pc, #228]	; (8005878 <HAL_RCC_OscConfig+0x2c0>)
 8005794:	69db      	ldr	r3, [r3, #28]
 8005796:	f013 5f80 	tst.w	r3, #268435456	; 0x10000000
 800579a:	d11d      	bne.n	80057d8 <HAL_RCC_OscConfig+0x220>
 800579c:	4b36      	ldr	r3, [pc, #216]	; (8005878 <HAL_RCC_OscConfig+0x2c0>)
 800579e:	69da      	ldr	r2, [r3, #28]
 80057a0:	f042 5280 	orr.w	r2, r2, #268435456	; 0x10000000
 80057a4:	61da      	str	r2, [r3, #28]
 80057a6:	69db      	ldr	r3, [r3, #28]
 80057a8:	f003 5380 	and.w	r3, r3, #268435456	; 0x10000000
 80057ac:	9301      	str	r3, [sp, #4]
 80057ae:	9b01      	ldr	r3, [sp, #4]
 80057b0:	2501      	movs	r5, #1
 80057b2:	e012      	b.n	80057da <HAL_RCC_OscConfig+0x222>
 80057b4:	4b32      	ldr	r3, [pc, #200]	; (8005880 <HAL_RCC_OscConfig+0x2c8>)
 80057b6:	2200      	movs	r2, #0
 80057b8:	601a      	str	r2, [r3, #0]
 80057ba:	f7fc fc7d 	bl	80020b8 <HAL_GetTick>
 80057be:	4605      	mov	r5, r0
 80057c0:	4b2d      	ldr	r3, [pc, #180]	; (8005878 <HAL_RCC_OscConfig+0x2c0>)
 80057c2:	6a5b      	ldr	r3, [r3, #36]	; 0x24
 80057c4:	f013 0f02 	tst.w	r3, #2
 80057c8:	d0de      	beq.n	8005788 <HAL_RCC_OscConfig+0x1d0>
 80057ca:	f7fc fc75 	bl	80020b8 <HAL_GetTick>
 80057ce:	1b40      	subs	r0, r0, r5
 80057d0:	2802      	cmp	r0, #2
 80057d2:	d9f5      	bls.n	80057c0 <HAL_RCC_OscConfig+0x208>
 80057d4:	2003      	movs	r0, #3
 80057d6:	e0ea      	b.n	80059ae <HAL_RCC_OscConfig+0x3f6>
 80057d8:	2500      	movs	r5, #0
 80057da:	4b2a      	ldr	r3, [pc, #168]	; (8005884 <HAL_RCC_OscConfig+0x2cc>)
 80057dc:	681b      	ldr	r3, [r3, #0]
 80057de:	f413 7f80 	tst.w	r3, #256	; 0x100
 80057e2:	d011      	beq.n	8005808 <HAL_RCC_OscConfig+0x250>
 80057e4:	68e3      	ldr	r3, [r4, #12]
 80057e6:	2b01      	cmp	r3, #1
 80057e8:	d022      	beq.n	8005830 <HAL_RCC_OscConfig+0x278>
 80057ea:	2b00      	cmp	r3, #0
 80057ec:	d138      	bne.n	8005860 <HAL_RCC_OscConfig+0x2a8>
 80057ee:	f103 4380 	add.w	r3, r3, #1073741824	; 0x40000000
 80057f2:	f503 3304 	add.w	r3, r3, #135168	; 0x21000
 80057f6:	6a1a      	ldr	r2, [r3, #32]
 80057f8:	f022 0201 	bic.w	r2, r2, #1
 80057fc:	621a      	str	r2, [r3, #32]
 80057fe:	6a1a      	ldr	r2, [r3, #32]
 8005800:	f022 0204 	bic.w	r2, r2, #4
 8005804:	621a      	str	r2, [r3, #32]
 8005806:	e018      	b.n	800583a <HAL_RCC_OscConfig+0x282>
 8005808:	4a1e      	ldr	r2, [pc, #120]	; (8005884 <HAL_RCC_OscConfig+0x2cc>)
 800580a:	6813      	ldr	r3, [r2, #0]
 800580c:	f443 7380 	orr.w	r3, r3, #256	; 0x100
 8005810:	6013      	str	r3, [r2, #0]
 8005812:	f7fc fc51 	bl	80020b8 <HAL_GetTick>
 8005816:	4606      	mov	r6, r0
 8005818:	4b1a      	ldr	r3, [pc, #104]	; (8005884 <HAL_RCC_OscConfig+0x2cc>)
 800581a:	681b      	ldr	r3, [r3, #0]
 800581c:	f413 7f80 	tst.w	r3, #256	; 0x100
 8005820:	d1e0      	bne.n	80057e4 <HAL_RCC_OscConfig+0x22c>
 8005822:	f7fc fc49 	bl	80020b8 <HAL_GetTick>
 8005826:	1b80      	subs	r0, r0, r6
 8005828:	2864      	cmp	r0, #100	; 0x64
 800582a:	d9f5      	bls.n	8005818 <HAL_RCC_OscConfig+0x260>
 800582c:	2003      	movs	r0, #3
 800582e:	e0be      	b.n	80059ae <HAL_RCC_OscConfig+0x3f6>
 8005830:	4a11      	ldr	r2, [pc, #68]	; (8005878 <HAL_RCC_OscConfig+0x2c0>)
 8005832:	6a13      	ldr	r3, [r2, #32]
 8005834:	f043 0301 	orr.w	r3, r3, #1
 8005838:	6213      	str	r3, [r2, #32]
 800583a:	68e3      	ldr	r3, [r4, #12]
 800583c:	b373      	cbz	r3, 800589c <HAL_RCC_OscConfig+0x2e4>
 800583e:	f7fc fc3b 	bl	80020b8 <HAL_GetTick>
 8005842:	4606      	mov	r6, r0
 8005844:	4b0c      	ldr	r3, [pc, #48]	; (8005878 <HAL_RCC_OscConfig+0x2c0>)
 8005846:	6a1b      	ldr	r3, [r3, #32]
 8005848:	f013 0f02 	tst.w	r3, #2
 800584c:	d137      	bne.n	80058be <HAL_RCC_OscConfig+0x306>
 800584e:	f7fc fc33 	bl	80020b8 <HAL_GetTick>
 8005852:	1b80      	subs	r0, r0, r6
 8005854:	f241 3388 	movw	r3, #5000	; 0x1388
 8005858:	4298      	cmp	r0, r3
 800585a:	d9f3      	bls.n	8005844 <HAL_RCC_OscConfig+0x28c>
 800585c:	2003      	movs	r0, #3
 800585e:	e0a6      	b.n	80059ae <HAL_RCC_OscConfig+0x3f6>
 8005860:	2b05      	cmp	r3, #5
 8005862:	d011      	beq.n	8005888 <HAL_RCC_OscConfig+0x2d0>
 8005864:	4b04      	ldr	r3, [pc, #16]	; (8005878 <HAL_RCC_OscConfig+0x2c0>)
 8005866:	6a1a      	ldr	r2, [r3, #32]
 8005868:	f022 0201 	bic.w	r2, r2, #1
 800586c:	621a      	str	r2, [r3, #32]
 800586e:	6a1a      	ldr	r2, [r3, #32]
 8005870:	f022 0204 	bic.w	r2, r2, #4
 8005874:	621a      	str	r2, [r3, #32]
 8005876:	e7e0      	b.n	800583a <HAL_RCC_OscConfig+0x282>
 8005878:	40021000 	.word	0x40021000
 800587c:	42420000 	.word	0x42420000
 8005880:	42420480 	.word	0x42420480
 8005884:	40007000 	.word	0x40007000
 8005888:	4b4d      	ldr	r3, [pc, #308]	; (80059c0 <HAL_RCC_OscConfig+0x408>)
 800588a:	6a1a      	ldr	r2, [r3, #32]
 800588c:	f042 0204 	orr.w	r2, r2, #4
 8005890:	621a      	str	r2, [r3, #32]
 8005892:	6a1a      	ldr	r2, [r3, #32]
 8005894:	f042 0201 	orr.w	r2, r2, #1
 8005898:	621a      	str	r2, [r3, #32]
 800589a:	e7ce      	b.n	800583a <HAL_RCC_OscConfig+0x282>
 800589c:	f7fc fc0c 	bl	80020b8 <HAL_GetTick>
 80058a0:	4606      	mov	r6, r0
 80058a2:	4b47      	ldr	r3, [pc, #284]	; (80059c0 <HAL_RCC_OscConfig+0x408>)
 80058a4:	6a1b      	ldr	r3, [r3, #32]
 80058a6:	f013 0f02 	tst.w	r3, #2
 80058aa:	d008      	beq.n	80058be <HAL_RCC_OscConfig+0x306>
 80058ac:	f7fc fc04 	bl	80020b8 <HAL_GetTick>
 80058b0:	1b80      	subs	r0, r0, r6
 80058b2:	f241 3388 	movw	r3, #5000	; 0x1388
 80058b6:	4298      	cmp	r0, r3
 80058b8:	d9f3      	bls.n	80058a2 <HAL_RCC_OscConfig+0x2ea>
 80058ba:	2003      	movs	r0, #3
 80058bc:	e077      	b.n	80059ae <HAL_RCC_OscConfig+0x3f6>
 80058be:	b9e5      	cbnz	r5, 80058fa <HAL_RCC_OscConfig+0x342>
 80058c0:	69e3      	ldr	r3, [r4, #28]
 80058c2:	2b00      	cmp	r3, #0
 80058c4:	d072      	beq.n	80059ac <HAL_RCC_OscConfig+0x3f4>
 80058c6:	4a3e      	ldr	r2, [pc, #248]	; (80059c0 <HAL_RCC_OscConfig+0x408>)
 80058c8:	6852      	ldr	r2, [r2, #4]
 80058ca:	f002 020c 	and.w	r2, r2, #12
 80058ce:	2a08      	cmp	r2, #8
 80058d0:	d056      	beq.n	8005980 <HAL_RCC_OscConfig+0x3c8>
 80058d2:	2b02      	cmp	r3, #2
 80058d4:	d017      	beq.n	8005906 <HAL_RCC_OscConfig+0x34e>
 80058d6:	4b3b      	ldr	r3, [pc, #236]	; (80059c4 <HAL_RCC_OscConfig+0x40c>)
 80058d8:	2200      	movs	r2, #0
 80058da:	601a      	str	r2, [r3, #0]
 80058dc:	f7fc fbec 	bl	80020b8 <HAL_GetTick>
 80058e0:	4604      	mov	r4, r0
 80058e2:	4b37      	ldr	r3, [pc, #220]	; (80059c0 <HAL_RCC_OscConfig+0x408>)
 80058e4:	681b      	ldr	r3, [r3, #0]
 80058e6:	f013 7f00 	tst.w	r3, #33554432	; 0x2000000
 80058ea:	d047      	beq.n	800597c <HAL_RCC_OscConfig+0x3c4>
 80058ec:	f7fc fbe4 	bl	80020b8 <HAL_GetTick>
 80058f0:	1b00      	subs	r0, r0, r4
 80058f2:	2802      	cmp	r0, #2
 80058f4:	d9f5      	bls.n	80058e2 <HAL_RCC_OscConfig+0x32a>
 80058f6:	2003      	movs	r0, #3
 80058f8:	e059      	b.n	80059ae <HAL_RCC_OscConfig+0x3f6>
 80058fa:	4a31      	ldr	r2, [pc, #196]	; (80059c0 <HAL_RCC_OscConfig+0x408>)
 80058fc:	69d3      	ldr	r3, [r2, #28]
 80058fe:	f023 5380 	bic.w	r3, r3, #268435456	; 0x10000000
 8005902:	61d3      	str	r3, [r2, #28]
 8005904:	e7dc      	b.n	80058c0 <HAL_RCC_OscConfig+0x308>
 8005906:	4b2f      	ldr	r3, [pc, #188]	; (80059c4 <HAL_RCC_OscConfig+0x40c>)
 8005908:	2200      	movs	r2, #0
 800590a:	601a      	str	r2, [r3, #0]
 800590c:	f7fc fbd4 	bl	80020b8 <HAL_GetTick>
 8005910:	4605      	mov	r5, r0
 8005912:	4b2b      	ldr	r3, [pc, #172]	; (80059c0 <HAL_RCC_OscConfig+0x408>)
 8005914:	681b      	ldr	r3, [r3, #0]
 8005916:	f013 7f00 	tst.w	r3, #33554432	; 0x2000000
 800591a:	d006      	beq.n	800592a <HAL_RCC_OscConfig+0x372>
 800591c:	f7fc fbcc 	bl	80020b8 <HAL_GetTick>
 8005920:	1b40      	subs	r0, r0, r5
 8005922:	2802      	cmp	r0, #2
 8005924:	d9f5      	bls.n	8005912 <HAL_RCC_OscConfig+0x35a>
 8005926:	2003      	movs	r0, #3
 8005928:	e041      	b.n	80059ae <HAL_RCC_OscConfig+0x3f6>
 800592a:	6a23      	ldr	r3, [r4, #32]
 800592c:	f5b3 3f80 	cmp.w	r3, #65536	; 0x10000
 8005930:	d01a      	beq.n	8005968 <HAL_RCC_OscConfig+0x3b0>
 8005932:	4923      	ldr	r1, [pc, #140]	; (80059c0 <HAL_RCC_OscConfig+0x408>)
 8005934:	684b      	ldr	r3, [r1, #4]
 8005936:	f423 1374 	bic.w	r3, r3, #3997696	; 0x3d0000
 800593a:	6a22      	ldr	r2, [r4, #32]
 800593c:	6a60      	ldr	r0, [r4, #36]	; 0x24
 800593e:	4302      	orrs	r2, r0
 8005940:	4313      	orrs	r3, r2
 8005942:	604b      	str	r3, [r1, #4]
 8005944:	4b1f      	ldr	r3, [pc, #124]	; (80059c4 <HAL_RCC_OscConfig+0x40c>)
 8005946:	2201      	movs	r2, #1
 8005948:	601a      	str	r2, [r3, #0]
 800594a:	f7fc fbb5 	bl	80020b8 <HAL_GetTick>
 800594e:	4604      	mov	r4, r0
 8005950:	4b1b      	ldr	r3, [pc, #108]	; (80059c0 <HAL_RCC_OscConfig+0x408>)
 8005952:	681b      	ldr	r3, [r3, #0]
 8005954:	f013 7f00 	tst.w	r3, #33554432	; 0x2000000
 8005958:	d10e      	bne.n	8005978 <HAL_RCC_OscConfig+0x3c0>
 800595a:	f7fc fbad 	bl	80020b8 <HAL_GetTick>
 800595e:	1b00      	subs	r0, r0, r4
 8005960:	2802      	cmp	r0, #2
 8005962:	d9f5      	bls.n	8005950 <HAL_RCC_OscConfig+0x398>
 8005964:	2003      	movs	r0, #3
 8005966:	e022      	b.n	80059ae <HAL_RCC_OscConfig+0x3f6>
 8005968:	4a15      	ldr	r2, [pc, #84]	; (80059c0 <HAL_RCC_OscConfig+0x408>)
 800596a:	6853      	ldr	r3, [r2, #4]
 800596c:	f423 3300 	bic.w	r3, r3, #131072	; 0x20000
 8005970:	68a1      	ldr	r1, [r4, #8]
 8005972:	430b      	orrs	r3, r1
 8005974:	6053      	str	r3, [r2, #4]
 8005976:	e7dc      	b.n	8005932 <HAL_RCC_OscConfig+0x37a>
 8005978:	2000      	movs	r0, #0
 800597a:	e018      	b.n	80059ae <HAL_RCC_OscConfig+0x3f6>
 800597c:	2000      	movs	r0, #0
 800597e:	e016      	b.n	80059ae <HAL_RCC_OscConfig+0x3f6>
 8005980:	2b01      	cmp	r3, #1
 8005982:	d016      	beq.n	80059b2 <HAL_RCC_OscConfig+0x3fa>
 8005984:	4b0e      	ldr	r3, [pc, #56]	; (80059c0 <HAL_RCC_OscConfig+0x408>)
 8005986:	685b      	ldr	r3, [r3, #4]
 8005988:	f403 3180 	and.w	r1, r3, #65536	; 0x10000
 800598c:	6a22      	ldr	r2, [r4, #32]
 800598e:	4291      	cmp	r1, r2
 8005990:	d111      	bne.n	80059b6 <HAL_RCC_OscConfig+0x3fe>
 8005992:	f403 1370 	and.w	r3, r3, #3932160	; 0x3c0000
 8005996:	6a62      	ldr	r2, [r4, #36]	; 0x24
 8005998:	4293      	cmp	r3, r2
 800599a:	d10e      	bne.n	80059ba <HAL_RCC_OscConfig+0x402>
 800599c:	2000      	movs	r0, #0
 800599e:	e006      	b.n	80059ae <HAL_RCC_OscConfig+0x3f6>
 80059a0:	2001      	movs	r0, #1
 80059a2:	4770      	bx	lr
 80059a4:	2001      	movs	r0, #1
 80059a6:	e002      	b.n	80059ae <HAL_RCC_OscConfig+0x3f6>
 80059a8:	2001      	movs	r0, #1
 80059aa:	e000      	b.n	80059ae <HAL_RCC_OscConfig+0x3f6>
 80059ac:	2000      	movs	r0, #0
 80059ae:	b002      	add	sp, #8
 80059b0:	bd70      	pop	{r4, r5, r6, pc}
 80059b2:	2001      	movs	r0, #1
 80059b4:	e7fb      	b.n	80059ae <HAL_RCC_OscConfig+0x3f6>
 80059b6:	2001      	movs	r0, #1
 80059b8:	e7f9      	b.n	80059ae <HAL_RCC_OscConfig+0x3f6>
 80059ba:	2001      	movs	r0, #1
 80059bc:	e7f7      	b.n	80059ae <HAL_RCC_OscConfig+0x3f6>
 80059be:	bf00      	nop
 80059c0:	40021000 	.word	0x40021000
 80059c4:	42420060 	.word	0x42420060

080059c8 <HAL_RCC_GetSysClockFreq>:
 80059c8:	b086      	sub	sp, #24
 80059ca:	4b16      	ldr	r3, [pc, #88]	; (8005a24 <HAL_RCC_GetSysClockFreq+0x5c>)
 80059cc:	cb0f      	ldmia	r3, {r0, r1, r2, r3}
 80059ce:	f10d 0c18 	add.w	ip, sp, #24
 80059d2:	e90c 000f 	stmdb	ip, {r0, r1, r2, r3}
 80059d6:	f240 2301 	movw	r3, #513	; 0x201
 80059da:	f8ad 3004 	strh.w	r3, [sp, #4]
 80059de:	4b12      	ldr	r3, [pc, #72]	; (8005a28 <HAL_RCC_GetSysClockFreq+0x60>)
 80059e0:	685b      	ldr	r3, [r3, #4]
 80059e2:	f003 020c 	and.w	r2, r3, #12
 80059e6:	2a08      	cmp	r2, #8
 80059e8:	d002      	beq.n	80059f0 <HAL_RCC_GetSysClockFreq+0x28>
 80059ea:	4810      	ldr	r0, [pc, #64]	; (8005a2c <HAL_RCC_GetSysClockFreq+0x64>)
 80059ec:	b006      	add	sp, #24
 80059ee:	4770      	bx	lr
 80059f0:	f3c3 4283 	ubfx	r2, r3, #18, #4
 80059f4:	4462      	add	r2, ip
 80059f6:	f812 2c10 	ldrb.w	r2, [r2, #-16]
 80059fa:	f413 3f80 	tst.w	r3, #65536	; 0x10000
 80059fe:	d00c      	beq.n	8005a1a <HAL_RCC_GetSysClockFreq+0x52>
 8005a00:	4b09      	ldr	r3, [pc, #36]	; (8005a28 <HAL_RCC_GetSysClockFreq+0x60>)
 8005a02:	685b      	ldr	r3, [r3, #4]
 8005a04:	f3c3 4340 	ubfx	r3, r3, #17, #1
 8005a08:	4463      	add	r3, ip
 8005a0a:	f813 3c14 	ldrb.w	r3, [r3, #-20]
 8005a0e:	4807      	ldr	r0, [pc, #28]	; (8005a2c <HAL_RCC_GetSysClockFreq+0x64>)
 8005a10:	fb00 f002 	mul.w	r0, r0, r2
 8005a14:	fbb0 f0f3 	udiv	r0, r0, r3
 8005a18:	e7e8      	b.n	80059ec <HAL_RCC_GetSysClockFreq+0x24>
 8005a1a:	4805      	ldr	r0, [pc, #20]	; (8005a30 <HAL_RCC_GetSysClockFreq+0x68>)
 8005a1c:	fb00 f002 	mul.w	r0, r0, r2
 8005a20:	e7e4      	b.n	80059ec <HAL_RCC_GetSysClockFreq+0x24>
 8005a22:	bf00      	nop
 8005a24:	0800977c 	.word	0x0800977c
 8005a28:	40021000 	.word	0x40021000
 8005a2c:	007a1200 	.word	0x007a1200
 8005a30:	003d0900 	.word	0x003d0900

08005a34 <HAL_RCC_ClockConfig>:
 8005a34:	2800      	cmp	r0, #0
 8005a36:	f000 80a0 	beq.w	8005b7a <HAL_RCC_ClockConfig+0x146>
 8005a3a:	b570      	push	{r4, r5, r6, lr}
 8005a3c:	460d      	mov	r5, r1
 8005a3e:	4604      	mov	r4, r0
 8005a40:	4b52      	ldr	r3, [pc, #328]	; (8005b8c <HAL_RCC_ClockConfig+0x158>)
 8005a42:	681b      	ldr	r3, [r3, #0]
 8005a44:	f003 0307 	and.w	r3, r3, #7
 8005a48:	428b      	cmp	r3, r1
 8005a4a:	d20b      	bcs.n	8005a64 <HAL_RCC_ClockConfig+0x30>
 8005a4c:	4a4f      	ldr	r2, [pc, #316]	; (8005b8c <HAL_RCC_ClockConfig+0x158>)
 8005a4e:	6813      	ldr	r3, [r2, #0]
 8005a50:	f023 0307 	bic.w	r3, r3, #7
 8005a54:	430b      	orrs	r3, r1
 8005a56:	6013      	str	r3, [r2, #0]
 8005a58:	6813      	ldr	r3, [r2, #0]
 8005a5a:	f003 0307 	and.w	r3, r3, #7
 8005a5e:	428b      	cmp	r3, r1
 8005a60:	f040 808d 	bne.w	8005b7e <HAL_RCC_ClockConfig+0x14a>
 8005a64:	6823      	ldr	r3, [r4, #0]
 8005a66:	f013 0f02 	tst.w	r3, #2
 8005a6a:	d017      	beq.n	8005a9c <HAL_RCC_ClockConfig+0x68>
 8005a6c:	f013 0f04 	tst.w	r3, #4
 8005a70:	d004      	beq.n	8005a7c <HAL_RCC_ClockConfig+0x48>
 8005a72:	4a47      	ldr	r2, [pc, #284]	; (8005b90 <HAL_RCC_ClockConfig+0x15c>)
 8005a74:	6853      	ldr	r3, [r2, #4]
 8005a76:	f443 63e0 	orr.w	r3, r3, #1792	; 0x700
 8005a7a:	6053      	str	r3, [r2, #4]
 8005a7c:	6823      	ldr	r3, [r4, #0]
 8005a7e:	f013 0f08 	tst.w	r3, #8
 8005a82:	d004      	beq.n	8005a8e <HAL_RCC_ClockConfig+0x5a>
 8005a84:	4a42      	ldr	r2, [pc, #264]	; (8005b90 <HAL_RCC_ClockConfig+0x15c>)
 8005a86:	6853      	ldr	r3, [r2, #4]
 8005a88:	f443 5360 	orr.w	r3, r3, #14336	; 0x3800
 8005a8c:	6053      	str	r3, [r2, #4]
 8005a8e:	4a40      	ldr	r2, [pc, #256]	; (8005b90 <HAL_RCC_ClockConfig+0x15c>)
 8005a90:	6853      	ldr	r3, [r2, #4]
 8005a92:	f023 03f0 	bic.w	r3, r3, #240	; 0xf0
 8005a96:	68a1      	ldr	r1, [r4, #8]
 8005a98:	430b      	orrs	r3, r1
 8005a9a:	6053      	str	r3, [r2, #4]
 8005a9c:	6823      	ldr	r3, [r4, #0]
 8005a9e:	f013 0f01 	tst.w	r3, #1
 8005aa2:	d031      	beq.n	8005b08 <HAL_RCC_ClockConfig+0xd4>
 8005aa4:	6863      	ldr	r3, [r4, #4]
 8005aa6:	2b01      	cmp	r3, #1
 8005aa8:	d020      	beq.n	8005aec <HAL_RCC_ClockConfig+0xb8>
 8005aaa:	2b02      	cmp	r3, #2
 8005aac:	d025      	beq.n	8005afa <HAL_RCC_ClockConfig+0xc6>
 8005aae:	4a38      	ldr	r2, [pc, #224]	; (8005b90 <HAL_RCC_ClockConfig+0x15c>)
 8005ab0:	6812      	ldr	r2, [r2, #0]
 8005ab2:	f012 0f02 	tst.w	r2, #2
 8005ab6:	d064      	beq.n	8005b82 <HAL_RCC_ClockConfig+0x14e>
 8005ab8:	4935      	ldr	r1, [pc, #212]	; (8005b90 <HAL_RCC_ClockConfig+0x15c>)
 8005aba:	684a      	ldr	r2, [r1, #4]
 8005abc:	f022 0203 	bic.w	r2, r2, #3
 8005ac0:	4313      	orrs	r3, r2
 8005ac2:	604b      	str	r3, [r1, #4]
 8005ac4:	f7fc faf8 	bl	80020b8 <HAL_GetTick>
 8005ac8:	4606      	mov	r6, r0
 8005aca:	4b31      	ldr	r3, [pc, #196]	; (8005b90 <HAL_RCC_ClockConfig+0x15c>)
 8005acc:	685b      	ldr	r3, [r3, #4]
 8005ace:	f003 030c 	and.w	r3, r3, #12
 8005ad2:	6862      	ldr	r2, [r4, #4]
 8005ad4:	ebb3 0f82 	cmp.w	r3, r2, lsl #2
 8005ad8:	d016      	beq.n	8005b08 <HAL_RCC_ClockConfig+0xd4>
 8005ada:	f7fc faed 	bl	80020b8 <HAL_GetTick>
 8005ade:	1b80      	subs	r0, r0, r6
 8005ae0:	f241 3388 	movw	r3, #5000	; 0x1388
 8005ae4:	4298      	cmp	r0, r3
 8005ae6:	d9f0      	bls.n	8005aca <HAL_RCC_ClockConfig+0x96>
 8005ae8:	2003      	movs	r0, #3
 8005aea:	e045      	b.n	8005b78 <HAL_RCC_ClockConfig+0x144>
 8005aec:	4a28      	ldr	r2, [pc, #160]	; (8005b90 <HAL_RCC_ClockConfig+0x15c>)
 8005aee:	6812      	ldr	r2, [r2, #0]
 8005af0:	f412 3f00 	tst.w	r2, #131072	; 0x20000
 8005af4:	d1e0      	bne.n	8005ab8 <HAL_RCC_ClockConfig+0x84>
 8005af6:	2001      	movs	r0, #1
 8005af8:	e03e      	b.n	8005b78 <HAL_RCC_ClockConfig+0x144>
 8005afa:	4a25      	ldr	r2, [pc, #148]	; (8005b90 <HAL_RCC_ClockConfig+0x15c>)
 8005afc:	6812      	ldr	r2, [r2, #0]
 8005afe:	f012 7f00 	tst.w	r2, #33554432	; 0x2000000
 8005b02:	d1d9      	bne.n	8005ab8 <HAL_RCC_ClockConfig+0x84>
 8005b04:	2001      	movs	r0, #1
 8005b06:	e037      	b.n	8005b78 <HAL_RCC_ClockConfig+0x144>
 8005b08:	4b20      	ldr	r3, [pc, #128]	; (8005b8c <HAL_RCC_ClockConfig+0x158>)
 8005b0a:	681b      	ldr	r3, [r3, #0]
 8005b0c:	f003 0307 	and.w	r3, r3, #7
 8005b10:	42ab      	cmp	r3, r5
 8005b12:	d90a      	bls.n	8005b2a <HAL_RCC_ClockConfig+0xf6>
 8005b14:	4a1d      	ldr	r2, [pc, #116]	; (8005b8c <HAL_RCC_ClockConfig+0x158>)
 8005b16:	6813      	ldr	r3, [r2, #0]
 8005b18:	f023 0307 	bic.w	r3, r3, #7
 8005b1c:	432b      	orrs	r3, r5
 8005b1e:	6013      	str	r3, [r2, #0]
 8005b20:	6813      	ldr	r3, [r2, #0]
 8005b22:	f003 0307 	and.w	r3, r3, #7
 8005b26:	42ab      	cmp	r3, r5
 8005b28:	d12d      	bne.n	8005b86 <HAL_RCC_ClockConfig+0x152>
 8005b2a:	6823      	ldr	r3, [r4, #0]
 8005b2c:	f013 0f04 	tst.w	r3, #4
 8005b30:	d006      	beq.n	8005b40 <HAL_RCC_ClockConfig+0x10c>
 8005b32:	4a17      	ldr	r2, [pc, #92]	; (8005b90 <HAL_RCC_ClockConfig+0x15c>)
 8005b34:	6853      	ldr	r3, [r2, #4]
 8005b36:	f423 63e0 	bic.w	r3, r3, #1792	; 0x700
 8005b3a:	68e1      	ldr	r1, [r4, #12]
 8005b3c:	430b      	orrs	r3, r1
 8005b3e:	6053      	str	r3, [r2, #4]
 8005b40:	6823      	ldr	r3, [r4, #0]
 8005b42:	f013 0f08 	tst.w	r3, #8
 8005b46:	d007      	beq.n	8005b58 <HAL_RCC_ClockConfig+0x124>
 8005b48:	4a11      	ldr	r2, [pc, #68]	; (8005b90 <HAL_RCC_ClockConfig+0x15c>)
 8005b4a:	6853      	ldr	r3, [r2, #4]
 8005b4c:	f423 5360 	bic.w	r3, r3, #14336	; 0x3800
 8005b50:	6921      	ldr	r1, [r4, #16]
 8005b52:	ea43 03c1 	orr.w	r3, r3, r1, lsl #3
 8005b56:	6053      	str	r3, [r2, #4]
 8005b58:	f7ff ff36 	bl	80059c8 <HAL_RCC_GetSysClockFreq>
 8005b5c:	4b0c      	ldr	r3, [pc, #48]	; (8005b90 <HAL_RCC_ClockConfig+0x15c>)
 8005b5e:	685b      	ldr	r3, [r3, #4]
 8005b60:	f3c3 1303 	ubfx	r3, r3, #4, #4
 8005b64:	4a0b      	ldr	r2, [pc, #44]	; (8005b94 <HAL_RCC_ClockConfig+0x160>)
 8005b66:	5cd3      	ldrb	r3, [r2, r3]
 8005b68:	40d8      	lsrs	r0, r3
 8005b6a:	4b0b      	ldr	r3, [pc, #44]	; (8005b98 <HAL_RCC_ClockConfig+0x164>)
 8005b6c:	6018      	str	r0, [r3, #0]
 8005b6e:	4b0b      	ldr	r3, [pc, #44]	; (8005b9c <HAL_RCC_ClockConfig+0x168>)
 8005b70:	6818      	ldr	r0, [r3, #0]
 8005b72:	f7fc fa5d 	bl	8002030 <HAL_InitTick>
 8005b76:	2000      	movs	r0, #0
 8005b78:	bd70      	pop	{r4, r5, r6, pc}
 8005b7a:	2001      	movs	r0, #1
 8005b7c:	4770      	bx	lr
 8005b7e:	2001      	movs	r0, #1
 8005b80:	e7fa      	b.n	8005b78 <HAL_RCC_ClockConfig+0x144>
 8005b82:	2001      	movs	r0, #1
 8005b84:	e7f8      	b.n	8005b78 <HAL_RCC_ClockConfig+0x144>
 8005b86:	2001      	movs	r0, #1
 8005b88:	e7f6      	b.n	8005b78 <HAL_RCC_ClockConfig+0x144>
 8005b8a:	bf00      	nop
 8005b8c:	40022000 	.word	0x40022000
 8005b90:	40021000 	.word	0x40021000
 8005b94:	08009764 	.word	0x08009764
 8005b98:	20000008 	.word	0x20000008
 8005b9c:	20000010 	.word	0x20000010

08005ba0 <HAL_RCC_GetHCLKFreq>:
 8005ba0:	4b01      	ldr	r3, [pc, #4]	; (8005ba8 <HAL_RCC_GetHCLKFreq+0x8>)
 8005ba2:	6818      	ldr	r0, [r3, #0]
 8005ba4:	4770      	bx	lr
 8005ba6:	bf00      	nop
 8005ba8:	20000008 	.word	0x20000008

08005bac <HAL_RCC_GetPCLK1Freq>:
 8005bac:	b508      	push	{r3, lr}
 8005bae:	f7ff fff7 	bl	8005ba0 <HAL_RCC_GetHCLKFreq>
 8005bb2:	4b04      	ldr	r3, [pc, #16]	; (8005bc4 <HAL_RCC_GetPCLK1Freq+0x18>)
 8005bb4:	685b      	ldr	r3, [r3, #4]
 8005bb6:	f3c3 2302 	ubfx	r3, r3, #8, #3
 8005bba:	4a03      	ldr	r2, [pc, #12]	; (8005bc8 <HAL_RCC_GetPCLK1Freq+0x1c>)
 8005bbc:	5cd3      	ldrb	r3, [r2, r3]
 8005bbe:	40d8      	lsrs	r0, r3
 8005bc0:	bd08      	pop	{r3, pc}
 8005bc2:	bf00      	nop
 8005bc4:	40021000 	.word	0x40021000
 8005bc8:	08009774 	.word	0x08009774

08005bcc <HAL_RCC_GetPCLK2Freq>:
 8005bcc:	b508      	push	{r3, lr}
 8005bce:	f7ff ffe7 	bl	8005ba0 <HAL_RCC_GetHCLKFreq>
 8005bd2:	4b04      	ldr	r3, [pc, #16]	; (8005be4 <HAL_RCC_GetPCLK2Freq+0x18>)
 8005bd4:	685b      	ldr	r3, [r3, #4]
 8005bd6:	f3c3 23c2 	ubfx	r3, r3, #11, #3
 8005bda:	4a03      	ldr	r2, [pc, #12]	; (8005be8 <HAL_RCC_GetPCLK2Freq+0x1c>)
 8005bdc:	5cd3      	ldrb	r3, [r2, r3]
 8005bde:	40d8      	lsrs	r0, r3
 8005be0:	bd08      	pop	{r3, pc}
 8005be2:	bf00      	nop
 8005be4:	40021000 	.word	0x40021000
 8005be8:	08009774 	.word	0x08009774

08005bec <HAL_RCCEx_PeriphCLKConfig>:
 8005bec:	b570      	push	{r4, r5, r6, lr}
 8005bee:	b082      	sub	sp, #8
 8005bf0:	4604      	mov	r4, r0
 8005bf2:	6803      	ldr	r3, [r0, #0]
 8005bf4:	f013 0f01 	tst.w	r3, #1
 8005bf8:	d034      	beq.n	8005c64 <HAL_RCCEx_PeriphCLKConfig+0x78>
 8005bfa:	4b3e      	ldr	r3, [pc, #248]	; (8005cf4 <HAL_RCCEx_PeriphCLKConfig+0x108>)
 8005bfc:	69db      	ldr	r3, [r3, #28]
 8005bfe:	f013 5f80 	tst.w	r3, #268435456	; 0x10000000
 8005c02:	d147      	bne.n	8005c94 <HAL_RCCEx_PeriphCLKConfig+0xa8>
 8005c04:	4b3b      	ldr	r3, [pc, #236]	; (8005cf4 <HAL_RCCEx_PeriphCLKConfig+0x108>)
 8005c06:	69da      	ldr	r2, [r3, #28]
 8005c08:	f042 5280 	orr.w	r2, r2, #268435456	; 0x10000000
 8005c0c:	61da      	str	r2, [r3, #28]
 8005c0e:	69db      	ldr	r3, [r3, #28]
 8005c10:	f003 5380 	and.w	r3, r3, #268435456	; 0x10000000
 8005c14:	9301      	str	r3, [sp, #4]
 8005c16:	9b01      	ldr	r3, [sp, #4]
 8005c18:	2501      	movs	r5, #1
 8005c1a:	4b37      	ldr	r3, [pc, #220]	; (8005cf8 <HAL_RCCEx_PeriphCLKConfig+0x10c>)
 8005c1c:	681b      	ldr	r3, [r3, #0]
 8005c1e:	f413 7f80 	tst.w	r3, #256	; 0x100
 8005c22:	d039      	beq.n	8005c98 <HAL_RCCEx_PeriphCLKConfig+0xac>
 8005c24:	4b33      	ldr	r3, [pc, #204]	; (8005cf4 <HAL_RCCEx_PeriphCLKConfig+0x108>)
 8005c26:	6a1b      	ldr	r3, [r3, #32]
 8005c28:	f413 7340 	ands.w	r3, r3, #768	; 0x300
 8005c2c:	d011      	beq.n	8005c52 <HAL_RCCEx_PeriphCLKConfig+0x66>
 8005c2e:	6862      	ldr	r2, [r4, #4]
 8005c30:	f402 7240 	and.w	r2, r2, #768	; 0x300
 8005c34:	429a      	cmp	r2, r3
 8005c36:	d00c      	beq.n	8005c52 <HAL_RCCEx_PeriphCLKConfig+0x66>
 8005c38:	4a2e      	ldr	r2, [pc, #184]	; (8005cf4 <HAL_RCCEx_PeriphCLKConfig+0x108>)
 8005c3a:	6a13      	ldr	r3, [r2, #32]
 8005c3c:	f423 7040 	bic.w	r0, r3, #768	; 0x300
 8005c40:	492e      	ldr	r1, [pc, #184]	; (8005cfc <HAL_RCCEx_PeriphCLKConfig+0x110>)
 8005c42:	2601      	movs	r6, #1
 8005c44:	600e      	str	r6, [r1, #0]
 8005c46:	2600      	movs	r6, #0
 8005c48:	600e      	str	r6, [r1, #0]
 8005c4a:	6210      	str	r0, [r2, #32]
 8005c4c:	f013 0f01 	tst.w	r3, #1
 8005c50:	d136      	bne.n	8005cc0 <HAL_RCCEx_PeriphCLKConfig+0xd4>
 8005c52:	4a28      	ldr	r2, [pc, #160]	; (8005cf4 <HAL_RCCEx_PeriphCLKConfig+0x108>)
 8005c54:	6a13      	ldr	r3, [r2, #32]
 8005c56:	f423 7340 	bic.w	r3, r3, #768	; 0x300
 8005c5a:	6861      	ldr	r1, [r4, #4]
 8005c5c:	430b      	orrs	r3, r1
 8005c5e:	6213      	str	r3, [r2, #32]
 8005c60:	2d00      	cmp	r5, #0
 8005c62:	d13e      	bne.n	8005ce2 <HAL_RCCEx_PeriphCLKConfig+0xf6>
 8005c64:	6823      	ldr	r3, [r4, #0]
 8005c66:	f013 0f02 	tst.w	r3, #2
 8005c6a:	d006      	beq.n	8005c7a <HAL_RCCEx_PeriphCLKConfig+0x8e>
 8005c6c:	4a21      	ldr	r2, [pc, #132]	; (8005cf4 <HAL_RCCEx_PeriphCLKConfig+0x108>)
 8005c6e:	6853      	ldr	r3, [r2, #4]
 8005c70:	f423 4340 	bic.w	r3, r3, #49152	; 0xc000
 8005c74:	68a1      	ldr	r1, [r4, #8]
 8005c76:	430b      	orrs	r3, r1
 8005c78:	6053      	str	r3, [r2, #4]
 8005c7a:	6823      	ldr	r3, [r4, #0]
 8005c7c:	f013 0f10 	tst.w	r3, #16
 8005c80:	d034      	beq.n	8005cec <HAL_RCCEx_PeriphCLKConfig+0x100>
 8005c82:	4a1c      	ldr	r2, [pc, #112]	; (8005cf4 <HAL_RCCEx_PeriphCLKConfig+0x108>)
 8005c84:	6853      	ldr	r3, [r2, #4]
 8005c86:	f423 0380 	bic.w	r3, r3, #4194304	; 0x400000
 8005c8a:	68e1      	ldr	r1, [r4, #12]
 8005c8c:	430b      	orrs	r3, r1
 8005c8e:	6053      	str	r3, [r2, #4]
 8005c90:	2000      	movs	r0, #0
 8005c92:	e02c      	b.n	8005cee <HAL_RCCEx_PeriphCLKConfig+0x102>
 8005c94:	2500      	movs	r5, #0
 8005c96:	e7c0      	b.n	8005c1a <HAL_RCCEx_PeriphCLKConfig+0x2e>
 8005c98:	4a17      	ldr	r2, [pc, #92]	; (8005cf8 <HAL_RCCEx_PeriphCLKConfig+0x10c>)
 8005c9a:	6813      	ldr	r3, [r2, #0]
 8005c9c:	f443 7380 	orr.w	r3, r3, #256	; 0x100
 8005ca0:	6013      	str	r3, [r2, #0]
 8005ca2:	f7fc fa09 	bl	80020b8 <HAL_GetTick>
 8005ca6:	4606      	mov	r6, r0
 8005ca8:	4b13      	ldr	r3, [pc, #76]	; (8005cf8 <HAL_RCCEx_PeriphCLKConfig+0x10c>)
 8005caa:	681b      	ldr	r3, [r3, #0]
 8005cac:	f413 7f80 	tst.w	r3, #256	; 0x100
 8005cb0:	d1b8      	bne.n	8005c24 <HAL_RCCEx_PeriphCLKConfig+0x38>
 8005cb2:	f7fc fa01 	bl	80020b8 <HAL_GetTick>
 8005cb6:	1b80      	subs	r0, r0, r6
 8005cb8:	2864      	cmp	r0, #100	; 0x64
 8005cba:	d9f5      	bls.n	8005ca8 <HAL_RCCEx_PeriphCLKConfig+0xbc>
 8005cbc:	2003      	movs	r0, #3
 8005cbe:	e016      	b.n	8005cee <HAL_RCCEx_PeriphCLKConfig+0x102>
 8005cc0:	f7fc f9fa 	bl	80020b8 <HAL_GetTick>
 8005cc4:	4606      	mov	r6, r0
 8005cc6:	4b0b      	ldr	r3, [pc, #44]	; (8005cf4 <HAL_RCCEx_PeriphCLKConfig+0x108>)
 8005cc8:	6a1b      	ldr	r3, [r3, #32]
 8005cca:	f013 0f02 	tst.w	r3, #2
 8005cce:	d1c0      	bne.n	8005c52 <HAL_RCCEx_PeriphCLKConfig+0x66>
 8005cd0:	f7fc f9f2 	bl	80020b8 <HAL_GetTick>
 8005cd4:	1b80      	subs	r0, r0, r6
 8005cd6:	f241 3388 	movw	r3, #5000	; 0x1388
 8005cda:	4298      	cmp	r0, r3
 8005cdc:	d9f3      	bls.n	8005cc6 <HAL_RCCEx_PeriphCLKConfig+0xda>
 8005cde:	2003      	movs	r0, #3
 8005ce0:	e005      	b.n	8005cee <HAL_RCCEx_PeriphCLKConfig+0x102>
 8005ce2:	69d3      	ldr	r3, [r2, #28]
 8005ce4:	f023 5380 	bic.w	r3, r3, #268435456	; 0x10000000
 8005ce8:	61d3      	str	r3, [r2, #28]
 8005cea:	e7bb      	b.n	8005c64 <HAL_RCCEx_PeriphCLKConfig+0x78>
 8005cec:	2000      	movs	r0, #0
 8005cee:	b002      	add	sp, #8
 8005cf0:	bd70      	pop	{r4, r5, r6, pc}
 8005cf2:	bf00      	nop
 8005cf4:	40021000 	.word	0x40021000
 8005cf8:	40007000 	.word	0x40007000
 8005cfc:	42420440 	.word	0x42420440

08005d00 <HAL_RCCEx_GetPeriphCLKFreq>:
 8005d00:	b510      	push	{r4, lr}
 8005d02:	b086      	sub	sp, #24
 8005d04:	4604      	mov	r4, r0
 8005d06:	4b36      	ldr	r3, [pc, #216]	; (8005de0 <HAL_RCCEx_GetPeriphCLKFreq+0xe0>)
 8005d08:	cb0f      	ldmia	r3, {r0, r1, r2, r3}
 8005d0a:	f10d 0c18 	add.w	ip, sp, #24
 8005d0e:	e90c 000f 	stmdb	ip, {r0, r1, r2, r3}
 8005d12:	f240 2301 	movw	r3, #513	; 0x201
 8005d16:	f8ad 3004 	strh.w	r3, [sp, #4]
 8005d1a:	2c02      	cmp	r4, #2
 8005d1c:	d052      	beq.n	8005dc4 <HAL_RCCEx_GetPeriphCLKFreq+0xc4>
 8005d1e:	2c10      	cmp	r4, #16
 8005d20:	d004      	beq.n	8005d2c <HAL_RCCEx_GetPeriphCLKFreq+0x2c>
 8005d22:	2c01      	cmp	r4, #1
 8005d24:	d02c      	beq.n	8005d80 <HAL_RCCEx_GetPeriphCLKFreq+0x80>
 8005d26:	2000      	movs	r0, #0
 8005d28:	b006      	add	sp, #24
 8005d2a:	bd10      	pop	{r4, pc}
 8005d2c:	4b2d      	ldr	r3, [pc, #180]	; (8005de4 <HAL_RCCEx_GetPeriphCLKFreq+0xe4>)
 8005d2e:	685a      	ldr	r2, [r3, #4]
 8005d30:	6818      	ldr	r0, [r3, #0]
 8005d32:	f010 7080 	ands.w	r0, r0, #16777216	; 0x1000000
 8005d36:	d0f7      	beq.n	8005d28 <HAL_RCCEx_GetPeriphCLKFreq+0x28>
 8005d38:	f3c2 4383 	ubfx	r3, r2, #18, #4
 8005d3c:	a906      	add	r1, sp, #24
 8005d3e:	440b      	add	r3, r1
 8005d40:	f813 0c10 	ldrb.w	r0, [r3, #-16]
 8005d44:	f412 3f80 	tst.w	r2, #65536	; 0x10000
 8005d48:	d016      	beq.n	8005d78 <HAL_RCCEx_GetPeriphCLKFreq+0x78>
 8005d4a:	4b26      	ldr	r3, [pc, #152]	; (8005de4 <HAL_RCCEx_GetPeriphCLKFreq+0xe4>)
 8005d4c:	685b      	ldr	r3, [r3, #4]
 8005d4e:	f3c3 4340 	ubfx	r3, r3, #17, #1
 8005d52:	440b      	add	r3, r1
 8005d54:	f813 2c14 	ldrb.w	r2, [r3, #-20]
 8005d58:	4b23      	ldr	r3, [pc, #140]	; (8005de8 <HAL_RCCEx_GetPeriphCLKFreq+0xe8>)
 8005d5a:	fbb3 f3f2 	udiv	r3, r3, r2
 8005d5e:	fb00 f003 	mul.w	r0, r0, r3
 8005d62:	4b20      	ldr	r3, [pc, #128]	; (8005de4 <HAL_RCCEx_GetPeriphCLKFreq+0xe4>)
 8005d64:	685b      	ldr	r3, [r3, #4]
 8005d66:	f413 0f80 	tst.w	r3, #4194304	; 0x400000
 8005d6a:	d1dd      	bne.n	8005d28 <HAL_RCCEx_GetPeriphCLKFreq+0x28>
 8005d6c:	0040      	lsls	r0, r0, #1
 8005d6e:	4b1f      	ldr	r3, [pc, #124]	; (8005dec <HAL_RCCEx_GetPeriphCLKFreq+0xec>)
 8005d70:	fba3 3000 	umull	r3, r0, r3, r0
 8005d74:	0840      	lsrs	r0, r0, #1
 8005d76:	e7d7      	b.n	8005d28 <HAL_RCCEx_GetPeriphCLKFreq+0x28>
 8005d78:	4b1d      	ldr	r3, [pc, #116]	; (8005df0 <HAL_RCCEx_GetPeriphCLKFreq+0xf0>)
 8005d7a:	fb03 f000 	mul.w	r0, r3, r0
 8005d7e:	e7f0      	b.n	8005d62 <HAL_RCCEx_GetPeriphCLKFreq+0x62>
 8005d80:	4b18      	ldr	r3, [pc, #96]	; (8005de4 <HAL_RCCEx_GetPeriphCLKFreq+0xe4>)
 8005d82:	6a1b      	ldr	r3, [r3, #32]
 8005d84:	f240 3202 	movw	r2, #770	; 0x302
 8005d88:	401a      	ands	r2, r3
 8005d8a:	f5b2 7f81 	cmp.w	r2, #258	; 0x102
 8005d8e:	d024      	beq.n	8005dda <HAL_RCCEx_GetPeriphCLKFreq+0xda>
 8005d90:	f403 7340 	and.w	r3, r3, #768	; 0x300
 8005d94:	f5b3 7f00 	cmp.w	r3, #512	; 0x200
 8005d98:	d004      	beq.n	8005da4 <HAL_RCCEx_GetPeriphCLKFreq+0xa4>
 8005d9a:	f5b3 7f40 	cmp.w	r3, #768	; 0x300
 8005d9e:	d009      	beq.n	8005db4 <HAL_RCCEx_GetPeriphCLKFreq+0xb4>
 8005da0:	2000      	movs	r0, #0
 8005da2:	e7c1      	b.n	8005d28 <HAL_RCCEx_GetPeriphCLKFreq+0x28>
 8005da4:	4a0f      	ldr	r2, [pc, #60]	; (8005de4 <HAL_RCCEx_GetPeriphCLKFreq+0xe4>)
 8005da6:	6a52      	ldr	r2, [r2, #36]	; 0x24
 8005da8:	f012 0f02 	tst.w	r2, #2
 8005dac:	d0f5      	beq.n	8005d9a <HAL_RCCEx_GetPeriphCLKFreq+0x9a>
 8005dae:	f649 4040 	movw	r0, #40000	; 0x9c40
 8005db2:	e7b9      	b.n	8005d28 <HAL_RCCEx_GetPeriphCLKFreq+0x28>
 8005db4:	4b0b      	ldr	r3, [pc, #44]	; (8005de4 <HAL_RCCEx_GetPeriphCLKFreq+0xe4>)
 8005db6:	6818      	ldr	r0, [r3, #0]
 8005db8:	f410 3000 	ands.w	r0, r0, #131072	; 0x20000
 8005dbc:	d0b4      	beq.n	8005d28 <HAL_RCCEx_GetPeriphCLKFreq+0x28>
 8005dbe:	f24f 4024 	movw	r0, #62500	; 0xf424
 8005dc2:	e7b1      	b.n	8005d28 <HAL_RCCEx_GetPeriphCLKFreq+0x28>
 8005dc4:	f7ff ff02 	bl	8005bcc <HAL_RCC_GetPCLK2Freq>
 8005dc8:	4b06      	ldr	r3, [pc, #24]	; (8005de4 <HAL_RCCEx_GetPeriphCLKFreq+0xe4>)
 8005dca:	685b      	ldr	r3, [r3, #4]
 8005dcc:	f3c3 3381 	ubfx	r3, r3, #14, #2
 8005dd0:	3301      	adds	r3, #1
 8005dd2:	005b      	lsls	r3, r3, #1
 8005dd4:	fbb0 f0f3 	udiv	r0, r0, r3
 8005dd8:	e7a6      	b.n	8005d28 <HAL_RCCEx_GetPeriphCLKFreq+0x28>
 8005dda:	f44f 4000 	mov.w	r0, #32768	; 0x8000
 8005dde:	e7a3      	b.n	8005d28 <HAL_RCCEx_GetPeriphCLKFreq+0x28>
 8005de0:	0800977c 	.word	0x0800977c
 8005de4:	40021000 	.word	0x40021000
 8005de8:	007a1200 	.word	0x007a1200
 8005dec:	aaaaaaab 	.word	0xaaaaaaab
 8005df0:	003d0900 	.word	0x003d0900

08005df4 <TIM_OC1_SetConfig>:
 8005df4:	b470      	push	{r4, r5, r6}
 8005df6:	6a03      	ldr	r3, [r0, #32]
 8005df8:	f023 0301 	bic.w	r3, r3, #1
 8005dfc:	6203      	str	r3, [r0, #32]
 8005dfe:	6a03      	ldr	r3, [r0, #32]
 8005e00:	6846      	ldr	r6, [r0, #4]
 8005e02:	6982      	ldr	r2, [r0, #24]
 8005e04:	f022 0273 	bic.w	r2, r2, #115	; 0x73
 8005e08:	680c      	ldr	r4, [r1, #0]
 8005e0a:	ea44 0502 	orr.w	r5, r4, r2
 8005e0e:	f023 0202 	bic.w	r2, r3, #2
 8005e12:	688b      	ldr	r3, [r1, #8]
 8005e14:	4313      	orrs	r3, r2
 8005e16:	4c0d      	ldr	r4, [pc, #52]	; (8005e4c <TIM_OC1_SetConfig+0x58>)
 8005e18:	42a0      	cmp	r0, r4
 8005e1a:	d009      	beq.n	8005e30 <TIM_OC1_SetConfig+0x3c>
 8005e1c:	4c0b      	ldr	r4, [pc, #44]	; (8005e4c <TIM_OC1_SetConfig+0x58>)
 8005e1e:	42a0      	cmp	r0, r4
 8005e20:	d00d      	beq.n	8005e3e <TIM_OC1_SetConfig+0x4a>
 8005e22:	6046      	str	r6, [r0, #4]
 8005e24:	6185      	str	r5, [r0, #24]
 8005e26:	684a      	ldr	r2, [r1, #4]
 8005e28:	6342      	str	r2, [r0, #52]	; 0x34
 8005e2a:	6203      	str	r3, [r0, #32]
 8005e2c:	bc70      	pop	{r4, r5, r6}
 8005e2e:	4770      	bx	lr
 8005e30:	f023 0308 	bic.w	r3, r3, #8
 8005e34:	68ca      	ldr	r2, [r1, #12]
 8005e36:	4313      	orrs	r3, r2
 8005e38:	f023 0304 	bic.w	r3, r3, #4
 8005e3c:	e7ee      	b.n	8005e1c <TIM_OC1_SetConfig+0x28>
 8005e3e:	f426 7640 	bic.w	r6, r6, #768	; 0x300
 8005e42:	694a      	ldr	r2, [r1, #20]
 8005e44:	4332      	orrs	r2, r6
 8005e46:	698e      	ldr	r6, [r1, #24]
 8005e48:	4316      	orrs	r6, r2
 8005e4a:	e7ea      	b.n	8005e22 <TIM_OC1_SetConfig+0x2e>
 8005e4c:	40012c00 	.word	0x40012c00

08005e50 <TIM_OC3_SetConfig>:
 8005e50:	b430      	push	{r4, r5}
 8005e52:	6a03      	ldr	r3, [r0, #32]
 8005e54:	f423 7380 	bic.w	r3, r3, #256	; 0x100
 8005e58:	6203      	str	r3, [r0, #32]
 8005e5a:	6a03      	ldr	r3, [r0, #32]
 8005e5c:	6845      	ldr	r5, [r0, #4]
 8005e5e:	69c2      	ldr	r2, [r0, #28]
 8005e60:	f022 0273 	bic.w	r2, r2, #115	; 0x73
 8005e64:	680c      	ldr	r4, [r1, #0]
 8005e66:	4322      	orrs	r2, r4
 8005e68:	f423 7300 	bic.w	r3, r3, #512	; 0x200
 8005e6c:	688c      	ldr	r4, [r1, #8]
 8005e6e:	ea43 2304 	orr.w	r3, r3, r4, lsl #8
 8005e72:	4c0f      	ldr	r4, [pc, #60]	; (8005eb0 <TIM_OC3_SetConfig+0x60>)
 8005e74:	42a0      	cmp	r0, r4
 8005e76:	d009      	beq.n	8005e8c <TIM_OC3_SetConfig+0x3c>
 8005e78:	4c0d      	ldr	r4, [pc, #52]	; (8005eb0 <TIM_OC3_SetConfig+0x60>)
 8005e7a:	42a0      	cmp	r0, r4
 8005e7c:	d00e      	beq.n	8005e9c <TIM_OC3_SetConfig+0x4c>
 8005e7e:	6045      	str	r5, [r0, #4]
 8005e80:	61c2      	str	r2, [r0, #28]
 8005e82:	684a      	ldr	r2, [r1, #4]
 8005e84:	63c2      	str	r2, [r0, #60]	; 0x3c
 8005e86:	6203      	str	r3, [r0, #32]
 8005e88:	bc30      	pop	{r4, r5}
 8005e8a:	4770      	bx	lr
 8005e8c:	f423 6300 	bic.w	r3, r3, #2048	; 0x800
 8005e90:	68cc      	ldr	r4, [r1, #12]
 8005e92:	ea43 2304 	orr.w	r3, r3, r4, lsl #8
 8005e96:	f423 6380 	bic.w	r3, r3, #1024	; 0x400
 8005e9a:	e7ed      	b.n	8005e78 <TIM_OC3_SetConfig+0x28>
 8005e9c:	f425 5540 	bic.w	r5, r5, #12288	; 0x3000
 8005ea0:	694c      	ldr	r4, [r1, #20]
 8005ea2:	ea45 1504 	orr.w	r5, r5, r4, lsl #4
 8005ea6:	698c      	ldr	r4, [r1, #24]
 8005ea8:	ea45 1504 	orr.w	r5, r5, r4, lsl #4
 8005eac:	e7e7      	b.n	8005e7e <TIM_OC3_SetConfig+0x2e>
 8005eae:	bf00      	nop
 8005eb0:	40012c00 	.word	0x40012c00

08005eb4 <TIM_OC4_SetConfig>:
 8005eb4:	b430      	push	{r4, r5}
 8005eb6:	6a03      	ldr	r3, [r0, #32]
 8005eb8:	f423 5380 	bic.w	r3, r3, #4096	; 0x1000
 8005ebc:	6203      	str	r3, [r0, #32]
 8005ebe:	6a03      	ldr	r3, [r0, #32]
 8005ec0:	6844      	ldr	r4, [r0, #4]
 8005ec2:	69c2      	ldr	r2, [r0, #28]
 8005ec4:	f422 42e6 	bic.w	r2, r2, #29440	; 0x7300
 8005ec8:	680d      	ldr	r5, [r1, #0]
 8005eca:	ea42 2205 	orr.w	r2, r2, r5, lsl #8
 8005ece:	f423 5300 	bic.w	r3, r3, #8192	; 0x2000
 8005ed2:	688d      	ldr	r5, [r1, #8]
 8005ed4:	ea43 3305 	orr.w	r3, r3, r5, lsl #12
 8005ed8:	4d07      	ldr	r5, [pc, #28]	; (8005ef8 <TIM_OC4_SetConfig+0x44>)
 8005eda:	42a8      	cmp	r0, r5
 8005edc:	d006      	beq.n	8005eec <TIM_OC4_SetConfig+0x38>
 8005ede:	6044      	str	r4, [r0, #4]
 8005ee0:	61c2      	str	r2, [r0, #28]
 8005ee2:	684a      	ldr	r2, [r1, #4]
 8005ee4:	6402      	str	r2, [r0, #64]	; 0x40
 8005ee6:	6203      	str	r3, [r0, #32]
 8005ee8:	bc30      	pop	{r4, r5}
 8005eea:	4770      	bx	lr
 8005eec:	f424 4480 	bic.w	r4, r4, #16384	; 0x4000
 8005ef0:	694d      	ldr	r5, [r1, #20]
 8005ef2:	ea44 1485 	orr.w	r4, r4, r5, lsl #6
 8005ef6:	e7f2      	b.n	8005ede <TIM_OC4_SetConfig+0x2a>
 8005ef8:	40012c00 	.word	0x40012c00

08005efc <TIM_TI1_ConfigInputStage>:
 8005efc:	b430      	push	{r4, r5}
 8005efe:	6a03      	ldr	r3, [r0, #32]
 8005f00:	6a05      	ldr	r5, [r0, #32]
 8005f02:	f025 0501 	bic.w	r5, r5, #1
 8005f06:	6205      	str	r5, [r0, #32]
 8005f08:	6984      	ldr	r4, [r0, #24]
 8005f0a:	f024 04f0 	bic.w	r4, r4, #240	; 0xf0
 8005f0e:	ea44 1402 	orr.w	r4, r4, r2, lsl #4
 8005f12:	f023 030a 	bic.w	r3, r3, #10
 8005f16:	430b      	orrs	r3, r1
 8005f18:	6184      	str	r4, [r0, #24]
 8005f1a:	6203      	str	r3, [r0, #32]
 8005f1c:	bc30      	pop	{r4, r5}
 8005f1e:	4770      	bx	lr

08005f20 <TIM_TI2_SetConfig>:
 8005f20:	b430      	push	{r4, r5}
 8005f22:	6a05      	ldr	r5, [r0, #32]
 8005f24:	f025 0510 	bic.w	r5, r5, #16
 8005f28:	6205      	str	r5, [r0, #32]
 8005f2a:	6984      	ldr	r4, [r0, #24]
 8005f2c:	6a05      	ldr	r5, [r0, #32]
 8005f2e:	f424 7440 	bic.w	r4, r4, #768	; 0x300
 8005f32:	ea44 2402 	orr.w	r4, r4, r2, lsl #8
 8005f36:	f424 4470 	bic.w	r4, r4, #61440	; 0xf000
 8005f3a:	031b      	lsls	r3, r3, #12
 8005f3c:	b29b      	uxth	r3, r3
 8005f3e:	4323      	orrs	r3, r4
 8005f40:	f025 05a0 	bic.w	r5, r5, #160	; 0xa0
 8005f44:	0109      	lsls	r1, r1, #4
 8005f46:	f001 01a0 	and.w	r1, r1, #160	; 0xa0
 8005f4a:	4329      	orrs	r1, r5
 8005f4c:	6183      	str	r3, [r0, #24]
 8005f4e:	6201      	str	r1, [r0, #32]
 8005f50:	bc30      	pop	{r4, r5}
 8005f52:	4770      	bx	lr

08005f54 <TIM_TI2_ConfigInputStage>:
 8005f54:	b430      	push	{r4, r5}
 8005f56:	6a05      	ldr	r5, [r0, #32]
 8005f58:	f025 0510 	bic.w	r5, r5, #16
 8005f5c:	6205      	str	r5, [r0, #32]
 8005f5e:	6984      	ldr	r4, [r0, #24]
 8005f60:	6a03      	ldr	r3, [r0, #32]
 8005f62:	f424 4470 	bic.w	r4, r4, #61440	; 0xf000
 8005f66:	ea44 3402 	orr.w	r4, r4, r2, lsl #12
 8005f6a:	f023 03a0 	bic.w	r3, r3, #160	; 0xa0
 8005f6e:	ea43 1301 	orr.w	r3, r3, r1, lsl #4
 8005f72:	6184      	str	r4, [r0, #24]
 8005f74:	6203      	str	r3, [r0, #32]
 8005f76:	bc30      	pop	{r4, r5}
 8005f78:	4770      	bx	lr

08005f7a <TIM_TI3_SetConfig>:
 8005f7a:	b430      	push	{r4, r5}
 8005f7c:	6a05      	ldr	r5, [r0, #32]
 8005f7e:	f425 7580 	bic.w	r5, r5, #256	; 0x100
 8005f82:	6205      	str	r5, [r0, #32]
 8005f84:	69c4      	ldr	r4, [r0, #28]
 8005f86:	6a05      	ldr	r5, [r0, #32]
 8005f88:	f024 0403 	bic.w	r4, r4, #3
 8005f8c:	4314      	orrs	r4, r2
 8005f8e:	f024 04f0 	bic.w	r4, r4, #240	; 0xf0
 8005f92:	011b      	lsls	r3, r3, #4
 8005f94:	b2db      	uxtb	r3, r3
 8005f96:	4323      	orrs	r3, r4
 8005f98:	f425 7500 	bic.w	r5, r5, #512	; 0x200
 8005f9c:	0209      	lsls	r1, r1, #8
 8005f9e:	f401 7100 	and.w	r1, r1, #512	; 0x200
 8005fa2:	4329      	orrs	r1, r5
 8005fa4:	61c3      	str	r3, [r0, #28]
 8005fa6:	6201      	str	r1, [r0, #32]
 8005fa8:	bc30      	pop	{r4, r5}
 8005faa:	4770      	bx	lr

08005fac <TIM_TI4_SetConfig>:
 8005fac:	b430      	push	{r4, r5}
 8005fae:	6a05      	ldr	r5, [r0, #32]
 8005fb0:	f425 5580 	bic.w	r5, r5, #4096	; 0x1000
 8005fb4:	6205      	str	r5, [r0, #32]
 8005fb6:	69c4      	ldr	r4, [r0, #28]
 8005fb8:	6a05      	ldr	r5, [r0, #32]
 8005fba:	f424 7440 	bic.w	r4, r4, #768	; 0x300
 8005fbe:	ea44 2402 	orr.w	r4, r4, r2, lsl #8
 8005fc2:	f424 4470 	bic.w	r4, r4, #61440	; 0xf000
 8005fc6:	031b      	lsls	r3, r3, #12
 8005fc8:	b29b      	uxth	r3, r3
 8005fca:	4323      	orrs	r3, r4
 8005fcc:	f425 5500 	bic.w	r5, r5, #8192	; 0x2000
 8005fd0:	0309      	lsls	r1, r1, #12
 8005fd2:	f401 5100 	and.w	r1, r1, #8192	; 0x2000
 8005fd6:	4329      	orrs	r1, r5
 8005fd8:	61c3      	str	r3, [r0, #28]
 8005fda:	6201      	str	r1, [r0, #32]
 8005fdc:	bc30      	pop	{r4, r5}
 8005fde:	4770      	bx	lr

08005fe0 <TIM_ITRx_SetConfig>:
 8005fe0:	6883      	ldr	r3, [r0, #8]
 8005fe2:	f023 0370 	bic.w	r3, r3, #112	; 0x70
 8005fe6:	430b      	orrs	r3, r1
 8005fe8:	f043 0307 	orr.w	r3, r3, #7
 8005fec:	6083      	str	r3, [r0, #8]
 8005fee:	4770      	bx	lr

08005ff0 <HAL_TIM_Base_Start_IT>:
 8005ff0:	f890 303d 	ldrb.w	r3, [r0, #61]	; 0x3d
 8005ff4:	b2db      	uxtb	r3, r3
 8005ff6:	2b01      	cmp	r3, #1
 8005ff8:	d127      	bne.n	800604a <HAL_TIM_Base_Start_IT+0x5a>
 8005ffa:	2302      	movs	r3, #2
 8005ffc:	f880 303d 	strb.w	r3, [r0, #61]	; 0x3d
 8006000:	6802      	ldr	r2, [r0, #0]
 8006002:	68d3      	ldr	r3, [r2, #12]
 8006004:	f043 0301 	orr.w	r3, r3, #1
 8006008:	60d3      	str	r3, [r2, #12]
 800600a:	6803      	ldr	r3, [r0, #0]
 800600c:	4a11      	ldr	r2, [pc, #68]	; (8006054 <HAL_TIM_Base_Start_IT+0x64>)
 800600e:	4293      	cmp	r3, r2
 8006010:	d010      	beq.n	8006034 <HAL_TIM_Base_Start_IT+0x44>
 8006012:	f1b3 4f80 	cmp.w	r3, #1073741824	; 0x40000000
 8006016:	d00d      	beq.n	8006034 <HAL_TIM_Base_Start_IT+0x44>
 8006018:	f5a2 3294 	sub.w	r2, r2, #75776	; 0x12800
 800601c:	4293      	cmp	r3, r2
 800601e:	d009      	beq.n	8006034 <HAL_TIM_Base_Start_IT+0x44>
 8006020:	f502 6280 	add.w	r2, r2, #1024	; 0x400
 8006024:	4293      	cmp	r3, r2
 8006026:	d005      	beq.n	8006034 <HAL_TIM_Base_Start_IT+0x44>
 8006028:	681a      	ldr	r2, [r3, #0]
 800602a:	f042 0201 	orr.w	r2, r2, #1
 800602e:	601a      	str	r2, [r3, #0]
 8006030:	2000      	movs	r0, #0
 8006032:	4770      	bx	lr
 8006034:	689a      	ldr	r2, [r3, #8]
 8006036:	f002 0207 	and.w	r2, r2, #7
 800603a:	2a06      	cmp	r2, #6
 800603c:	d007      	beq.n	800604e <HAL_TIM_Base_Start_IT+0x5e>
 800603e:	681a      	ldr	r2, [r3, #0]
 8006040:	f042 0201 	orr.w	r2, r2, #1
 8006044:	601a      	str	r2, [r3, #0]
 8006046:	2000      	movs	r0, #0
 8006048:	4770      	bx	lr
 800604a:	2001      	movs	r0, #1
 800604c:	4770      	bx	lr
 800604e:	2000      	movs	r0, #0
 8006050:	4770      	bx	lr
 8006052:	bf00      	nop
 8006054:	40012c00 	.word	0x40012c00

08006058 <HAL_TIM_PWM_MspInit>:
 8006058:	4770      	bx	lr

0800605a <HAL_TIM_IC_MspInit>:
 800605a:	4770      	bx	lr

0800605c <HAL_TIM_PeriodElapsedCallback>:
 800605c:	4770      	bx	lr

0800605e <HAL_TIM_OC_DelayElapsedCallback>:
 800605e:	4770      	bx	lr

08006060 <HAL_TIM_PWM_PulseFinishedCallback>:
 8006060:	4770      	bx	lr

08006062 <HAL_TIM_TriggerCallback>:
 8006062:	4770      	bx	lr

08006064 <HAL_TIM_IRQHandler>:
 8006064:	b510      	push	{r4, lr}
 8006066:	4604      	mov	r4, r0
 8006068:	6803      	ldr	r3, [r0, #0]
 800606a:	691a      	ldr	r2, [r3, #16]
 800606c:	f012 0f02 	tst.w	r2, #2
 8006070:	d011      	beq.n	8006096 <HAL_TIM_IRQHandler+0x32>
 8006072:	68da      	ldr	r2, [r3, #12]
 8006074:	f012 0f02 	tst.w	r2, #2
 8006078:	d00d      	beq.n	8006096 <HAL_TIM_IRQHandler+0x32>
 800607a:	f06f 0202 	mvn.w	r2, #2
 800607e:	611a      	str	r2, [r3, #16]
 8006080:	2301      	movs	r3, #1
 8006082:	7703      	strb	r3, [r0, #28]
 8006084:	6803      	ldr	r3, [r0, #0]
 8006086:	699b      	ldr	r3, [r3, #24]
 8006088:	f013 0f03 	tst.w	r3, #3
 800608c:	d070      	beq.n	8006170 <HAL_TIM_IRQHandler+0x10c>
 800608e:	f7fb fa51 	bl	8001534 <HAL_TIM_IC_CaptureCallback>
 8006092:	2300      	movs	r3, #0
 8006094:	7723      	strb	r3, [r4, #28]
 8006096:	6823      	ldr	r3, [r4, #0]
 8006098:	691a      	ldr	r2, [r3, #16]
 800609a:	f012 0f04 	tst.w	r2, #4
 800609e:	d012      	beq.n	80060c6 <HAL_TIM_IRQHandler+0x62>
 80060a0:	68da      	ldr	r2, [r3, #12]
 80060a2:	f012 0f04 	tst.w	r2, #4
 80060a6:	d00e      	beq.n	80060c6 <HAL_TIM_IRQHandler+0x62>
 80060a8:	f06f 0204 	mvn.w	r2, #4
 80060ac:	611a      	str	r2, [r3, #16]
 80060ae:	2302      	movs	r3, #2
 80060b0:	7723      	strb	r3, [r4, #28]
 80060b2:	6823      	ldr	r3, [r4, #0]
 80060b4:	699b      	ldr	r3, [r3, #24]
 80060b6:	f413 7f40 	tst.w	r3, #768	; 0x300
 80060ba:	d05f      	beq.n	800617c <HAL_TIM_IRQHandler+0x118>
 80060bc:	4620      	mov	r0, r4
 80060be:	f7fb fa39 	bl	8001534 <HAL_TIM_IC_CaptureCallback>
 80060c2:	2300      	movs	r3, #0
 80060c4:	7723      	strb	r3, [r4, #28]
 80060c6:	6823      	ldr	r3, [r4, #0]
 80060c8:	691a      	ldr	r2, [r3, #16]
 80060ca:	f012 0f08 	tst.w	r2, #8
 80060ce:	d012      	beq.n	80060f6 <HAL_TIM_IRQHandler+0x92>
 80060d0:	68da      	ldr	r2, [r3, #12]
 80060d2:	f012 0f08 	tst.w	r2, #8
 80060d6:	d00e      	beq.n	80060f6 <HAL_TIM_IRQHandler+0x92>
 80060d8:	f06f 0208 	mvn.w	r2, #8
 80060dc:	611a      	str	r2, [r3, #16]
 80060de:	2304      	movs	r3, #4
 80060e0:	7723      	strb	r3, [r4, #28]
 80060e2:	6823      	ldr	r3, [r4, #0]
 80060e4:	69db      	ldr	r3, [r3, #28]
 80060e6:	f013 0f03 	tst.w	r3, #3
 80060ea:	d04e      	beq.n	800618a <HAL_TIM_IRQHandler+0x126>
 80060ec:	4620      	mov	r0, r4
 80060ee:	f7fb fa21 	bl	8001534 <HAL_TIM_IC_CaptureCallback>
 80060f2:	2300      	movs	r3, #0
 80060f4:	7723      	strb	r3, [r4, #28]
 80060f6:	6823      	ldr	r3, [r4, #0]
 80060f8:	691a      	ldr	r2, [r3, #16]
 80060fa:	f012 0f10 	tst.w	r2, #16
 80060fe:	d012      	beq.n	8006126 <HAL_TIM_IRQHandler+0xc2>
 8006100:	68da      	ldr	r2, [r3, #12]
 8006102:	f012 0f10 	tst.w	r2, #16
 8006106:	d00e      	beq.n	8006126 <HAL_TIM_IRQHandler+0xc2>
 8006108:	f06f 0210 	mvn.w	r2, #16
 800610c:	611a      	str	r2, [r3, #16]
 800610e:	2308      	movs	r3, #8
 8006110:	7723      	strb	r3, [r4, #28]
 8006112:	6823      	ldr	r3, [r4, #0]
 8006114:	69db      	ldr	r3, [r3, #28]
 8006116:	f413 7f40 	tst.w	r3, #768	; 0x300
 800611a:	d03d      	beq.n	8006198 <HAL_TIM_IRQHandler+0x134>
 800611c:	4620      	mov	r0, r4
 800611e:	f7fb fa09 	bl	8001534 <HAL_TIM_IC_CaptureCallback>
 8006122:	2300      	movs	r3, #0
 8006124:	7723      	strb	r3, [r4, #28]
 8006126:	6823      	ldr	r3, [r4, #0]
 8006128:	691a      	ldr	r2, [r3, #16]
 800612a:	f012 0f01 	tst.w	r2, #1
 800612e:	d003      	beq.n	8006138 <HAL_TIM_IRQHandler+0xd4>
 8006130:	68da      	ldr	r2, [r3, #12]
 8006132:	f012 0f01 	tst.w	r2, #1
 8006136:	d136      	bne.n	80061a6 <HAL_TIM_IRQHandler+0x142>
 8006138:	6823      	ldr	r3, [r4, #0]
 800613a:	691a      	ldr	r2, [r3, #16]
 800613c:	f012 0f80 	tst.w	r2, #128	; 0x80
 8006140:	d003      	beq.n	800614a <HAL_TIM_IRQHandler+0xe6>
 8006142:	68da      	ldr	r2, [r3, #12]
 8006144:	f012 0f80 	tst.w	r2, #128	; 0x80
 8006148:	d134      	bne.n	80061b4 <HAL_TIM_IRQHandler+0x150>
 800614a:	6823      	ldr	r3, [r4, #0]
 800614c:	691a      	ldr	r2, [r3, #16]
 800614e:	f012 0f40 	tst.w	r2, #64	; 0x40
 8006152:	d003      	beq.n	800615c <HAL_TIM_IRQHandler+0xf8>
 8006154:	68da      	ldr	r2, [r3, #12]
 8006156:	f012 0f40 	tst.w	r2, #64	; 0x40
 800615a:	d132      	bne.n	80061c2 <HAL_TIM_IRQHandler+0x15e>
 800615c:	6823      	ldr	r3, [r4, #0]
 800615e:	691a      	ldr	r2, [r3, #16]
 8006160:	f012 0f20 	tst.w	r2, #32
 8006164:	d003      	beq.n	800616e <HAL_TIM_IRQHandler+0x10a>
 8006166:	68da      	ldr	r2, [r3, #12]
 8006168:	f012 0f20 	tst.w	r2, #32
 800616c:	d130      	bne.n	80061d0 <HAL_TIM_IRQHandler+0x16c>
 800616e:	bd10      	pop	{r4, pc}
 8006170:	f7ff ff75 	bl	800605e <HAL_TIM_OC_DelayElapsedCallback>
 8006174:	4620      	mov	r0, r4
 8006176:	f7ff ff73 	bl	8006060 <HAL_TIM_PWM_PulseFinishedCallback>
 800617a:	e78a      	b.n	8006092 <HAL_TIM_IRQHandler+0x2e>
 800617c:	4620      	mov	r0, r4
 800617e:	f7ff ff6e 	bl	800605e <HAL_TIM_OC_DelayElapsedCallback>
 8006182:	4620      	mov	r0, r4
 8006184:	f7ff ff6c 	bl	8006060 <HAL_TIM_PWM_PulseFinishedCallback>
 8006188:	e79b      	b.n	80060c2 <HAL_TIM_IRQHandler+0x5e>
 800618a:	4620      	mov	r0, r4
 800618c:	f7ff ff67 	bl	800605e <HAL_TIM_OC_DelayElapsedCallback>
 8006190:	4620      	mov	r0, r4
 8006192:	f7ff ff65 	bl	8006060 <HAL_TIM_PWM_PulseFinishedCallback>
 8006196:	e7ac      	b.n	80060f2 <HAL_TIM_IRQHandler+0x8e>
 8006198:	4620      	mov	r0, r4
 800619a:	f7ff ff60 	bl	800605e <HAL_TIM_OC_DelayElapsedCallback>
 800619e:	4620      	mov	r0, r4
 80061a0:	f7ff ff5e 	bl	8006060 <HAL_TIM_PWM_PulseFinishedCallback>
 80061a4:	e7bd      	b.n	8006122 <HAL_TIM_IRQHandler+0xbe>
 80061a6:	f06f 0201 	mvn.w	r2, #1
 80061aa:	611a      	str	r2, [r3, #16]
 80061ac:	4620      	mov	r0, r4
 80061ae:	f7ff ff55 	bl	800605c <HAL_TIM_PeriodElapsedCallback>
 80061b2:	e7c1      	b.n	8006138 <HAL_TIM_IRQHandler+0xd4>
 80061b4:	f06f 0280 	mvn.w	r2, #128	; 0x80
 80061b8:	611a      	str	r2, [r3, #16]
 80061ba:	4620      	mov	r0, r4
 80061bc:	f000 fd16 	bl	8006bec <HAL_TIMEx_BreakCallback>
 80061c0:	e7c3      	b.n	800614a <HAL_TIM_IRQHandler+0xe6>
 80061c2:	f06f 0240 	mvn.w	r2, #64	; 0x40
 80061c6:	611a      	str	r2, [r3, #16]
 80061c8:	4620      	mov	r0, r4
 80061ca:	f7ff ff4a 	bl	8006062 <HAL_TIM_TriggerCallback>
 80061ce:	e7c5      	b.n	800615c <HAL_TIM_IRQHandler+0xf8>
 80061d0:	f06f 0220 	mvn.w	r2, #32
 80061d4:	611a      	str	r2, [r3, #16]
 80061d6:	4620      	mov	r0, r4
 80061d8:	f000 fd07 	bl	8006bea <HAL_TIMEx_CommutCallback>
 80061dc:	e7c7      	b.n	800616e <HAL_TIM_IRQHandler+0x10a>
	...

080061e0 <TIM_Base_SetConfig>:
 80061e0:	6803      	ldr	r3, [r0, #0]
 80061e2:	4a1b      	ldr	r2, [pc, #108]	; (8006250 <TIM_Base_SetConfig+0x70>)
 80061e4:	4290      	cmp	r0, r2
 80061e6:	d00a      	beq.n	80061fe <TIM_Base_SetConfig+0x1e>
 80061e8:	f1b0 4f80 	cmp.w	r0, #1073741824	; 0x40000000
 80061ec:	d007      	beq.n	80061fe <TIM_Base_SetConfig+0x1e>
 80061ee:	f5a2 3294 	sub.w	r2, r2, #75776	; 0x12800
 80061f2:	4290      	cmp	r0, r2
 80061f4:	d003      	beq.n	80061fe <TIM_Base_SetConfig+0x1e>
 80061f6:	f502 6280 	add.w	r2, r2, #1024	; 0x400
 80061fa:	4290      	cmp	r0, r2
 80061fc:	d103      	bne.n	8006206 <TIM_Base_SetConfig+0x26>
 80061fe:	f023 0370 	bic.w	r3, r3, #112	; 0x70
 8006202:	684a      	ldr	r2, [r1, #4]
 8006204:	4313      	orrs	r3, r2
 8006206:	4a12      	ldr	r2, [pc, #72]	; (8006250 <TIM_Base_SetConfig+0x70>)
 8006208:	4290      	cmp	r0, r2
 800620a:	d00a      	beq.n	8006222 <TIM_Base_SetConfig+0x42>
 800620c:	f1b0 4f80 	cmp.w	r0, #1073741824	; 0x40000000
 8006210:	d007      	beq.n	8006222 <TIM_Base_SetConfig+0x42>
 8006212:	f5a2 3294 	sub.w	r2, r2, #75776	; 0x12800
 8006216:	4290      	cmp	r0, r2
 8006218:	d003      	beq.n	8006222 <TIM_Base_SetConfig+0x42>
 800621a:	f502 6280 	add.w	r2, r2, #1024	; 0x400
 800621e:	4290      	cmp	r0, r2
 8006220:	d103      	bne.n	800622a <TIM_Base_SetConfig+0x4a>
 8006222:	f423 7340 	bic.w	r3, r3, #768	; 0x300
 8006226:	68ca      	ldr	r2, [r1, #12]
 8006228:	4313      	orrs	r3, r2
 800622a:	f023 0380 	bic.w	r3, r3, #128	; 0x80
 800622e:	694a      	ldr	r2, [r1, #20]
 8006230:	4313      	orrs	r3, r2
 8006232:	6003      	str	r3, [r0, #0]
 8006234:	688b      	ldr	r3, [r1, #8]
 8006236:	62c3      	str	r3, [r0, #44]	; 0x2c
 8006238:	680b      	ldr	r3, [r1, #0]
 800623a:	6283      	str	r3, [r0, #40]	; 0x28
 800623c:	4b04      	ldr	r3, [pc, #16]	; (8006250 <TIM_Base_SetConfig+0x70>)
 800623e:	4298      	cmp	r0, r3
 8006240:	d002      	beq.n	8006248 <TIM_Base_SetConfig+0x68>
 8006242:	2301      	movs	r3, #1
 8006244:	6143      	str	r3, [r0, #20]
 8006246:	4770      	bx	lr
 8006248:	690b      	ldr	r3, [r1, #16]
 800624a:	6303      	str	r3, [r0, #48]	; 0x30
 800624c:	e7f9      	b.n	8006242 <TIM_Base_SetConfig+0x62>
 800624e:	bf00      	nop
 8006250:	40012c00 	.word	0x40012c00

08006254 <HAL_TIM_Base_Init>:
 8006254:	b340      	cbz	r0, 80062a8 <HAL_TIM_Base_Init+0x54>
 8006256:	b510      	push	{r4, lr}
 8006258:	4604      	mov	r4, r0
 800625a:	f890 303d 	ldrb.w	r3, [r0, #61]	; 0x3d
 800625e:	b1f3      	cbz	r3, 800629e <HAL_TIM_Base_Init+0x4a>
 8006260:	2302      	movs	r3, #2
 8006262:	f884 303d 	strb.w	r3, [r4, #61]	; 0x3d
 8006266:	4621      	mov	r1, r4
 8006268:	f851 0b04 	ldr.w	r0, [r1], #4
 800626c:	f7ff ffb8 	bl	80061e0 <TIM_Base_SetConfig>
 8006270:	2301      	movs	r3, #1
 8006272:	f884 3046 	strb.w	r3, [r4, #70]	; 0x46
 8006276:	f884 303e 	strb.w	r3, [r4, #62]	; 0x3e
 800627a:	f884 303f 	strb.w	r3, [r4, #63]	; 0x3f
 800627e:	f884 3040 	strb.w	r3, [r4, #64]	; 0x40
 8006282:	f884 3041 	strb.w	r3, [r4, #65]	; 0x41
 8006286:	f884 3042 	strb.w	r3, [r4, #66]	; 0x42
 800628a:	f884 3043 	strb.w	r3, [r4, #67]	; 0x43
 800628e:	f884 3044 	strb.w	r3, [r4, #68]	; 0x44
 8006292:	f884 3045 	strb.w	r3, [r4, #69]	; 0x45
 8006296:	f884 303d 	strb.w	r3, [r4, #61]	; 0x3d
 800629a:	2000      	movs	r0, #0
 800629c:	bd10      	pop	{r4, pc}
 800629e:	f880 303c 	strb.w	r3, [r0, #60]	; 0x3c
 80062a2:	f7fb fc8d 	bl	8001bc0 <HAL_TIM_Base_MspInit>
 80062a6:	e7db      	b.n	8006260 <HAL_TIM_Base_Init+0xc>
 80062a8:	2001      	movs	r0, #1
 80062aa:	4770      	bx	lr

080062ac <HAL_TIM_PWM_Init>:
 80062ac:	b340      	cbz	r0, 8006300 <HAL_TIM_PWM_Init+0x54>
 80062ae:	b510      	push	{r4, lr}
 80062b0:	4604      	mov	r4, r0
 80062b2:	f890 303d 	ldrb.w	r3, [r0, #61]	; 0x3d
 80062b6:	b1f3      	cbz	r3, 80062f6 <HAL_TIM_PWM_Init+0x4a>
 80062b8:	2302      	movs	r3, #2
 80062ba:	f884 303d 	strb.w	r3, [r4, #61]	; 0x3d
 80062be:	4621      	mov	r1, r4
 80062c0:	f851 0b04 	ldr.w	r0, [r1], #4
 80062c4:	f7ff ff8c 	bl	80061e0 <TIM_Base_SetConfig>
 80062c8:	2301      	movs	r3, #1
 80062ca:	f884 3046 	strb.w	r3, [r4, #70]	; 0x46
 80062ce:	f884 303e 	strb.w	r3, [r4, #62]	; 0x3e
 80062d2:	f884 303f 	strb.w	r3, [r4, #63]	; 0x3f
 80062d6:	f884 3040 	strb.w	r3, [r4, #64]	; 0x40
 80062da:	f884 3041 	strb.w	r3, [r4, #65]	; 0x41
 80062de:	f884 3042 	strb.w	r3, [r4, #66]	; 0x42
 80062e2:	f884 3043 	strb.w	r3, [r4, #67]	; 0x43
 80062e6:	f884 3044 	strb.w	r3, [r4, #68]	; 0x44
 80062ea:	f884 3045 	strb.w	r3, [r4, #69]	; 0x45
 80062ee:	f884 303d 	strb.w	r3, [r4, #61]	; 0x3d
 80062f2:	2000      	movs	r0, #0
 80062f4:	bd10      	pop	{r4, pc}
 80062f6:	f880 303c 	strb.w	r3, [r0, #60]	; 0x3c
 80062fa:	f7ff fead 	bl	8006058 <HAL_TIM_PWM_MspInit>
 80062fe:	e7db      	b.n	80062b8 <HAL_TIM_PWM_Init+0xc>
 8006300:	2001      	movs	r0, #1
 8006302:	4770      	bx	lr

08006304 <HAL_TIM_IC_Init>:
 8006304:	b340      	cbz	r0, 8006358 <HAL_TIM_IC_Init+0x54>
 8006306:	b510      	push	{r4, lr}
 8006308:	4604      	mov	r4, r0
 800630a:	f890 303d 	ldrb.w	r3, [r0, #61]	; 0x3d
 800630e:	b1f3      	cbz	r3, 800634e <HAL_TIM_IC_Init+0x4a>
 8006310:	2302      	movs	r3, #2
 8006312:	f884 303d 	strb.w	r3, [r4, #61]	; 0x3d
 8006316:	4621      	mov	r1, r4
 8006318:	f851 0b04 	ldr.w	r0, [r1], #4
 800631c:	f7ff ff60 	bl	80061e0 <TIM_Base_SetConfig>
 8006320:	2301      	movs	r3, #1
 8006322:	f884 3046 	strb.w	r3, [r4, #70]	; 0x46
 8006326:	f884 303e 	strb.w	r3, [r4, #62]	; 0x3e
 800632a:	f884 303f 	strb.w	r3, [r4, #63]	; 0x3f
 800632e:	f884 3040 	strb.w	r3, [r4, #64]	; 0x40
 8006332:	f884 3041 	strb.w	r3, [r4, #65]	; 0x41
 8006336:	f884 3042 	strb.w	r3, [r4, #66]	; 0x42
 800633a:	f884 3043 	strb.w	r3, [r4, #67]	; 0x43
 800633e:	f884 3044 	strb.w	r3, [r4, #68]	; 0x44
 8006342:	f884 3045 	strb.w	r3, [r4, #69]	; 0x45
 8006346:	f884 303d 	strb.w	r3, [r4, #61]	; 0x3d
 800634a:	2000      	movs	r0, #0
 800634c:	bd10      	pop	{r4, pc}
 800634e:	f880 303c 	strb.w	r3, [r0, #60]	; 0x3c
 8006352:	f7ff fe82 	bl	800605a <HAL_TIM_IC_MspInit>
 8006356:	e7db      	b.n	8006310 <HAL_TIM_IC_Init+0xc>
 8006358:	2001      	movs	r0, #1
 800635a:	4770      	bx	lr

0800635c <TIM_OC2_SetConfig>:
 800635c:	b430      	push	{r4, r5}
 800635e:	6a03      	ldr	r3, [r0, #32]
 8006360:	f023 0310 	bic.w	r3, r3, #16
 8006364:	6203      	str	r3, [r0, #32]
 8006366:	6a03      	ldr	r3, [r0, #32]
 8006368:	6844      	ldr	r4, [r0, #4]
 800636a:	6982      	ldr	r2, [r0, #24]
 800636c:	f422 42e6 	bic.w	r2, r2, #29440	; 0x7300
 8006370:	680d      	ldr	r5, [r1, #0]
 8006372:	ea42 2205 	orr.w	r2, r2, r5, lsl #8
 8006376:	f023 0320 	bic.w	r3, r3, #32
 800637a:	688d      	ldr	r5, [r1, #8]
 800637c:	ea43 1305 	orr.w	r3, r3, r5, lsl #4
 8006380:	4d0e      	ldr	r5, [pc, #56]	; (80063bc <TIM_OC2_SetConfig+0x60>)
 8006382:	42a8      	cmp	r0, r5
 8006384:	d009      	beq.n	800639a <TIM_OC2_SetConfig+0x3e>
 8006386:	4d0d      	ldr	r5, [pc, #52]	; (80063bc <TIM_OC2_SetConfig+0x60>)
 8006388:	42a8      	cmp	r0, r5
 800638a:	d00e      	beq.n	80063aa <TIM_OC2_SetConfig+0x4e>
 800638c:	6044      	str	r4, [r0, #4]
 800638e:	6182      	str	r2, [r0, #24]
 8006390:	684a      	ldr	r2, [r1, #4]
 8006392:	6382      	str	r2, [r0, #56]	; 0x38
 8006394:	6203      	str	r3, [r0, #32]
 8006396:	bc30      	pop	{r4, r5}
 8006398:	4770      	bx	lr
 800639a:	f023 0380 	bic.w	r3, r3, #128	; 0x80
 800639e:	68cd      	ldr	r5, [r1, #12]
 80063a0:	ea43 1305 	orr.w	r3, r3, r5, lsl #4
 80063a4:	f023 0340 	bic.w	r3, r3, #64	; 0x40
 80063a8:	e7ed      	b.n	8006386 <TIM_OC2_SetConfig+0x2a>
 80063aa:	f424 6440 	bic.w	r4, r4, #3072	; 0xc00
 80063ae:	694d      	ldr	r5, [r1, #20]
 80063b0:	ea44 0485 	orr.w	r4, r4, r5, lsl #2
 80063b4:	698d      	ldr	r5, [r1, #24]
 80063b6:	ea44 0485 	orr.w	r4, r4, r5, lsl #2
 80063ba:	e7e7      	b.n	800638c <TIM_OC2_SetConfig+0x30>
 80063bc:	40012c00 	.word	0x40012c00

080063c0 <HAL_TIM_PWM_ConfigChannel>:
 80063c0:	b538      	push	{r3, r4, r5, lr}
 80063c2:	f890 303c 	ldrb.w	r3, [r0, #60]	; 0x3c
 80063c6:	2b01      	cmp	r3, #1
 80063c8:	d060      	beq.n	800648c <HAL_TIM_PWM_ConfigChannel+0xcc>
 80063ca:	4604      	mov	r4, r0
 80063cc:	460d      	mov	r5, r1
 80063ce:	2301      	movs	r3, #1
 80063d0:	f880 303c 	strb.w	r3, [r0, #60]	; 0x3c
 80063d4:	2a0c      	cmp	r2, #12
 80063d6:	d81a      	bhi.n	800640e <HAL_TIM_PWM_ConfigChannel+0x4e>
 80063d8:	e8df f002 	tbb	[pc, r2]
 80063dc:	19191907 	.word	0x19191907
 80063e0:	1919191d 	.word	0x1919191d
 80063e4:	19191931 	.word	0x19191931
 80063e8:	44          	.byte	0x44
 80063e9:	00          	.byte	0x00
 80063ea:	6800      	ldr	r0, [r0, #0]
 80063ec:	f7ff fd02 	bl	8005df4 <TIM_OC1_SetConfig>
 80063f0:	6822      	ldr	r2, [r4, #0]
 80063f2:	6993      	ldr	r3, [r2, #24]
 80063f4:	f043 0308 	orr.w	r3, r3, #8
 80063f8:	6193      	str	r3, [r2, #24]
 80063fa:	6822      	ldr	r2, [r4, #0]
 80063fc:	6993      	ldr	r3, [r2, #24]
 80063fe:	f023 0304 	bic.w	r3, r3, #4
 8006402:	6193      	str	r3, [r2, #24]
 8006404:	6822      	ldr	r2, [r4, #0]
 8006406:	6993      	ldr	r3, [r2, #24]
 8006408:	6929      	ldr	r1, [r5, #16]
 800640a:	430b      	orrs	r3, r1
 800640c:	6193      	str	r3, [r2, #24]
 800640e:	2000      	movs	r0, #0
 8006410:	f884 003c 	strb.w	r0, [r4, #60]	; 0x3c
 8006414:	bd38      	pop	{r3, r4, r5, pc}
 8006416:	6800      	ldr	r0, [r0, #0]
 8006418:	f7ff ffa0 	bl	800635c <TIM_OC2_SetConfig>
 800641c:	6822      	ldr	r2, [r4, #0]
 800641e:	6993      	ldr	r3, [r2, #24]
 8006420:	f443 6300 	orr.w	r3, r3, #2048	; 0x800
 8006424:	6193      	str	r3, [r2, #24]
 8006426:	6822      	ldr	r2, [r4, #0]
 8006428:	6993      	ldr	r3, [r2, #24]
 800642a:	f423 6380 	bic.w	r3, r3, #1024	; 0x400
 800642e:	6193      	str	r3, [r2, #24]
 8006430:	6822      	ldr	r2, [r4, #0]
 8006432:	6993      	ldr	r3, [r2, #24]
 8006434:	6929      	ldr	r1, [r5, #16]
 8006436:	ea43 2301 	orr.w	r3, r3, r1, lsl #8
 800643a:	6193      	str	r3, [r2, #24]
 800643c:	e7e7      	b.n	800640e <HAL_TIM_PWM_ConfigChannel+0x4e>
 800643e:	6800      	ldr	r0, [r0, #0]
 8006440:	f7ff fd06 	bl	8005e50 <TIM_OC3_SetConfig>
 8006444:	6822      	ldr	r2, [r4, #0]
 8006446:	69d3      	ldr	r3, [r2, #28]
 8006448:	f043 0308 	orr.w	r3, r3, #8
 800644c:	61d3      	str	r3, [r2, #28]
 800644e:	6822      	ldr	r2, [r4, #0]
 8006450:	69d3      	ldr	r3, [r2, #28]
 8006452:	f023 0304 	bic.w	r3, r3, #4
 8006456:	61d3      	str	r3, [r2, #28]
 8006458:	6822      	ldr	r2, [r4, #0]
 800645a:	69d3      	ldr	r3, [r2, #28]
 800645c:	6929      	ldr	r1, [r5, #16]
 800645e:	430b      	orrs	r3, r1
 8006460:	61d3      	str	r3, [r2, #28]
 8006462:	e7d4      	b.n	800640e <HAL_TIM_PWM_ConfigChannel+0x4e>
 8006464:	6800      	ldr	r0, [r0, #0]
 8006466:	f7ff fd25 	bl	8005eb4 <TIM_OC4_SetConfig>
 800646a:	6822      	ldr	r2, [r4, #0]
 800646c:	69d3      	ldr	r3, [r2, #28]
 800646e:	f443 6300 	orr.w	r3, r3, #2048	; 0x800
 8006472:	61d3      	str	r3, [r2, #28]
 8006474:	6822      	ldr	r2, [r4, #0]
 8006476:	69d3      	ldr	r3, [r2, #28]
 8006478:	f423 6380 	bic.w	r3, r3, #1024	; 0x400
 800647c:	61d3      	str	r3, [r2, #28]
 800647e:	6822      	ldr	r2, [r4, #0]
 8006480:	69d3      	ldr	r3, [r2, #28]
 8006482:	6929      	ldr	r1, [r5, #16]
 8006484:	ea43 2301 	orr.w	r3, r3, r1, lsl #8
 8006488:	61d3      	str	r3, [r2, #28]
 800648a:	e7c0      	b.n	800640e <HAL_TIM_PWM_ConfigChannel+0x4e>
 800648c:	2002      	movs	r0, #2
 800648e:	e7c1      	b.n	8006414 <HAL_TIM_PWM_ConfigChannel+0x54>

08006490 <TIM_TI1_SetConfig>:
 8006490:	b470      	push	{r4, r5, r6}
 8006492:	6a04      	ldr	r4, [r0, #32]
 8006494:	f024 0401 	bic.w	r4, r4, #1
 8006498:	6204      	str	r4, [r0, #32]
 800649a:	6984      	ldr	r4, [r0, #24]
 800649c:	6a05      	ldr	r5, [r0, #32]
 800649e:	4e11      	ldr	r6, [pc, #68]	; (80064e4 <TIM_TI1_SetConfig+0x54>)
 80064a0:	42b0      	cmp	r0, r6
 80064a2:	d00d      	beq.n	80064c0 <TIM_TI1_SetConfig+0x30>
 80064a4:	f1b0 4f80 	cmp.w	r0, #1073741824	; 0x40000000
 80064a8:	d00a      	beq.n	80064c0 <TIM_TI1_SetConfig+0x30>
 80064aa:	f5a6 3694 	sub.w	r6, r6, #75776	; 0x12800
 80064ae:	42b0      	cmp	r0, r6
 80064b0:	d006      	beq.n	80064c0 <TIM_TI1_SetConfig+0x30>
 80064b2:	f506 6680 	add.w	r6, r6, #1024	; 0x400
 80064b6:	42b0      	cmp	r0, r6
 80064b8:	d002      	beq.n	80064c0 <TIM_TI1_SetConfig+0x30>
 80064ba:	f044 0201 	orr.w	r2, r4, #1
 80064be:	e002      	b.n	80064c6 <TIM_TI1_SetConfig+0x36>
 80064c0:	f024 0403 	bic.w	r4, r4, #3
 80064c4:	4322      	orrs	r2, r4
 80064c6:	f022 02f0 	bic.w	r2, r2, #240	; 0xf0
 80064ca:	011b      	lsls	r3, r3, #4
 80064cc:	b2db      	uxtb	r3, r3
 80064ce:	4313      	orrs	r3, r2
 80064d0:	f025 020a 	bic.w	r2, r5, #10
 80064d4:	f001 010a 	and.w	r1, r1, #10
 80064d8:	4311      	orrs	r1, r2
 80064da:	6183      	str	r3, [r0, #24]
 80064dc:	6201      	str	r1, [r0, #32]
 80064de:	bc70      	pop	{r4, r5, r6}
 80064e0:	4770      	bx	lr
 80064e2:	bf00      	nop
 80064e4:	40012c00 	.word	0x40012c00

080064e8 <HAL_TIM_IC_ConfigChannel>:
 80064e8:	b538      	push	{r3, r4, r5, lr}
 80064ea:	f890 303c 	ldrb.w	r3, [r0, #60]	; 0x3c
 80064ee:	2b01      	cmp	r3, #1
 80064f0:	d052      	beq.n	8006598 <HAL_TIM_IC_ConfigChannel+0xb0>
 80064f2:	4604      	mov	r4, r0
 80064f4:	460d      	mov	r5, r1
 80064f6:	2301      	movs	r3, #1
 80064f8:	f880 303c 	strb.w	r3, [r0, #60]	; 0x3c
 80064fc:	b1c2      	cbz	r2, 8006530 <HAL_TIM_IC_ConfigChannel+0x48>
 80064fe:	2a04      	cmp	r2, #4
 8006500:	d027      	beq.n	8006552 <HAL_TIM_IC_ConfigChannel+0x6a>
 8006502:	2a08      	cmp	r2, #8
 8006504:	d037      	beq.n	8006576 <HAL_TIM_IC_ConfigChannel+0x8e>
 8006506:	68cb      	ldr	r3, [r1, #12]
 8006508:	684a      	ldr	r2, [r1, #4]
 800650a:	6809      	ldr	r1, [r1, #0]
 800650c:	6800      	ldr	r0, [r0, #0]
 800650e:	f7ff fd4d 	bl	8005fac <TIM_TI4_SetConfig>
 8006512:	6822      	ldr	r2, [r4, #0]
 8006514:	69d3      	ldr	r3, [r2, #28]
 8006516:	f423 6340 	bic.w	r3, r3, #3072	; 0xc00
 800651a:	61d3      	str	r3, [r2, #28]
 800651c:	6822      	ldr	r2, [r4, #0]
 800651e:	69d3      	ldr	r3, [r2, #28]
 8006520:	68a9      	ldr	r1, [r5, #8]
 8006522:	ea43 2301 	orr.w	r3, r3, r1, lsl #8
 8006526:	61d3      	str	r3, [r2, #28]
 8006528:	2000      	movs	r0, #0
 800652a:	f884 003c 	strb.w	r0, [r4, #60]	; 0x3c
 800652e:	bd38      	pop	{r3, r4, r5, pc}
 8006530:	68cb      	ldr	r3, [r1, #12]
 8006532:	684a      	ldr	r2, [r1, #4]
 8006534:	6809      	ldr	r1, [r1, #0]
 8006536:	6800      	ldr	r0, [r0, #0]
 8006538:	f7ff ffaa 	bl	8006490 <TIM_TI1_SetConfig>
 800653c:	6822      	ldr	r2, [r4, #0]
 800653e:	6993      	ldr	r3, [r2, #24]
 8006540:	f023 030c 	bic.w	r3, r3, #12
 8006544:	6193      	str	r3, [r2, #24]
 8006546:	6822      	ldr	r2, [r4, #0]
 8006548:	6993      	ldr	r3, [r2, #24]
 800654a:	68a9      	ldr	r1, [r5, #8]
 800654c:	430b      	orrs	r3, r1
 800654e:	6193      	str	r3, [r2, #24]
 8006550:	e7ea      	b.n	8006528 <HAL_TIM_IC_ConfigChannel+0x40>
 8006552:	68cb      	ldr	r3, [r1, #12]
 8006554:	684a      	ldr	r2, [r1, #4]
 8006556:	6809      	ldr	r1, [r1, #0]
 8006558:	6800      	ldr	r0, [r0, #0]
 800655a:	f7ff fce1 	bl	8005f20 <TIM_TI2_SetConfig>
 800655e:	6822      	ldr	r2, [r4, #0]
 8006560:	6993      	ldr	r3, [r2, #24]
 8006562:	f423 6340 	bic.w	r3, r3, #3072	; 0xc00
 8006566:	6193      	str	r3, [r2, #24]
 8006568:	6822      	ldr	r2, [r4, #0]
 800656a:	6993      	ldr	r3, [r2, #24]
 800656c:	68a9      	ldr	r1, [r5, #8]
 800656e:	ea43 2301 	orr.w	r3, r3, r1, lsl #8
 8006572:	6193      	str	r3, [r2, #24]
 8006574:	e7d8      	b.n	8006528 <HAL_TIM_IC_ConfigChannel+0x40>
 8006576:	68cb      	ldr	r3, [r1, #12]
 8006578:	684a      	ldr	r2, [r1, #4]
 800657a:	6809      	ldr	r1, [r1, #0]
 800657c:	6800      	ldr	r0, [r0, #0]
 800657e:	f7ff fcfc 	bl	8005f7a <TIM_TI3_SetConfig>
 8006582:	6822      	ldr	r2, [r4, #0]
 8006584:	69d3      	ldr	r3, [r2, #28]
 8006586:	f023 030c 	bic.w	r3, r3, #12
 800658a:	61d3      	str	r3, [r2, #28]
 800658c:	6822      	ldr	r2, [r4, #0]
 800658e:	69d3      	ldr	r3, [r2, #28]
 8006590:	68a9      	ldr	r1, [r5, #8]
 8006592:	430b      	orrs	r3, r1
 8006594:	61d3      	str	r3, [r2, #28]
 8006596:	e7c7      	b.n	8006528 <HAL_TIM_IC_ConfigChannel+0x40>
 8006598:	2002      	movs	r0, #2
 800659a:	e7c8      	b.n	800652e <HAL_TIM_IC_ConfigChannel+0x46>

0800659c <TIM_ETR_SetConfig>:
 800659c:	b410      	push	{r4}
 800659e:	6884      	ldr	r4, [r0, #8]
 80065a0:	f424 447f 	bic.w	r4, r4, #65280	; 0xff00
 80065a4:	ea42 2203 	orr.w	r2, r2, r3, lsl #8
 80065a8:	430a      	orrs	r2, r1
 80065aa:	4322      	orrs	r2, r4
 80065ac:	6082      	str	r2, [r0, #8]
 80065ae:	bc10      	pop	{r4}
 80065b0:	4770      	bx	lr

080065b2 <HAL_TIM_ConfigClockSource>:
 80065b2:	f890 303c 	ldrb.w	r3, [r0, #60]	; 0x3c
 80065b6:	2b01      	cmp	r3, #1
 80065b8:	d066      	beq.n	8006688 <HAL_TIM_ConfigClockSource+0xd6>
 80065ba:	b510      	push	{r4, lr}
 80065bc:	4604      	mov	r4, r0
 80065be:	2301      	movs	r3, #1
 80065c0:	f880 303c 	strb.w	r3, [r0, #60]	; 0x3c
 80065c4:	2302      	movs	r3, #2
 80065c6:	f880 303d 	strb.w	r3, [r0, #61]	; 0x3d
 80065ca:	6802      	ldr	r2, [r0, #0]
 80065cc:	6893      	ldr	r3, [r2, #8]
 80065ce:	f423 437f 	bic.w	r3, r3, #65280	; 0xff00
 80065d2:	f023 0377 	bic.w	r3, r3, #119	; 0x77
 80065d6:	6093      	str	r3, [r2, #8]
 80065d8:	680b      	ldr	r3, [r1, #0]
 80065da:	2b60      	cmp	r3, #96	; 0x60
 80065dc:	d040      	beq.n	8006660 <HAL_TIM_ConfigClockSource+0xae>
 80065de:	d822      	bhi.n	8006626 <HAL_TIM_ConfigClockSource+0x74>
 80065e0:	2b40      	cmp	r3, #64	; 0x40
 80065e2:	d047      	beq.n	8006674 <HAL_TIM_ConfigClockSource+0xc2>
 80065e4:	d90b      	bls.n	80065fe <HAL_TIM_ConfigClockSource+0x4c>
 80065e6:	2b50      	cmp	r3, #80	; 0x50
 80065e8:	d10e      	bne.n	8006608 <HAL_TIM_ConfigClockSource+0x56>
 80065ea:	68ca      	ldr	r2, [r1, #12]
 80065ec:	6849      	ldr	r1, [r1, #4]
 80065ee:	6800      	ldr	r0, [r0, #0]
 80065f0:	f7ff fc84 	bl	8005efc <TIM_TI1_ConfigInputStage>
 80065f4:	2150      	movs	r1, #80	; 0x50
 80065f6:	6820      	ldr	r0, [r4, #0]
 80065f8:	f7ff fcf2 	bl	8005fe0 <TIM_ITRx_SetConfig>
 80065fc:	e004      	b.n	8006608 <HAL_TIM_ConfigClockSource+0x56>
 80065fe:	2b20      	cmp	r3, #32
 8006600:	d00c      	beq.n	800661c <HAL_TIM_ConfigClockSource+0x6a>
 8006602:	d908      	bls.n	8006616 <HAL_TIM_ConfigClockSource+0x64>
 8006604:	2b30      	cmp	r3, #48	; 0x30
 8006606:	d009      	beq.n	800661c <HAL_TIM_ConfigClockSource+0x6a>
 8006608:	2301      	movs	r3, #1
 800660a:	f884 303d 	strb.w	r3, [r4, #61]	; 0x3d
 800660e:	2000      	movs	r0, #0
 8006610:	f884 003c 	strb.w	r0, [r4, #60]	; 0x3c
 8006614:	bd10      	pop	{r4, pc}
 8006616:	b10b      	cbz	r3, 800661c <HAL_TIM_ConfigClockSource+0x6a>
 8006618:	2b10      	cmp	r3, #16
 800661a:	d1f5      	bne.n	8006608 <HAL_TIM_ConfigClockSource+0x56>
 800661c:	4619      	mov	r1, r3
 800661e:	6820      	ldr	r0, [r4, #0]
 8006620:	f7ff fcde 	bl	8005fe0 <TIM_ITRx_SetConfig>
 8006624:	e7f0      	b.n	8006608 <HAL_TIM_ConfigClockSource+0x56>
 8006626:	2b70      	cmp	r3, #112	; 0x70
 8006628:	d00e      	beq.n	8006648 <HAL_TIM_ConfigClockSource+0x96>
 800662a:	f5b3 5f00 	cmp.w	r3, #8192	; 0x2000
 800662e:	d1eb      	bne.n	8006608 <HAL_TIM_ConfigClockSource+0x56>
 8006630:	68cb      	ldr	r3, [r1, #12]
 8006632:	684a      	ldr	r2, [r1, #4]
 8006634:	6889      	ldr	r1, [r1, #8]
 8006636:	6800      	ldr	r0, [r0, #0]
 8006638:	f7ff ffb0 	bl	800659c <TIM_ETR_SetConfig>
 800663c:	6822      	ldr	r2, [r4, #0]
 800663e:	6893      	ldr	r3, [r2, #8]
 8006640:	f443 4380 	orr.w	r3, r3, #16384	; 0x4000
 8006644:	6093      	str	r3, [r2, #8]
 8006646:	e7df      	b.n	8006608 <HAL_TIM_ConfigClockSource+0x56>
 8006648:	68cb      	ldr	r3, [r1, #12]
 800664a:	684a      	ldr	r2, [r1, #4]
 800664c:	6889      	ldr	r1, [r1, #8]
 800664e:	6800      	ldr	r0, [r0, #0]
 8006650:	f7ff ffa4 	bl	800659c <TIM_ETR_SetConfig>
 8006654:	6822      	ldr	r2, [r4, #0]
 8006656:	6893      	ldr	r3, [r2, #8]
 8006658:	f043 0377 	orr.w	r3, r3, #119	; 0x77
 800665c:	6093      	str	r3, [r2, #8]
 800665e:	e7d3      	b.n	8006608 <HAL_TIM_ConfigClockSource+0x56>
 8006660:	68ca      	ldr	r2, [r1, #12]
 8006662:	6849      	ldr	r1, [r1, #4]
 8006664:	6800      	ldr	r0, [r0, #0]
 8006666:	f7ff fc75 	bl	8005f54 <TIM_TI2_ConfigInputStage>
 800666a:	2160      	movs	r1, #96	; 0x60
 800666c:	6820      	ldr	r0, [r4, #0]
 800666e:	f7ff fcb7 	bl	8005fe0 <TIM_ITRx_SetConfig>
 8006672:	e7c9      	b.n	8006608 <HAL_TIM_ConfigClockSource+0x56>
 8006674:	68ca      	ldr	r2, [r1, #12]
 8006676:	6849      	ldr	r1, [r1, #4]
 8006678:	6800      	ldr	r0, [r0, #0]
 800667a:	f7ff fc3f 	bl	8005efc <TIM_TI1_ConfigInputStage>
 800667e:	2140      	movs	r1, #64	; 0x40
 8006680:	6820      	ldr	r0, [r4, #0]
 8006682:	f7ff fcad 	bl	8005fe0 <TIM_ITRx_SetConfig>
 8006686:	e7bf      	b.n	8006608 <HAL_TIM_ConfigClockSource+0x56>
 8006688:	2002      	movs	r0, #2
 800668a:	4770      	bx	lr

0800668c <TIM_CCxChannelCmd>:
 800668c:	b410      	push	{r4}
 800668e:	f001 011f 	and.w	r1, r1, #31
 8006692:	2301      	movs	r3, #1
 8006694:	fa03 f401 	lsl.w	r4, r3, r1
 8006698:	6a03      	ldr	r3, [r0, #32]
 800669a:	ea23 0304 	bic.w	r3, r3, r4
 800669e:	6203      	str	r3, [r0, #32]
 80066a0:	6a03      	ldr	r3, [r0, #32]
 80066a2:	fa02 f101 	lsl.w	r1, r2, r1
 80066a6:	430b      	orrs	r3, r1
 80066a8:	6203      	str	r3, [r0, #32]
 80066aa:	bc10      	pop	{r4}
 80066ac:	4770      	bx	lr
	...

080066b0 <HAL_TIM_PWM_Start>:
 80066b0:	b510      	push	{r4, lr}
 80066b2:	4604      	mov	r4, r0
 80066b4:	4608      	mov	r0, r1
 80066b6:	bb51      	cbnz	r1, 800670e <HAL_TIM_PWM_Start+0x5e>
 80066b8:	f894 303e 	ldrb.w	r3, [r4, #62]	; 0x3e
 80066bc:	b2db      	uxtb	r3, r3
 80066be:	3b01      	subs	r3, #1
 80066c0:	bf18      	it	ne
 80066c2:	2301      	movne	r3, #1
 80066c4:	2b00      	cmp	r3, #0
 80066c6:	d15b      	bne.n	8006780 <HAL_TIM_PWM_Start+0xd0>
 80066c8:	2800      	cmp	r0, #0
 80066ca:	d139      	bne.n	8006740 <HAL_TIM_PWM_Start+0x90>
 80066cc:	2302      	movs	r3, #2
 80066ce:	f884 303e 	strb.w	r3, [r4, #62]	; 0x3e
 80066d2:	2201      	movs	r2, #1
 80066d4:	4601      	mov	r1, r0
 80066d6:	6820      	ldr	r0, [r4, #0]
 80066d8:	f7ff ffd8 	bl	800668c <TIM_CCxChannelCmd>
 80066dc:	6823      	ldr	r3, [r4, #0]
 80066de:	4a2a      	ldr	r2, [pc, #168]	; (8006788 <HAL_TIM_PWM_Start+0xd8>)
 80066e0:	4293      	cmp	r3, r2
 80066e2:	d03d      	beq.n	8006760 <HAL_TIM_PWM_Start+0xb0>
 80066e4:	6823      	ldr	r3, [r4, #0]
 80066e6:	4a28      	ldr	r2, [pc, #160]	; (8006788 <HAL_TIM_PWM_Start+0xd8>)
 80066e8:	4293      	cmp	r3, r2
 80066ea:	d03e      	beq.n	800676a <HAL_TIM_PWM_Start+0xba>
 80066ec:	f1b3 4f80 	cmp.w	r3, #1073741824	; 0x40000000
 80066f0:	d03b      	beq.n	800676a <HAL_TIM_PWM_Start+0xba>
 80066f2:	f5a2 3294 	sub.w	r2, r2, #75776	; 0x12800
 80066f6:	4293      	cmp	r3, r2
 80066f8:	d037      	beq.n	800676a <HAL_TIM_PWM_Start+0xba>
 80066fa:	f502 6280 	add.w	r2, r2, #1024	; 0x400
 80066fe:	4293      	cmp	r3, r2
 8006700:	d033      	beq.n	800676a <HAL_TIM_PWM_Start+0xba>
 8006702:	681a      	ldr	r2, [r3, #0]
 8006704:	f042 0201 	orr.w	r2, r2, #1
 8006708:	601a      	str	r2, [r3, #0]
 800670a:	2000      	movs	r0, #0
 800670c:	e039      	b.n	8006782 <HAL_TIM_PWM_Start+0xd2>
 800670e:	2904      	cmp	r1, #4
 8006710:	d008      	beq.n	8006724 <HAL_TIM_PWM_Start+0x74>
 8006712:	2908      	cmp	r1, #8
 8006714:	d00d      	beq.n	8006732 <HAL_TIM_PWM_Start+0x82>
 8006716:	f894 3041 	ldrb.w	r3, [r4, #65]	; 0x41
 800671a:	b2db      	uxtb	r3, r3
 800671c:	3b01      	subs	r3, #1
 800671e:	bf18      	it	ne
 8006720:	2301      	movne	r3, #1
 8006722:	e7cf      	b.n	80066c4 <HAL_TIM_PWM_Start+0x14>
 8006724:	f894 303f 	ldrb.w	r3, [r4, #63]	; 0x3f
 8006728:	b2db      	uxtb	r3, r3
 800672a:	3b01      	subs	r3, #1
 800672c:	bf18      	it	ne
 800672e:	2301      	movne	r3, #1
 8006730:	e7c8      	b.n	80066c4 <HAL_TIM_PWM_Start+0x14>
 8006732:	f894 3040 	ldrb.w	r3, [r4, #64]	; 0x40
 8006736:	b2db      	uxtb	r3, r3
 8006738:	3b01      	subs	r3, #1
 800673a:	bf18      	it	ne
 800673c:	2301      	movne	r3, #1
 800673e:	e7c1      	b.n	80066c4 <HAL_TIM_PWM_Start+0x14>
 8006740:	2804      	cmp	r0, #4
 8006742:	d005      	beq.n	8006750 <HAL_TIM_PWM_Start+0xa0>
 8006744:	2808      	cmp	r0, #8
 8006746:	d007      	beq.n	8006758 <HAL_TIM_PWM_Start+0xa8>
 8006748:	2302      	movs	r3, #2
 800674a:	f884 3041 	strb.w	r3, [r4, #65]	; 0x41
 800674e:	e7c0      	b.n	80066d2 <HAL_TIM_PWM_Start+0x22>
 8006750:	2302      	movs	r3, #2
 8006752:	f884 303f 	strb.w	r3, [r4, #63]	; 0x3f
 8006756:	e7bc      	b.n	80066d2 <HAL_TIM_PWM_Start+0x22>
 8006758:	2302      	movs	r3, #2
 800675a:	f884 3040 	strb.w	r3, [r4, #64]	; 0x40
 800675e:	e7b8      	b.n	80066d2 <HAL_TIM_PWM_Start+0x22>
 8006760:	6c5a      	ldr	r2, [r3, #68]	; 0x44
 8006762:	f442 4200 	orr.w	r2, r2, #32768	; 0x8000
 8006766:	645a      	str	r2, [r3, #68]	; 0x44
 8006768:	e7bc      	b.n	80066e4 <HAL_TIM_PWM_Start+0x34>
 800676a:	689a      	ldr	r2, [r3, #8]
 800676c:	f002 0207 	and.w	r2, r2, #7
 8006770:	2a06      	cmp	r2, #6
 8006772:	d007      	beq.n	8006784 <HAL_TIM_PWM_Start+0xd4>
 8006774:	681a      	ldr	r2, [r3, #0]
 8006776:	f042 0201 	orr.w	r2, r2, #1
 800677a:	601a      	str	r2, [r3, #0]
 800677c:	2000      	movs	r0, #0
 800677e:	e000      	b.n	8006782 <HAL_TIM_PWM_Start+0xd2>
 8006780:	2001      	movs	r0, #1
 8006782:	bd10      	pop	{r4, pc}
 8006784:	2000      	movs	r0, #0
 8006786:	e7fc      	b.n	8006782 <HAL_TIM_PWM_Start+0xd2>
 8006788:	40012c00 	.word	0x40012c00

0800678c <HAL_TIM_PWM_Start_IT>:
 800678c:	b510      	push	{r4, lr}
 800678e:	4604      	mov	r4, r0
 8006790:	4608      	mov	r0, r1
 8006792:	b9b1      	cbnz	r1, 80067c2 <HAL_TIM_PWM_Start_IT+0x36>
 8006794:	f894 303e 	ldrb.w	r3, [r4, #62]	; 0x3e
 8006798:	b2db      	uxtb	r3, r3
 800679a:	3b01      	subs	r3, #1
 800679c:	bf18      	it	ne
 800679e:	2301      	movne	r3, #1
 80067a0:	2b00      	cmp	r3, #0
 80067a2:	d17c      	bne.n	800689e <HAL_TIM_PWM_Start_IT+0x112>
 80067a4:	bb30      	cbnz	r0, 80067f4 <HAL_TIM_PWM_Start_IT+0x68>
 80067a6:	2302      	movs	r3, #2
 80067a8:	f884 303e 	strb.w	r3, [r4, #62]	; 0x3e
 80067ac:	280c      	cmp	r0, #12
 80067ae:	d836      	bhi.n	800681e <HAL_TIM_PWM_Start_IT+0x92>
 80067b0:	e8df f000 	tbb	[pc, r0]
 80067b4:	35353530 	.word	0x35353530
 80067b8:	35353553 	.word	0x35353553
 80067bc:	35353559 	.word	0x35353559
 80067c0:	5f          	.byte	0x5f
 80067c1:	00          	.byte	0x00
 80067c2:	2904      	cmp	r1, #4
 80067c4:	d008      	beq.n	80067d8 <HAL_TIM_PWM_Start_IT+0x4c>
 80067c6:	2908      	cmp	r1, #8
 80067c8:	d00d      	beq.n	80067e6 <HAL_TIM_PWM_Start_IT+0x5a>
 80067ca:	f894 3041 	ldrb.w	r3, [r4, #65]	; 0x41
 80067ce:	b2db      	uxtb	r3, r3
 80067d0:	3b01      	subs	r3, #1
 80067d2:	bf18      	it	ne
 80067d4:	2301      	movne	r3, #1
 80067d6:	e7e3      	b.n	80067a0 <HAL_TIM_PWM_Start_IT+0x14>
 80067d8:	f894 303f 	ldrb.w	r3, [r4, #63]	; 0x3f
 80067dc:	b2db      	uxtb	r3, r3
 80067de:	3b01      	subs	r3, #1
 80067e0:	bf18      	it	ne
 80067e2:	2301      	movne	r3, #1
 80067e4:	e7dc      	b.n	80067a0 <HAL_TIM_PWM_Start_IT+0x14>
 80067e6:	f894 3040 	ldrb.w	r3, [r4, #64]	; 0x40
 80067ea:	b2db      	uxtb	r3, r3
 80067ec:	3b01      	subs	r3, #1
 80067ee:	bf18      	it	ne
 80067f0:	2301      	movne	r3, #1
 80067f2:	e7d5      	b.n	80067a0 <HAL_TIM_PWM_Start_IT+0x14>
 80067f4:	2804      	cmp	r0, #4
 80067f6:	d005      	beq.n	8006804 <HAL_TIM_PWM_Start_IT+0x78>
 80067f8:	2808      	cmp	r0, #8
 80067fa:	d007      	beq.n	800680c <HAL_TIM_PWM_Start_IT+0x80>
 80067fc:	2302      	movs	r3, #2
 80067fe:	f884 3041 	strb.w	r3, [r4, #65]	; 0x41
 8006802:	e7d3      	b.n	80067ac <HAL_TIM_PWM_Start_IT+0x20>
 8006804:	2302      	movs	r3, #2
 8006806:	f884 303f 	strb.w	r3, [r4, #63]	; 0x3f
 800680a:	e7cf      	b.n	80067ac <HAL_TIM_PWM_Start_IT+0x20>
 800680c:	2302      	movs	r3, #2
 800680e:	f884 3040 	strb.w	r3, [r4, #64]	; 0x40
 8006812:	e7cb      	b.n	80067ac <HAL_TIM_PWM_Start_IT+0x20>
 8006814:	6822      	ldr	r2, [r4, #0]
 8006816:	68d3      	ldr	r3, [r2, #12]
 8006818:	f043 0302 	orr.w	r3, r3, #2
 800681c:	60d3      	str	r3, [r2, #12]
 800681e:	2201      	movs	r2, #1
 8006820:	4601      	mov	r1, r0
 8006822:	6820      	ldr	r0, [r4, #0]
 8006824:	f7ff ff32 	bl	800668c <TIM_CCxChannelCmd>
 8006828:	6823      	ldr	r3, [r4, #0]
 800682a:	4a1f      	ldr	r2, [pc, #124]	; (80068a8 <HAL_TIM_PWM_Start_IT+0x11c>)
 800682c:	4293      	cmp	r3, r2
 800682e:	d026      	beq.n	800687e <HAL_TIM_PWM_Start_IT+0xf2>
 8006830:	6823      	ldr	r3, [r4, #0]
 8006832:	4a1d      	ldr	r2, [pc, #116]	; (80068a8 <HAL_TIM_PWM_Start_IT+0x11c>)
 8006834:	4293      	cmp	r3, r2
 8006836:	d027      	beq.n	8006888 <HAL_TIM_PWM_Start_IT+0xfc>
 8006838:	f1b3 4f80 	cmp.w	r3, #1073741824	; 0x40000000
 800683c:	d024      	beq.n	8006888 <HAL_TIM_PWM_Start_IT+0xfc>
 800683e:	f5a2 3294 	sub.w	r2, r2, #75776	; 0x12800
 8006842:	4293      	cmp	r3, r2
 8006844:	d020      	beq.n	8006888 <HAL_TIM_PWM_Start_IT+0xfc>
 8006846:	f502 6280 	add.w	r2, r2, #1024	; 0x400
 800684a:	4293      	cmp	r3, r2
 800684c:	d01c      	beq.n	8006888 <HAL_TIM_PWM_Start_IT+0xfc>
 800684e:	681a      	ldr	r2, [r3, #0]
 8006850:	f042 0201 	orr.w	r2, r2, #1
 8006854:	601a      	str	r2, [r3, #0]
 8006856:	2000      	movs	r0, #0
 8006858:	e022      	b.n	80068a0 <HAL_TIM_PWM_Start_IT+0x114>
 800685a:	6822      	ldr	r2, [r4, #0]
 800685c:	68d3      	ldr	r3, [r2, #12]
 800685e:	f043 0304 	orr.w	r3, r3, #4
 8006862:	60d3      	str	r3, [r2, #12]
 8006864:	e7db      	b.n	800681e <HAL_TIM_PWM_Start_IT+0x92>
 8006866:	6822      	ldr	r2, [r4, #0]
 8006868:	68d3      	ldr	r3, [r2, #12]
 800686a:	f043 0308 	orr.w	r3, r3, #8
 800686e:	60d3      	str	r3, [r2, #12]
 8006870:	e7d5      	b.n	800681e <HAL_TIM_PWM_Start_IT+0x92>
 8006872:	6822      	ldr	r2, [r4, #0]
 8006874:	68d3      	ldr	r3, [r2, #12]
 8006876:	f043 0310 	orr.w	r3, r3, #16
 800687a:	60d3      	str	r3, [r2, #12]
 800687c:	e7cf      	b.n	800681e <HAL_TIM_PWM_Start_IT+0x92>
 800687e:	6c5a      	ldr	r2, [r3, #68]	; 0x44
 8006880:	f442 4200 	orr.w	r2, r2, #32768	; 0x8000
 8006884:	645a      	str	r2, [r3, #68]	; 0x44
 8006886:	e7d3      	b.n	8006830 <HAL_TIM_PWM_Start_IT+0xa4>
 8006888:	689a      	ldr	r2, [r3, #8]
 800688a:	f002 0207 	and.w	r2, r2, #7
 800688e:	2a06      	cmp	r2, #6
 8006890:	d007      	beq.n	80068a2 <HAL_TIM_PWM_Start_IT+0x116>
 8006892:	681a      	ldr	r2, [r3, #0]
 8006894:	f042 0201 	orr.w	r2, r2, #1
 8006898:	601a      	str	r2, [r3, #0]
 800689a:	2000      	movs	r0, #0
 800689c:	e000      	b.n	80068a0 <HAL_TIM_PWM_Start_IT+0x114>
 800689e:	2001      	movs	r0, #1
 80068a0:	bd10      	pop	{r4, pc}
 80068a2:	2000      	movs	r0, #0
 80068a4:	e7fc      	b.n	80068a0 <HAL_TIM_PWM_Start_IT+0x114>
 80068a6:	bf00      	nop
 80068a8:	40012c00 	.word	0x40012c00

080068ac <HAL_TIM_IC_Start_IT>:
 80068ac:	b510      	push	{r4, lr}
 80068ae:	4604      	mov	r4, r0
 80068b0:	460b      	mov	r3, r1
 80068b2:	bb01      	cbnz	r1, 80068f6 <HAL_TIM_IC_Start_IT+0x4a>
 80068b4:	f890 003e 	ldrb.w	r0, [r0, #62]	; 0x3e
 80068b8:	b2c0      	uxtb	r0, r0
 80068ba:	bb63      	cbnz	r3, 8006916 <HAL_TIM_IC_Start_IT+0x6a>
 80068bc:	f894 2042 	ldrb.w	r2, [r4, #66]	; 0x42
 80068c0:	b2d2      	uxtb	r2, r2
 80068c2:	2801      	cmp	r0, #1
 80068c4:	f040 8093 	bne.w	80069ee <HAL_TIM_IC_Start_IT+0x142>
 80068c8:	2a01      	cmp	r2, #1
 80068ca:	f040 8091 	bne.w	80069f0 <HAL_TIM_IC_Start_IT+0x144>
 80068ce:	bb93      	cbnz	r3, 8006936 <HAL_TIM_IC_Start_IT+0x8a>
 80068d0:	2202      	movs	r2, #2
 80068d2:	f884 203e 	strb.w	r2, [r4, #62]	; 0x3e
 80068d6:	2b00      	cmp	r3, #0
 80068d8:	d13d      	bne.n	8006956 <HAL_TIM_IC_Start_IT+0xaa>
 80068da:	2202      	movs	r2, #2
 80068dc:	f884 2042 	strb.w	r2, [r4, #66]	; 0x42
 80068e0:	2b0c      	cmp	r3, #12
 80068e2:	d84d      	bhi.n	8006980 <HAL_TIM_IC_Start_IT+0xd4>
 80068e4:	e8df f003 	tbb	[pc, r3]
 80068e8:	4c4c4c47 	.word	0x4c4c4c47
 80068ec:	4c4c4c66 	.word	0x4c4c4c66
 80068f0:	4c4c4c6c 	.word	0x4c4c4c6c
 80068f4:	72          	.byte	0x72
 80068f5:	00          	.byte	0x00
 80068f6:	2904      	cmp	r1, #4
 80068f8:	d005      	beq.n	8006906 <HAL_TIM_IC_Start_IT+0x5a>
 80068fa:	2908      	cmp	r1, #8
 80068fc:	d007      	beq.n	800690e <HAL_TIM_IC_Start_IT+0x62>
 80068fe:	f890 0041 	ldrb.w	r0, [r0, #65]	; 0x41
 8006902:	b2c0      	uxtb	r0, r0
 8006904:	e7d9      	b.n	80068ba <HAL_TIM_IC_Start_IT+0xe>
 8006906:	f890 003f 	ldrb.w	r0, [r0, #63]	; 0x3f
 800690a:	b2c0      	uxtb	r0, r0
 800690c:	e7d5      	b.n	80068ba <HAL_TIM_IC_Start_IT+0xe>
 800690e:	f890 0040 	ldrb.w	r0, [r0, #64]	; 0x40
 8006912:	b2c0      	uxtb	r0, r0
 8006914:	e7d1      	b.n	80068ba <HAL_TIM_IC_Start_IT+0xe>
 8006916:	2b04      	cmp	r3, #4
 8006918:	d005      	beq.n	8006926 <HAL_TIM_IC_Start_IT+0x7a>
 800691a:	2b08      	cmp	r3, #8
 800691c:	d007      	beq.n	800692e <HAL_TIM_IC_Start_IT+0x82>
 800691e:	f894 2045 	ldrb.w	r2, [r4, #69]	; 0x45
 8006922:	b2d2      	uxtb	r2, r2
 8006924:	e7cd      	b.n	80068c2 <HAL_TIM_IC_Start_IT+0x16>
 8006926:	f894 2043 	ldrb.w	r2, [r4, #67]	; 0x43
 800692a:	b2d2      	uxtb	r2, r2
 800692c:	e7c9      	b.n	80068c2 <HAL_TIM_IC_Start_IT+0x16>
 800692e:	f894 2044 	ldrb.w	r2, [r4, #68]	; 0x44
 8006932:	b2d2      	uxtb	r2, r2
 8006934:	e7c5      	b.n	80068c2 <HAL_TIM_IC_Start_IT+0x16>
 8006936:	2b04      	cmp	r3, #4
 8006938:	d005      	beq.n	8006946 <HAL_TIM_IC_Start_IT+0x9a>
 800693a:	2b08      	cmp	r3, #8
 800693c:	d007      	beq.n	800694e <HAL_TIM_IC_Start_IT+0xa2>
 800693e:	2202      	movs	r2, #2
 8006940:	f884 2041 	strb.w	r2, [r4, #65]	; 0x41
 8006944:	e7c7      	b.n	80068d6 <HAL_TIM_IC_Start_IT+0x2a>
 8006946:	2202      	movs	r2, #2
 8006948:	f884 203f 	strb.w	r2, [r4, #63]	; 0x3f
 800694c:	e7c3      	b.n	80068d6 <HAL_TIM_IC_Start_IT+0x2a>
 800694e:	2202      	movs	r2, #2
 8006950:	f884 2040 	strb.w	r2, [r4, #64]	; 0x40
 8006954:	e7bf      	b.n	80068d6 <HAL_TIM_IC_Start_IT+0x2a>
 8006956:	2b04      	cmp	r3, #4
 8006958:	d005      	beq.n	8006966 <HAL_TIM_IC_Start_IT+0xba>
 800695a:	2b08      	cmp	r3, #8
 800695c:	d007      	beq.n	800696e <HAL_TIM_IC_Start_IT+0xc2>
 800695e:	2202      	movs	r2, #2
 8006960:	f884 2045 	strb.w	r2, [r4, #69]	; 0x45
 8006964:	e7bc      	b.n	80068e0 <HAL_TIM_IC_Start_IT+0x34>
 8006966:	2202      	movs	r2, #2
 8006968:	f884 2043 	strb.w	r2, [r4, #67]	; 0x43
 800696c:	e7b8      	b.n	80068e0 <HAL_TIM_IC_Start_IT+0x34>
 800696e:	2202      	movs	r2, #2
 8006970:	f884 2044 	strb.w	r2, [r4, #68]	; 0x44
 8006974:	e7b4      	b.n	80068e0 <HAL_TIM_IC_Start_IT+0x34>
 8006976:	6821      	ldr	r1, [r4, #0]
 8006978:	68ca      	ldr	r2, [r1, #12]
 800697a:	f042 0202 	orr.w	r2, r2, #2
 800697e:	60ca      	str	r2, [r1, #12]
 8006980:	2201      	movs	r2, #1
 8006982:	4619      	mov	r1, r3
 8006984:	6820      	ldr	r0, [r4, #0]
 8006986:	f7ff fe81 	bl	800668c <TIM_CCxChannelCmd>
 800698a:	6823      	ldr	r3, [r4, #0]
 800698c:	4a1a      	ldr	r2, [pc, #104]	; (80069f8 <HAL_TIM_IC_Start_IT+0x14c>)
 800698e:	4293      	cmp	r3, r2
 8006990:	d022      	beq.n	80069d8 <HAL_TIM_IC_Start_IT+0x12c>
 8006992:	f1b3 4f80 	cmp.w	r3, #1073741824	; 0x40000000
 8006996:	d01f      	beq.n	80069d8 <HAL_TIM_IC_Start_IT+0x12c>
 8006998:	f5a2 3294 	sub.w	r2, r2, #75776	; 0x12800
 800699c:	4293      	cmp	r3, r2
 800699e:	d01b      	beq.n	80069d8 <HAL_TIM_IC_Start_IT+0x12c>
 80069a0:	f502 6280 	add.w	r2, r2, #1024	; 0x400
 80069a4:	4293      	cmp	r3, r2
 80069a6:	d017      	beq.n	80069d8 <HAL_TIM_IC_Start_IT+0x12c>
 80069a8:	681a      	ldr	r2, [r3, #0]
 80069aa:	f042 0201 	orr.w	r2, r2, #1
 80069ae:	601a      	str	r2, [r3, #0]
 80069b0:	2000      	movs	r0, #0
 80069b2:	e01d      	b.n	80069f0 <HAL_TIM_IC_Start_IT+0x144>
 80069b4:	6821      	ldr	r1, [r4, #0]
 80069b6:	68ca      	ldr	r2, [r1, #12]
 80069b8:	f042 0204 	orr.w	r2, r2, #4
 80069bc:	60ca      	str	r2, [r1, #12]
 80069be:	e7df      	b.n	8006980 <HAL_TIM_IC_Start_IT+0xd4>
 80069c0:	6821      	ldr	r1, [r4, #0]
 80069c2:	68ca      	ldr	r2, [r1, #12]
 80069c4:	f042 0208 	orr.w	r2, r2, #8
 80069c8:	60ca      	str	r2, [r1, #12]
 80069ca:	e7d9      	b.n	8006980 <HAL_TIM_IC_Start_IT+0xd4>
 80069cc:	6821      	ldr	r1, [r4, #0]
 80069ce:	68ca      	ldr	r2, [r1, #12]
 80069d0:	f042 0210 	orr.w	r2, r2, #16
 80069d4:	60ca      	str	r2, [r1, #12]
 80069d6:	e7d3      	b.n	8006980 <HAL_TIM_IC_Start_IT+0xd4>
 80069d8:	689a      	ldr	r2, [r3, #8]
 80069da:	f002 0207 	and.w	r2, r2, #7
 80069de:	2a06      	cmp	r2, #6
 80069e0:	d007      	beq.n	80069f2 <HAL_TIM_IC_Start_IT+0x146>
 80069e2:	681a      	ldr	r2, [r3, #0]
 80069e4:	f042 0201 	orr.w	r2, r2, #1
 80069e8:	601a      	str	r2, [r3, #0]
 80069ea:	2000      	movs	r0, #0
 80069ec:	e000      	b.n	80069f0 <HAL_TIM_IC_Start_IT+0x144>
 80069ee:	2001      	movs	r0, #1
 80069f0:	bd10      	pop	{r4, pc}
 80069f2:	2000      	movs	r0, #0
 80069f4:	e7fc      	b.n	80069f0 <HAL_TIM_IC_Start_IT+0x144>
 80069f6:	bf00      	nop
 80069f8:	40012c00 	.word	0x40012c00

080069fc <TIM_CCxNChannelCmd>:
 80069fc:	b410      	push	{r4}
 80069fe:	f001 011f 	and.w	r1, r1, #31
 8006a02:	2304      	movs	r3, #4
 8006a04:	fa03 f401 	lsl.w	r4, r3, r1
 8006a08:	6a03      	ldr	r3, [r0, #32]
 8006a0a:	ea23 0304 	bic.w	r3, r3, r4
 8006a0e:	6203      	str	r3, [r0, #32]
 8006a10:	6a03      	ldr	r3, [r0, #32]
 8006a12:	fa02 f101 	lsl.w	r1, r2, r1
 8006a16:	430b      	orrs	r3, r1
 8006a18:	6203      	str	r3, [r0, #32]
 8006a1a:	bc10      	pop	{r4}
 8006a1c:	4770      	bx	lr
	...

08006a20 <HAL_TIMEx_PWMN_Start_IT>:
 8006a20:	b510      	push	{r4, lr}
 8006a22:	4604      	mov	r4, r0
 8006a24:	4608      	mov	r0, r1
 8006a26:	2900      	cmp	r1, #0
 8006a28:	d136      	bne.n	8006a98 <HAL_TIMEx_PWMN_Start_IT+0x78>
 8006a2a:	f894 3042 	ldrb.w	r3, [r4, #66]	; 0x42
 8006a2e:	b2db      	uxtb	r3, r3
 8006a30:	3b01      	subs	r3, #1
 8006a32:	bf18      	it	ne
 8006a34:	2301      	movne	r3, #1
 8006a36:	2b00      	cmp	r3, #0
 8006a38:	d174      	bne.n	8006b24 <HAL_TIMEx_PWMN_Start_IT+0x104>
 8006a3a:	2800      	cmp	r0, #0
 8006a3c:	d145      	bne.n	8006aca <HAL_TIMEx_PWMN_Start_IT+0xaa>
 8006a3e:	2302      	movs	r3, #2
 8006a40:	f884 3042 	strb.w	r3, [r4, #66]	; 0x42
 8006a44:	2804      	cmp	r0, #4
 8006a46:	d056      	beq.n	8006af6 <HAL_TIMEx_PWMN_Start_IT+0xd6>
 8006a48:	2808      	cmp	r0, #8
 8006a4a:	d05a      	beq.n	8006b02 <HAL_TIMEx_PWMN_Start_IT+0xe2>
 8006a4c:	2800      	cmp	r0, #0
 8006a4e:	d04c      	beq.n	8006aea <HAL_TIMEx_PWMN_Start_IT+0xca>
 8006a50:	6822      	ldr	r2, [r4, #0]
 8006a52:	68d3      	ldr	r3, [r2, #12]
 8006a54:	f043 0380 	orr.w	r3, r3, #128	; 0x80
 8006a58:	60d3      	str	r3, [r2, #12]
 8006a5a:	2204      	movs	r2, #4
 8006a5c:	4601      	mov	r1, r0
 8006a5e:	6820      	ldr	r0, [r4, #0]
 8006a60:	f7ff ffcc 	bl	80069fc <TIM_CCxNChannelCmd>
 8006a64:	6822      	ldr	r2, [r4, #0]
 8006a66:	6c53      	ldr	r3, [r2, #68]	; 0x44
 8006a68:	f443 4300 	orr.w	r3, r3, #32768	; 0x8000
 8006a6c:	6453      	str	r3, [r2, #68]	; 0x44
 8006a6e:	6823      	ldr	r3, [r4, #0]
 8006a70:	4a2e      	ldr	r2, [pc, #184]	; (8006b2c <HAL_TIMEx_PWMN_Start_IT+0x10c>)
 8006a72:	4293      	cmp	r3, r2
 8006a74:	d04b      	beq.n	8006b0e <HAL_TIMEx_PWMN_Start_IT+0xee>
 8006a76:	f1b3 4f80 	cmp.w	r3, #1073741824	; 0x40000000
 8006a7a:	d048      	beq.n	8006b0e <HAL_TIMEx_PWMN_Start_IT+0xee>
 8006a7c:	f5a2 3294 	sub.w	r2, r2, #75776	; 0x12800
 8006a80:	4293      	cmp	r3, r2
 8006a82:	d044      	beq.n	8006b0e <HAL_TIMEx_PWMN_Start_IT+0xee>
 8006a84:	f502 6280 	add.w	r2, r2, #1024	; 0x400
 8006a88:	4293      	cmp	r3, r2
 8006a8a:	d040      	beq.n	8006b0e <HAL_TIMEx_PWMN_Start_IT+0xee>
 8006a8c:	681a      	ldr	r2, [r3, #0]
 8006a8e:	f042 0201 	orr.w	r2, r2, #1
 8006a92:	601a      	str	r2, [r3, #0]
 8006a94:	2000      	movs	r0, #0
 8006a96:	e046      	b.n	8006b26 <HAL_TIMEx_PWMN_Start_IT+0x106>
 8006a98:	2904      	cmp	r1, #4
 8006a9a:	d008      	beq.n	8006aae <HAL_TIMEx_PWMN_Start_IT+0x8e>
 8006a9c:	2908      	cmp	r1, #8
 8006a9e:	d00d      	beq.n	8006abc <HAL_TIMEx_PWMN_Start_IT+0x9c>
 8006aa0:	f894 3045 	ldrb.w	r3, [r4, #69]	; 0x45
 8006aa4:	b2db      	uxtb	r3, r3
 8006aa6:	3b01      	subs	r3, #1
 8006aa8:	bf18      	it	ne
 8006aaa:	2301      	movne	r3, #1
 8006aac:	e7c3      	b.n	8006a36 <HAL_TIMEx_PWMN_Start_IT+0x16>
 8006aae:	f894 3043 	ldrb.w	r3, [r4, #67]	; 0x43
 8006ab2:	b2db      	uxtb	r3, r3
 8006ab4:	3b01      	subs	r3, #1
 8006ab6:	bf18      	it	ne
 8006ab8:	2301      	movne	r3, #1
 8006aba:	e7bc      	b.n	8006a36 <HAL_TIMEx_PWMN_Start_IT+0x16>
 8006abc:	f894 3044 	ldrb.w	r3, [r4, #68]	; 0x44
 8006ac0:	b2db      	uxtb	r3, r3
 8006ac2:	3b01      	subs	r3, #1
 8006ac4:	bf18      	it	ne
 8006ac6:	2301      	movne	r3, #1
 8006ac8:	e7b5      	b.n	8006a36 <HAL_TIMEx_PWMN_Start_IT+0x16>
 8006aca:	2804      	cmp	r0, #4
 8006acc:	d005      	beq.n	8006ada <HAL_TIMEx_PWMN_Start_IT+0xba>
 8006ace:	2808      	cmp	r0, #8
 8006ad0:	d007      	beq.n	8006ae2 <HAL_TIMEx_PWMN_Start_IT+0xc2>
 8006ad2:	2302      	movs	r3, #2
 8006ad4:	f884 3045 	strb.w	r3, [r4, #69]	; 0x45
 8006ad8:	e7b4      	b.n	8006a44 <HAL_TIMEx_PWMN_Start_IT+0x24>
 8006ada:	2302      	movs	r3, #2
 8006adc:	f884 3043 	strb.w	r3, [r4, #67]	; 0x43
 8006ae0:	e7b0      	b.n	8006a44 <HAL_TIMEx_PWMN_Start_IT+0x24>
 8006ae2:	2302      	movs	r3, #2
 8006ae4:	f884 3044 	strb.w	r3, [r4, #68]	; 0x44
 8006ae8:	e7ac      	b.n	8006a44 <HAL_TIMEx_PWMN_Start_IT+0x24>
 8006aea:	6822      	ldr	r2, [r4, #0]
 8006aec:	68d3      	ldr	r3, [r2, #12]
 8006aee:	f043 0302 	orr.w	r3, r3, #2
 8006af2:	60d3      	str	r3, [r2, #12]
 8006af4:	e7ac      	b.n	8006a50 <HAL_TIMEx_PWMN_Start_IT+0x30>
 8006af6:	6822      	ldr	r2, [r4, #0]
 8006af8:	68d3      	ldr	r3, [r2, #12]
 8006afa:	f043 0304 	orr.w	r3, r3, #4
 8006afe:	60d3      	str	r3, [r2, #12]
 8006b00:	e7a6      	b.n	8006a50 <HAL_TIMEx_PWMN_Start_IT+0x30>
 8006b02:	6822      	ldr	r2, [r4, #0]
 8006b04:	68d3      	ldr	r3, [r2, #12]
 8006b06:	f043 0308 	orr.w	r3, r3, #8
 8006b0a:	60d3      	str	r3, [r2, #12]
 8006b0c:	e7a0      	b.n	8006a50 <HAL_TIMEx_PWMN_Start_IT+0x30>
 8006b0e:	689a      	ldr	r2, [r3, #8]
 8006b10:	f002 0207 	and.w	r2, r2, #7
 8006b14:	2a06      	cmp	r2, #6
 8006b16:	d007      	beq.n	8006b28 <HAL_TIMEx_PWMN_Start_IT+0x108>
 8006b18:	681a      	ldr	r2, [r3, #0]
 8006b1a:	f042 0201 	orr.w	r2, r2, #1
 8006b1e:	601a      	str	r2, [r3, #0]
 8006b20:	2000      	movs	r0, #0
 8006b22:	e000      	b.n	8006b26 <HAL_TIMEx_PWMN_Start_IT+0x106>
 8006b24:	2001      	movs	r0, #1
 8006b26:	bd10      	pop	{r4, pc}
 8006b28:	2000      	movs	r0, #0
 8006b2a:	e7fc      	b.n	8006b26 <HAL_TIMEx_PWMN_Start_IT+0x106>
 8006b2c:	40012c00 	.word	0x40012c00

08006b30 <HAL_TIMEx_MasterConfigSynchronization>:
 8006b30:	f890 303c 	ldrb.w	r3, [r0, #60]	; 0x3c
 8006b34:	2b01      	cmp	r3, #1
 8006b36:	d02b      	beq.n	8006b90 <HAL_TIMEx_MasterConfigSynchronization+0x60>
 8006b38:	b430      	push	{r4, r5}
 8006b3a:	2301      	movs	r3, #1
 8006b3c:	f880 303c 	strb.w	r3, [r0, #60]	; 0x3c
 8006b40:	2302      	movs	r3, #2
 8006b42:	f880 303d 	strb.w	r3, [r0, #61]	; 0x3d
 8006b46:	6803      	ldr	r3, [r0, #0]
 8006b48:	685c      	ldr	r4, [r3, #4]
 8006b4a:	689d      	ldr	r5, [r3, #8]
 8006b4c:	f024 0470 	bic.w	r4, r4, #112	; 0x70
 8006b50:	680a      	ldr	r2, [r1, #0]
 8006b52:	4322      	orrs	r2, r4
 8006b54:	605a      	str	r2, [r3, #4]
 8006b56:	6803      	ldr	r3, [r0, #0]
 8006b58:	4a0e      	ldr	r2, [pc, #56]	; (8006b94 <HAL_TIMEx_MasterConfigSynchronization+0x64>)
 8006b5a:	4293      	cmp	r3, r2
 8006b5c:	d00a      	beq.n	8006b74 <HAL_TIMEx_MasterConfigSynchronization+0x44>
 8006b5e:	f1b3 4f80 	cmp.w	r3, #1073741824	; 0x40000000
 8006b62:	d007      	beq.n	8006b74 <HAL_TIMEx_MasterConfigSynchronization+0x44>
 8006b64:	f5a2 3294 	sub.w	r2, r2, #75776	; 0x12800
 8006b68:	4293      	cmp	r3, r2
 8006b6a:	d003      	beq.n	8006b74 <HAL_TIMEx_MasterConfigSynchronization+0x44>
 8006b6c:	f502 6280 	add.w	r2, r2, #1024	; 0x400
 8006b70:	4293      	cmp	r3, r2
 8006b72:	d104      	bne.n	8006b7e <HAL_TIMEx_MasterConfigSynchronization+0x4e>
 8006b74:	f025 0580 	bic.w	r5, r5, #128	; 0x80
 8006b78:	684a      	ldr	r2, [r1, #4]
 8006b7a:	4315      	orrs	r5, r2
 8006b7c:	609d      	str	r5, [r3, #8]
 8006b7e:	2301      	movs	r3, #1
 8006b80:	f880 303d 	strb.w	r3, [r0, #61]	; 0x3d
 8006b84:	2300      	movs	r3, #0
 8006b86:	f880 303c 	strb.w	r3, [r0, #60]	; 0x3c
 8006b8a:	4618      	mov	r0, r3
 8006b8c:	bc30      	pop	{r4, r5}
 8006b8e:	4770      	bx	lr
 8006b90:	2002      	movs	r0, #2
 8006b92:	4770      	bx	lr
 8006b94:	40012c00 	.word	0x40012c00

08006b98 <HAL_TIMEx_ConfigBreakDeadTime>:
 8006b98:	f890 303c 	ldrb.w	r3, [r0, #60]	; 0x3c
 8006b9c:	2b01      	cmp	r3, #1
 8006b9e:	d022      	beq.n	8006be6 <HAL_TIMEx_ConfigBreakDeadTime+0x4e>
 8006ba0:	2301      	movs	r3, #1
 8006ba2:	f880 303c 	strb.w	r3, [r0, #60]	; 0x3c
 8006ba6:	68cb      	ldr	r3, [r1, #12]
 8006ba8:	f423 7340 	bic.w	r3, r3, #768	; 0x300
 8006bac:	688a      	ldr	r2, [r1, #8]
 8006bae:	4313      	orrs	r3, r2
 8006bb0:	f423 6380 	bic.w	r3, r3, #1024	; 0x400
 8006bb4:	684a      	ldr	r2, [r1, #4]
 8006bb6:	4313      	orrs	r3, r2
 8006bb8:	f423 6300 	bic.w	r3, r3, #2048	; 0x800
 8006bbc:	680a      	ldr	r2, [r1, #0]
 8006bbe:	4313      	orrs	r3, r2
 8006bc0:	f423 5380 	bic.w	r3, r3, #4096	; 0x1000
 8006bc4:	690a      	ldr	r2, [r1, #16]
 8006bc6:	4313      	orrs	r3, r2
 8006bc8:	f423 5300 	bic.w	r3, r3, #8192	; 0x2000
 8006bcc:	694a      	ldr	r2, [r1, #20]
 8006bce:	4313      	orrs	r3, r2
 8006bd0:	f423 4380 	bic.w	r3, r3, #16384	; 0x4000
 8006bd4:	69ca      	ldr	r2, [r1, #28]
 8006bd6:	4313      	orrs	r3, r2
 8006bd8:	6802      	ldr	r2, [r0, #0]
 8006bda:	6453      	str	r3, [r2, #68]	; 0x44
 8006bdc:	2300      	movs	r3, #0
 8006bde:	f880 303c 	strb.w	r3, [r0, #60]	; 0x3c
 8006be2:	4618      	mov	r0, r3
 8006be4:	4770      	bx	lr
 8006be6:	2002      	movs	r0, #2
 8006be8:	4770      	bx	lr

08006bea <HAL_TIMEx_CommutCallback>:
 8006bea:	4770      	bx	lr

08006bec <HAL_TIMEx_BreakCallback>:
 8006bec:	4770      	bx	lr

08006bee <USB_CoreInit>:
 8006bee:	b084      	sub	sp, #16
 8006bf0:	a801      	add	r0, sp, #4
 8006bf2:	e880 000e 	stmia.w	r0, {r1, r2, r3}
 8006bf6:	2000      	movs	r0, #0
 8006bf8:	b004      	add	sp, #16
 8006bfa:	4770      	bx	lr

08006bfc <USB_EnableGlobalInt>:
 8006bfc:	4603      	mov	r3, r0
 8006bfe:	2000      	movs	r0, #0
 8006c00:	f8a3 0044 	strh.w	r0, [r3, #68]	; 0x44
 8006c04:	f44f 423f 	mov.w	r2, #48896	; 0xbf00
 8006c08:	f8a3 2040 	strh.w	r2, [r3, #64]	; 0x40
 8006c0c:	4770      	bx	lr

08006c0e <USB_DisableGlobalInt>:
 8006c0e:	f8b0 3040 	ldrh.w	r3, [r0, #64]	; 0x40
 8006c12:	f423 537c 	bic.w	r3, r3, #16128	; 0x3f00
 8006c16:	045b      	lsls	r3, r3, #17
 8006c18:	0c5b      	lsrs	r3, r3, #17
 8006c1a:	f8a0 3040 	strh.w	r3, [r0, #64]	; 0x40
 8006c1e:	2000      	movs	r0, #0
 8006c20:	4770      	bx	lr

08006c22 <USB_SetCurrentMode>:
 8006c22:	2000      	movs	r0, #0
 8006c24:	4770      	bx	lr

08006c26 <USB_DevInit>:
 8006c26:	b084      	sub	sp, #16
 8006c28:	b410      	push	{r4}
 8006c2a:	4604      	mov	r4, r0
 8006c2c:	a802      	add	r0, sp, #8
 8006c2e:	e880 000e 	stmia.w	r0, {r1, r2, r3}
 8006c32:	2301      	movs	r3, #1
 8006c34:	f8a4 3040 	strh.w	r3, [r4, #64]	; 0x40
 8006c38:	2000      	movs	r0, #0
 8006c3a:	f8a4 0040 	strh.w	r0, [r4, #64]	; 0x40
 8006c3e:	f8a4 0044 	strh.w	r0, [r4, #68]	; 0x44
 8006c42:	f8a4 0050 	strh.w	r0, [r4, #80]	; 0x50
 8006c46:	bc10      	pop	{r4}
 8006c48:	b004      	add	sp, #16
 8006c4a:	4770      	bx	lr

08006c4c <USB_ActivateEndpoint>:
 8006c4c:	b430      	push	{r4, r5}
 8006c4e:	4603      	mov	r3, r0
 8006c50:	780c      	ldrb	r4, [r1, #0]
 8006c52:	f830 2024 	ldrh.w	r2, [r0, r4, lsl #2]
 8006c56:	b292      	uxth	r2, r2
 8006c58:	f422 42ec 	bic.w	r2, r2, #30208	; 0x7600
 8006c5c:	f022 0270 	bic.w	r2, r2, #112	; 0x70
 8006c60:	b292      	uxth	r2, r2
 8006c62:	78c8      	ldrb	r0, [r1, #3]
 8006c64:	2803      	cmp	r0, #3
 8006c66:	d85a      	bhi.n	8006d1e <USB_ActivateEndpoint+0xd2>
 8006c68:	e8df f000 	tbb	[pc, r0]
 8006c6c:	5102554e 	.word	0x5102554e
 8006c70:	2000      	movs	r0, #0
 8006c72:	f248 0580 	movw	r5, #32896	; 0x8080
 8006c76:	432a      	orrs	r2, r5
 8006c78:	f823 2024 	strh.w	r2, [r3, r4, lsl #2]
 8006c7c:	780c      	ldrb	r4, [r1, #0]
 8006c7e:	f833 2024 	ldrh.w	r2, [r3, r4, lsl #2]
 8006c82:	b292      	uxth	r2, r2
 8006c84:	f422 42e0 	bic.w	r2, r2, #28672	; 0x7000
 8006c88:	f022 0270 	bic.w	r2, r2, #112	; 0x70
 8006c8c:	4322      	orrs	r2, r4
 8006c8e:	432a      	orrs	r2, r5
 8006c90:	f823 2024 	strh.w	r2, [r3, r4, lsl #2]
 8006c94:	7b0a      	ldrb	r2, [r1, #12]
 8006c96:	2a00      	cmp	r2, #0
 8006c98:	f040 80b6 	bne.w	8006e08 <USB_ActivateEndpoint+0x1bc>
 8006c9c:	784a      	ldrb	r2, [r1, #1]
 8006c9e:	2a00      	cmp	r2, #0
 8006ca0:	d04e      	beq.n	8006d40 <USB_ActivateEndpoint+0xf4>
 8006ca2:	f8b3 2050 	ldrh.w	r2, [r3, #80]	; 0x50
 8006ca6:	b292      	uxth	r2, r2
 8006ca8:	441a      	add	r2, r3
 8006caa:	780c      	ldrb	r4, [r1, #0]
 8006cac:	eb02 1204 	add.w	r2, r2, r4, lsl #4
 8006cb0:	88cc      	ldrh	r4, [r1, #6]
 8006cb2:	0864      	lsrs	r4, r4, #1
 8006cb4:	0064      	lsls	r4, r4, #1
 8006cb6:	f8a2 4400 	strh.w	r4, [r2, #1024]	; 0x400
 8006cba:	780c      	ldrb	r4, [r1, #0]
 8006cbc:	f833 2024 	ldrh.w	r2, [r3, r4, lsl #2]
 8006cc0:	f012 0f40 	tst.w	r2, #64	; 0x40
 8006cc4:	d00c      	beq.n	8006ce0 <USB_ActivateEndpoint+0x94>
 8006cc6:	f833 2024 	ldrh.w	r2, [r3, r4, lsl #2]
 8006cca:	b292      	uxth	r2, r2
 8006ccc:	f422 42e0 	bic.w	r2, r2, #28672	; 0x7000
 8006cd0:	f022 0270 	bic.w	r2, r2, #112	; 0x70
 8006cd4:	f442 4200 	orr.w	r2, r2, #32768	; 0x8000
 8006cd8:	f042 02c0 	orr.w	r2, r2, #192	; 0xc0
 8006cdc:	f823 2024 	strh.w	r2, [r3, r4, lsl #2]
 8006ce0:	78ca      	ldrb	r2, [r1, #3]
 8006ce2:	2a01      	cmp	r2, #1
 8006ce4:	d01d      	beq.n	8006d22 <USB_ActivateEndpoint+0xd6>
 8006ce6:	7809      	ldrb	r1, [r1, #0]
 8006ce8:	f833 2021 	ldrh.w	r2, [r3, r1, lsl #2]
 8006cec:	b292      	uxth	r2, r2
 8006cee:	f422 42e0 	bic.w	r2, r2, #28672	; 0x7000
 8006cf2:	f022 0240 	bic.w	r2, r2, #64	; 0x40
 8006cf6:	f082 0220 	eor.w	r2, r2, #32
 8006cfa:	f442 4200 	orr.w	r2, r2, #32768	; 0x8000
 8006cfe:	f042 0280 	orr.w	r2, r2, #128	; 0x80
 8006d02:	f823 2021 	strh.w	r2, [r3, r1, lsl #2]
 8006d06:	e064      	b.n	8006dd2 <USB_ActivateEndpoint+0x186>
 8006d08:	f442 7200 	orr.w	r2, r2, #512	; 0x200
 8006d0c:	e7b1      	b.n	8006c72 <USB_ActivateEndpoint+0x26>
 8006d0e:	f442 62c0 	orr.w	r2, r2, #1536	; 0x600
 8006d12:	2000      	movs	r0, #0
 8006d14:	e7ad      	b.n	8006c72 <USB_ActivateEndpoint+0x26>
 8006d16:	f442 6280 	orr.w	r2, r2, #1024	; 0x400
 8006d1a:	2000      	movs	r0, #0
 8006d1c:	e7a9      	b.n	8006c72 <USB_ActivateEndpoint+0x26>
 8006d1e:	2001      	movs	r0, #1
 8006d20:	e7a7      	b.n	8006c72 <USB_ActivateEndpoint+0x26>
 8006d22:	7809      	ldrb	r1, [r1, #0]
 8006d24:	f833 2021 	ldrh.w	r2, [r3, r1, lsl #2]
 8006d28:	b292      	uxth	r2, r2
 8006d2a:	f422 42e0 	bic.w	r2, r2, #28672	; 0x7000
 8006d2e:	f022 0240 	bic.w	r2, r2, #64	; 0x40
 8006d32:	f442 4200 	orr.w	r2, r2, #32768	; 0x8000
 8006d36:	f042 0280 	orr.w	r2, r2, #128	; 0x80
 8006d3a:	f823 2021 	strh.w	r2, [r3, r1, lsl #2]
 8006d3e:	e048      	b.n	8006dd2 <USB_ActivateEndpoint+0x186>
 8006d40:	f8b3 2050 	ldrh.w	r2, [r3, #80]	; 0x50
 8006d44:	b292      	uxth	r2, r2
 8006d46:	441a      	add	r2, r3
 8006d48:	780c      	ldrb	r4, [r1, #0]
 8006d4a:	eb02 1204 	add.w	r2, r2, r4, lsl #4
 8006d4e:	88cc      	ldrh	r4, [r1, #6]
 8006d50:	0864      	lsrs	r4, r4, #1
 8006d52:	0064      	lsls	r4, r4, #1
 8006d54:	f8a2 4408 	strh.w	r4, [r2, #1032]	; 0x408
 8006d58:	f8b3 2050 	ldrh.w	r2, [r3, #80]	; 0x50
 8006d5c:	b292      	uxth	r2, r2
 8006d5e:	441a      	add	r2, r3
 8006d60:	780c      	ldrb	r4, [r1, #0]
 8006d62:	eb02 1204 	add.w	r2, r2, r4, lsl #4
 8006d66:	690c      	ldr	r4, [r1, #16]
 8006d68:	bbac      	cbnz	r4, 8006dd6 <USB_ActivateEndpoint+0x18a>
 8006d6a:	f8b2 440c 	ldrh.w	r4, [r2, #1036]	; 0x40c
 8006d6e:	b2a4      	uxth	r4, r4
 8006d70:	f424 44f8 	bic.w	r4, r4, #31744	; 0x7c00
 8006d74:	b2a4      	uxth	r4, r4
 8006d76:	f8a2 440c 	strh.w	r4, [r2, #1036]	; 0x40c
 8006d7a:	f8b2 440c 	ldrh.w	r4, [r2, #1036]	; 0x40c
 8006d7e:	ea6f 4444 	mvn.w	r4, r4, lsl #17
 8006d82:	ea6f 4454 	mvn.w	r4, r4, lsr #17
 8006d86:	b2a4      	uxth	r4, r4
 8006d88:	f8a2 440c 	strh.w	r4, [r2, #1036]	; 0x40c
 8006d8c:	780c      	ldrb	r4, [r1, #0]
 8006d8e:	f833 2024 	ldrh.w	r2, [r3, r4, lsl #2]
 8006d92:	f412 4f80 	tst.w	r2, #16384	; 0x4000
 8006d96:	d00c      	beq.n	8006db2 <USB_ActivateEndpoint+0x166>
 8006d98:	f833 2024 	ldrh.w	r2, [r3, r4, lsl #2]
 8006d9c:	b292      	uxth	r2, r2
 8006d9e:	f422 42e0 	bic.w	r2, r2, #28672	; 0x7000
 8006da2:	f022 0270 	bic.w	r2, r2, #112	; 0x70
 8006da6:	f442 4240 	orr.w	r2, r2, #49152	; 0xc000
 8006daa:	f042 0280 	orr.w	r2, r2, #128	; 0x80
 8006dae:	f823 2024 	strh.w	r2, [r3, r4, lsl #2]
 8006db2:	7809      	ldrb	r1, [r1, #0]
 8006db4:	f833 2021 	ldrh.w	r2, [r3, r1, lsl #2]
 8006db8:	b292      	uxth	r2, r2
 8006dba:	f422 4280 	bic.w	r2, r2, #16384	; 0x4000
 8006dbe:	f022 0270 	bic.w	r2, r2, #112	; 0x70
 8006dc2:	f482 5240 	eor.w	r2, r2, #12288	; 0x3000
 8006dc6:	f442 4200 	orr.w	r2, r2, #32768	; 0x8000
 8006dca:	f042 0280 	orr.w	r2, r2, #128	; 0x80
 8006dce:	f823 2021 	strh.w	r2, [r3, r1, lsl #2]
 8006dd2:	bc30      	pop	{r4, r5}
 8006dd4:	4770      	bx	lr
 8006dd6:	2c3e      	cmp	r4, #62	; 0x3e
 8006dd8:	d809      	bhi.n	8006dee <USB_ActivateEndpoint+0x1a2>
 8006dda:	0865      	lsrs	r5, r4, #1
 8006ddc:	f014 0f01 	tst.w	r4, #1
 8006de0:	d000      	beq.n	8006de4 <USB_ActivateEndpoint+0x198>
 8006de2:	3501      	adds	r5, #1
 8006de4:	02ad      	lsls	r5, r5, #10
 8006de6:	b2ad      	uxth	r5, r5
 8006de8:	f8a2 540c 	strh.w	r5, [r2, #1036]	; 0x40c
 8006dec:	e7ce      	b.n	8006d8c <USB_ActivateEndpoint+0x140>
 8006dee:	0965      	lsrs	r5, r4, #5
 8006df0:	f014 0f1f 	tst.w	r4, #31
 8006df4:	d100      	bne.n	8006df8 <USB_ActivateEndpoint+0x1ac>
 8006df6:	3d01      	subs	r5, #1
 8006df8:	ea6f 64c5 	mvn.w	r4, r5, lsl #27
 8006dfc:	ea6f 4454 	mvn.w	r4, r4, lsr #17
 8006e00:	b2a4      	uxth	r4, r4
 8006e02:	f8a2 440c 	strh.w	r4, [r2, #1036]	; 0x40c
 8006e06:	e7c1      	b.n	8006d8c <USB_ActivateEndpoint+0x140>
 8006e08:	780c      	ldrb	r4, [r1, #0]
 8006e0a:	f833 2024 	ldrh.w	r2, [r3, r4, lsl #2]
 8006e0e:	b292      	uxth	r2, r2
 8006e10:	f422 42e0 	bic.w	r2, r2, #28672	; 0x7000
 8006e14:	f022 0270 	bic.w	r2, r2, #112	; 0x70
 8006e18:	f442 4201 	orr.w	r2, r2, #33024	; 0x8100
 8006e1c:	f042 0280 	orr.w	r2, r2, #128	; 0x80
 8006e20:	f823 2024 	strh.w	r2, [r3, r4, lsl #2]
 8006e24:	f8b3 2050 	ldrh.w	r2, [r3, #80]	; 0x50
 8006e28:	b292      	uxth	r2, r2
 8006e2a:	441a      	add	r2, r3
 8006e2c:	780c      	ldrb	r4, [r1, #0]
 8006e2e:	eb02 1204 	add.w	r2, r2, r4, lsl #4
 8006e32:	890c      	ldrh	r4, [r1, #8]
 8006e34:	0864      	lsrs	r4, r4, #1
 8006e36:	0064      	lsls	r4, r4, #1
 8006e38:	f8a2 4400 	strh.w	r4, [r2, #1024]	; 0x400
 8006e3c:	f8b3 2050 	ldrh.w	r2, [r3, #80]	; 0x50
 8006e40:	b292      	uxth	r2, r2
 8006e42:	441a      	add	r2, r3
 8006e44:	780c      	ldrb	r4, [r1, #0]
 8006e46:	eb02 1204 	add.w	r2, r2, r4, lsl #4
 8006e4a:	894c      	ldrh	r4, [r1, #10]
 8006e4c:	0864      	lsrs	r4, r4, #1
 8006e4e:	0064      	lsls	r4, r4, #1
 8006e50:	f8a2 4408 	strh.w	r4, [r2, #1032]	; 0x408
 8006e54:	784a      	ldrb	r2, [r1, #1]
 8006e56:	2a00      	cmp	r2, #0
 8006e58:	d140      	bne.n	8006edc <USB_ActivateEndpoint+0x290>
 8006e5a:	780c      	ldrb	r4, [r1, #0]
 8006e5c:	f833 2024 	ldrh.w	r2, [r3, r4, lsl #2]
 8006e60:	f412 4f80 	tst.w	r2, #16384	; 0x4000
 8006e64:	d00c      	beq.n	8006e80 <USB_ActivateEndpoint+0x234>
 8006e66:	f833 2024 	ldrh.w	r2, [r3, r4, lsl #2]
 8006e6a:	b292      	uxth	r2, r2
 8006e6c:	f422 42e0 	bic.w	r2, r2, #28672	; 0x7000
 8006e70:	f022 0270 	bic.w	r2, r2, #112	; 0x70
 8006e74:	f442 4240 	orr.w	r2, r2, #49152	; 0xc000
 8006e78:	f042 0280 	orr.w	r2, r2, #128	; 0x80
 8006e7c:	f823 2024 	strh.w	r2, [r3, r4, lsl #2]
 8006e80:	780c      	ldrb	r4, [r1, #0]
 8006e82:	f833 2024 	ldrh.w	r2, [r3, r4, lsl #2]
 8006e86:	f012 0f40 	tst.w	r2, #64	; 0x40
 8006e8a:	d00c      	beq.n	8006ea6 <USB_ActivateEndpoint+0x25a>
 8006e8c:	f833 2024 	ldrh.w	r2, [r3, r4, lsl #2]
 8006e90:	b292      	uxth	r2, r2
 8006e92:	f422 42e0 	bic.w	r2, r2, #28672	; 0x7000
 8006e96:	f022 0270 	bic.w	r2, r2, #112	; 0x70
 8006e9a:	f442 4200 	orr.w	r2, r2, #32768	; 0x8000
 8006e9e:	f042 02c0 	orr.w	r2, r2, #192	; 0xc0
 8006ea2:	f823 2024 	strh.w	r2, [r3, r4, lsl #2]
 8006ea6:	780d      	ldrb	r5, [r1, #0]
 8006ea8:	f833 2025 	ldrh.w	r2, [r3, r5, lsl #2]
 8006eac:	b292      	uxth	r2, r2
 8006eae:	f422 4280 	bic.w	r2, r2, #16384	; 0x4000
 8006eb2:	f022 0270 	bic.w	r2, r2, #112	; 0x70
 8006eb6:	f482 5240 	eor.w	r2, r2, #12288	; 0x3000
 8006eba:	f248 0480 	movw	r4, #32896	; 0x8080
 8006ebe:	4322      	orrs	r2, r4
 8006ec0:	f823 2025 	strh.w	r2, [r3, r5, lsl #2]
 8006ec4:	7809      	ldrb	r1, [r1, #0]
 8006ec6:	f833 2021 	ldrh.w	r2, [r3, r1, lsl #2]
 8006eca:	b292      	uxth	r2, r2
 8006ecc:	f422 42e0 	bic.w	r2, r2, #28672	; 0x7000
 8006ed0:	f022 0240 	bic.w	r2, r2, #64	; 0x40
 8006ed4:	4322      	orrs	r2, r4
 8006ed6:	f823 2021 	strh.w	r2, [r3, r1, lsl #2]
 8006eda:	e77a      	b.n	8006dd2 <USB_ActivateEndpoint+0x186>
 8006edc:	780c      	ldrb	r4, [r1, #0]
 8006ede:	f833 2024 	ldrh.w	r2, [r3, r4, lsl #2]
 8006ee2:	f412 4f80 	tst.w	r2, #16384	; 0x4000
 8006ee6:	d00c      	beq.n	8006f02 <USB_ActivateEndpoint+0x2b6>
 8006ee8:	f833 2024 	ldrh.w	r2, [r3, r4, lsl #2]
 8006eec:	b292      	uxth	r2, r2
 8006eee:	f422 42e0 	bic.w	r2, r2, #28672	; 0x7000
 8006ef2:	f022 0270 	bic.w	r2, r2, #112	; 0x70
 8006ef6:	f442 4240 	orr.w	r2, r2, #49152	; 0xc000
 8006efa:	f042 0280 	orr.w	r2, r2, #128	; 0x80
 8006efe:	f823 2024 	strh.w	r2, [r3, r4, lsl #2]
 8006f02:	780c      	ldrb	r4, [r1, #0]
 8006f04:	f833 2024 	ldrh.w	r2, [r3, r4, lsl #2]
 8006f08:	f012 0f40 	tst.w	r2, #64	; 0x40
 8006f0c:	d00c      	beq.n	8006f28 <USB_ActivateEndpoint+0x2dc>
 8006f0e:	f833 2024 	ldrh.w	r2, [r3, r4, lsl #2]
 8006f12:	b292      	uxth	r2, r2
 8006f14:	f422 42e0 	bic.w	r2, r2, #28672	; 0x7000
 8006f18:	f022 0270 	bic.w	r2, r2, #112	; 0x70
 8006f1c:	f442 4200 	orr.w	r2, r2, #32768	; 0x8000
 8006f20:	f042 02c0 	orr.w	r2, r2, #192	; 0xc0
 8006f24:	f823 2024 	strh.w	r2, [r3, r4, lsl #2]
 8006f28:	78ca      	ldrb	r2, [r1, #3]
 8006f2a:	2a01      	cmp	r2, #1
 8006f2c:	d01e      	beq.n	8006f6c <USB_ActivateEndpoint+0x320>
 8006f2e:	780c      	ldrb	r4, [r1, #0]
 8006f30:	f833 2024 	ldrh.w	r2, [r3, r4, lsl #2]
 8006f34:	b292      	uxth	r2, r2
 8006f36:	f422 42e0 	bic.w	r2, r2, #28672	; 0x7000
 8006f3a:	f022 0240 	bic.w	r2, r2, #64	; 0x40
 8006f3e:	f082 0220 	eor.w	r2, r2, #32
 8006f42:	f442 4200 	orr.w	r2, r2, #32768	; 0x8000
 8006f46:	f042 0280 	orr.w	r2, r2, #128	; 0x80
 8006f4a:	f823 2024 	strh.w	r2, [r3, r4, lsl #2]
 8006f4e:	7809      	ldrb	r1, [r1, #0]
 8006f50:	f833 2021 	ldrh.w	r2, [r3, r1, lsl #2]
 8006f54:	b292      	uxth	r2, r2
 8006f56:	f422 4280 	bic.w	r2, r2, #16384	; 0x4000
 8006f5a:	f022 0270 	bic.w	r2, r2, #112	; 0x70
 8006f5e:	f442 4200 	orr.w	r2, r2, #32768	; 0x8000
 8006f62:	f042 0280 	orr.w	r2, r2, #128	; 0x80
 8006f66:	f823 2021 	strh.w	r2, [r3, r1, lsl #2]
 8006f6a:	e732      	b.n	8006dd2 <USB_ActivateEndpoint+0x186>
 8006f6c:	780c      	ldrb	r4, [r1, #0]
 8006f6e:	f833 2024 	ldrh.w	r2, [r3, r4, lsl #2]
 8006f72:	b292      	uxth	r2, r2
 8006f74:	f422 42e0 	bic.w	r2, r2, #28672	; 0x7000
 8006f78:	f022 0240 	bic.w	r2, r2, #64	; 0x40
 8006f7c:	f442 4200 	orr.w	r2, r2, #32768	; 0x8000
 8006f80:	f042 0280 	orr.w	r2, r2, #128	; 0x80
 8006f84:	f823 2024 	strh.w	r2, [r3, r4, lsl #2]
 8006f88:	e7e1      	b.n	8006f4e <USB_ActivateEndpoint+0x302>

08006f8a <USB_DeactivateEndpoint>:
 8006f8a:	7b0b      	ldrb	r3, [r1, #12]
 8006f8c:	2b00      	cmp	r3, #0
 8006f8e:	d146      	bne.n	800701e <USB_DeactivateEndpoint+0x94>
 8006f90:	784b      	ldrb	r3, [r1, #1]
 8006f92:	b313      	cbz	r3, 8006fda <USB_DeactivateEndpoint+0x50>
 8006f94:	780a      	ldrb	r2, [r1, #0]
 8006f96:	f830 3022 	ldrh.w	r3, [r0, r2, lsl #2]
 8006f9a:	f013 0f40 	tst.w	r3, #64	; 0x40
 8006f9e:	d00c      	beq.n	8006fba <USB_DeactivateEndpoint+0x30>
 8006fa0:	f830 3022 	ldrh.w	r3, [r0, r2, lsl #2]
 8006fa4:	b29b      	uxth	r3, r3
 8006fa6:	f423 43e0 	bic.w	r3, r3, #28672	; 0x7000
 8006faa:	f023 0370 	bic.w	r3, r3, #112	; 0x70
 8006fae:	f443 4300 	orr.w	r3, r3, #32768	; 0x8000
 8006fb2:	f043 03c0 	orr.w	r3, r3, #192	; 0xc0
 8006fb6:	f820 3022 	strh.w	r3, [r0, r2, lsl #2]
 8006fba:	780a      	ldrb	r2, [r1, #0]
 8006fbc:	f830 3022 	ldrh.w	r3, [r0, r2, lsl #2]
 8006fc0:	b29b      	uxth	r3, r3
 8006fc2:	f423 43e0 	bic.w	r3, r3, #28672	; 0x7000
 8006fc6:	f023 0340 	bic.w	r3, r3, #64	; 0x40
 8006fca:	f443 4300 	orr.w	r3, r3, #32768	; 0x8000
 8006fce:	f043 0380 	orr.w	r3, r3, #128	; 0x80
 8006fd2:	f820 3022 	strh.w	r3, [r0, r2, lsl #2]
 8006fd6:	2000      	movs	r0, #0
 8006fd8:	4770      	bx	lr
 8006fda:	780a      	ldrb	r2, [r1, #0]
 8006fdc:	f830 3022 	ldrh.w	r3, [r0, r2, lsl #2]
 8006fe0:	f413 4f80 	tst.w	r3, #16384	; 0x4000
 8006fe4:	d00c      	beq.n	8007000 <USB_DeactivateEndpoint+0x76>
 8006fe6:	f830 3022 	ldrh.w	r3, [r0, r2, lsl #2]
 8006fea:	b29b      	uxth	r3, r3
 8006fec:	f423 43e0 	bic.w	r3, r3, #28672	; 0x7000
 8006ff0:	f023 0370 	bic.w	r3, r3, #112	; 0x70
 8006ff4:	f443 4340 	orr.w	r3, r3, #49152	; 0xc000
 8006ff8:	f043 0380 	orr.w	r3, r3, #128	; 0x80
 8006ffc:	f820 3022 	strh.w	r3, [r0, r2, lsl #2]
 8007000:	780a      	ldrb	r2, [r1, #0]
 8007002:	f830 3022 	ldrh.w	r3, [r0, r2, lsl #2]
 8007006:	b29b      	uxth	r3, r3
 8007008:	f423 4380 	bic.w	r3, r3, #16384	; 0x4000
 800700c:	f023 0370 	bic.w	r3, r3, #112	; 0x70
 8007010:	f443 4300 	orr.w	r3, r3, #32768	; 0x8000
 8007014:	f043 0380 	orr.w	r3, r3, #128	; 0x80
 8007018:	f820 3022 	strh.w	r3, [r0, r2, lsl #2]
 800701c:	e7db      	b.n	8006fd6 <USB_DeactivateEndpoint+0x4c>
 800701e:	b410      	push	{r4}
 8007020:	784b      	ldrb	r3, [r1, #1]
 8007022:	2b00      	cmp	r3, #0
 8007024:	d14e      	bne.n	80070c4 <USB_DeactivateEndpoint+0x13a>
 8007026:	780a      	ldrb	r2, [r1, #0]
 8007028:	f830 3022 	ldrh.w	r3, [r0, r2, lsl #2]
 800702c:	f413 4f80 	tst.w	r3, #16384	; 0x4000
 8007030:	d00c      	beq.n	800704c <USB_DeactivateEndpoint+0xc2>
 8007032:	f830 3022 	ldrh.w	r3, [r0, r2, lsl #2]
 8007036:	b29b      	uxth	r3, r3
 8007038:	f423 43e0 	bic.w	r3, r3, #28672	; 0x7000
 800703c:	f023 0370 	bic.w	r3, r3, #112	; 0x70
 8007040:	f443 4340 	orr.w	r3, r3, #49152	; 0xc000
 8007044:	f043 0380 	orr.w	r3, r3, #128	; 0x80
 8007048:	f820 3022 	strh.w	r3, [r0, r2, lsl #2]
 800704c:	780a      	ldrb	r2, [r1, #0]
 800704e:	f830 3022 	ldrh.w	r3, [r0, r2, lsl #2]
 8007052:	f013 0f40 	tst.w	r3, #64	; 0x40
 8007056:	d00c      	beq.n	8007072 <USB_DeactivateEndpoint+0xe8>
 8007058:	f830 3022 	ldrh.w	r3, [r0, r2, lsl #2]
 800705c:	b29b      	uxth	r3, r3
 800705e:	f423 43e0 	bic.w	r3, r3, #28672	; 0x7000
 8007062:	f023 0370 	bic.w	r3, r3, #112	; 0x70
 8007066:	f443 4300 	orr.w	r3, r3, #32768	; 0x8000
 800706a:	f043 03c0 	orr.w	r3, r3, #192	; 0xc0
 800706e:	f820 3022 	strh.w	r3, [r0, r2, lsl #2]
 8007072:	780a      	ldrb	r2, [r1, #0]
 8007074:	f830 3022 	ldrh.w	r3, [r0, r2, lsl #2]
 8007078:	b29b      	uxth	r3, r3
 800707a:	f423 43e0 	bic.w	r3, r3, #28672	; 0x7000
 800707e:	f023 0370 	bic.w	r3, r3, #112	; 0x70
 8007082:	f443 4300 	orr.w	r3, r3, #32768	; 0x8000
 8007086:	f043 03c0 	orr.w	r3, r3, #192	; 0xc0
 800708a:	f820 3022 	strh.w	r3, [r0, r2, lsl #2]
 800708e:	780b      	ldrb	r3, [r1, #0]
 8007090:	f830 2023 	ldrh.w	r2, [r0, r3, lsl #2]
 8007094:	b292      	uxth	r2, r2
 8007096:	f422 4280 	bic.w	r2, r2, #16384	; 0x4000
 800709a:	f022 0270 	bic.w	r2, r2, #112	; 0x70
 800709e:	f248 0480 	movw	r4, #32896	; 0x8080
 80070a2:	4322      	orrs	r2, r4
 80070a4:	f820 2023 	strh.w	r2, [r0, r3, lsl #2]
 80070a8:	780a      	ldrb	r2, [r1, #0]
 80070aa:	f830 3022 	ldrh.w	r3, [r0, r2, lsl #2]
 80070ae:	b29b      	uxth	r3, r3
 80070b0:	f423 43e0 	bic.w	r3, r3, #28672	; 0x7000
 80070b4:	f023 0340 	bic.w	r3, r3, #64	; 0x40
 80070b8:	4323      	orrs	r3, r4
 80070ba:	f820 3022 	strh.w	r3, [r0, r2, lsl #2]
 80070be:	2000      	movs	r0, #0
 80070c0:	bc10      	pop	{r4}
 80070c2:	4770      	bx	lr
 80070c4:	780a      	ldrb	r2, [r1, #0]
 80070c6:	f830 3022 	ldrh.w	r3, [r0, r2, lsl #2]
 80070ca:	f413 4f80 	tst.w	r3, #16384	; 0x4000
 80070ce:	d00c      	beq.n	80070ea <USB_DeactivateEndpoint+0x160>
 80070d0:	f830 3022 	ldrh.w	r3, [r0, r2, lsl #2]
 80070d4:	b29b      	uxth	r3, r3
 80070d6:	f423 43e0 	bic.w	r3, r3, #28672	; 0x7000
 80070da:	f023 0370 	bic.w	r3, r3, #112	; 0x70
 80070de:	f443 4340 	orr.w	r3, r3, #49152	; 0xc000
 80070e2:	f043 0380 	orr.w	r3, r3, #128	; 0x80
 80070e6:	f820 3022 	strh.w	r3, [r0, r2, lsl #2]
 80070ea:	780a      	ldrb	r2, [r1, #0]
 80070ec:	f830 3022 	ldrh.w	r3, [r0, r2, lsl #2]
 80070f0:	f013 0f40 	tst.w	r3, #64	; 0x40
 80070f4:	d00c      	beq.n	8007110 <USB_DeactivateEndpoint+0x186>
 80070f6:	f830 3022 	ldrh.w	r3, [r0, r2, lsl #2]
 80070fa:	b29b      	uxth	r3, r3
 80070fc:	f423 43e0 	bic.w	r3, r3, #28672	; 0x7000
 8007100:	f023 0370 	bic.w	r3, r3, #112	; 0x70
 8007104:	f443 4300 	orr.w	r3, r3, #32768	; 0x8000
 8007108:	f043 03c0 	orr.w	r3, r3, #192	; 0xc0
 800710c:	f820 3022 	strh.w	r3, [r0, r2, lsl #2]
 8007110:	780a      	ldrb	r2, [r1, #0]
 8007112:	f830 3022 	ldrh.w	r3, [r0, r2, lsl #2]
 8007116:	b29b      	uxth	r3, r3
 8007118:	f423 43e0 	bic.w	r3, r3, #28672	; 0x7000
 800711c:	f023 0370 	bic.w	r3, r3, #112	; 0x70
 8007120:	f443 4340 	orr.w	r3, r3, #49152	; 0xc000
 8007124:	f043 0380 	orr.w	r3, r3, #128	; 0x80
 8007128:	f820 3022 	strh.w	r3, [r0, r2, lsl #2]
 800712c:	780b      	ldrb	r3, [r1, #0]
 800712e:	f830 2023 	ldrh.w	r2, [r0, r3, lsl #2]
 8007132:	b292      	uxth	r2, r2
 8007134:	f422 42e0 	bic.w	r2, r2, #28672	; 0x7000
 8007138:	f022 0240 	bic.w	r2, r2, #64	; 0x40
 800713c:	f248 0480 	movw	r4, #32896	; 0x8080
 8007140:	4322      	orrs	r2, r4
 8007142:	f820 2023 	strh.w	r2, [r0, r3, lsl #2]
 8007146:	780a      	ldrb	r2, [r1, #0]
 8007148:	f830 3022 	ldrh.w	r3, [r0, r2, lsl #2]
 800714c:	b29b      	uxth	r3, r3
 800714e:	f423 4380 	bic.w	r3, r3, #16384	; 0x4000
 8007152:	f023 0370 	bic.w	r3, r3, #112	; 0x70
 8007156:	4323      	orrs	r3, r4
 8007158:	f820 3022 	strh.w	r3, [r0, r2, lsl #2]
 800715c:	e7af      	b.n	80070be <USB_DeactivateEndpoint+0x134>

0800715e <USB_EPSetStall>:
 800715e:	784b      	ldrb	r3, [r1, #1]
 8007160:	b18b      	cbz	r3, 8007186 <USB_EPSetStall+0x28>
 8007162:	780a      	ldrb	r2, [r1, #0]
 8007164:	f830 3022 	ldrh.w	r3, [r0, r2, lsl #2]
 8007168:	b29b      	uxth	r3, r3
 800716a:	f423 43e0 	bic.w	r3, r3, #28672	; 0x7000
 800716e:	f023 0340 	bic.w	r3, r3, #64	; 0x40
 8007172:	f083 0310 	eor.w	r3, r3, #16
 8007176:	f443 4300 	orr.w	r3, r3, #32768	; 0x8000
 800717a:	f043 0380 	orr.w	r3, r3, #128	; 0x80
 800717e:	f820 3022 	strh.w	r3, [r0, r2, lsl #2]
 8007182:	2000      	movs	r0, #0
 8007184:	4770      	bx	lr
 8007186:	780a      	ldrb	r2, [r1, #0]
 8007188:	f830 3022 	ldrh.w	r3, [r0, r2, lsl #2]
 800718c:	b29b      	uxth	r3, r3
 800718e:	f423 4380 	bic.w	r3, r3, #16384	; 0x4000
 8007192:	f023 0370 	bic.w	r3, r3, #112	; 0x70
 8007196:	f483 5380 	eor.w	r3, r3, #4096	; 0x1000
 800719a:	f443 4300 	orr.w	r3, r3, #32768	; 0x8000
 800719e:	f043 0380 	orr.w	r3, r3, #128	; 0x80
 80071a2:	f820 3022 	strh.w	r3, [r0, r2, lsl #2]
 80071a6:	e7ec      	b.n	8007182 <USB_EPSetStall+0x24>

080071a8 <USB_EPClearStall>:
 80071a8:	7b0b      	ldrb	r3, [r1, #12]
 80071aa:	2b00      	cmp	r3, #0
 80071ac:	d14b      	bne.n	8007246 <USB_EPClearStall+0x9e>
 80071ae:	784b      	ldrb	r3, [r1, #1]
 80071b0:	b333      	cbz	r3, 8007200 <USB_EPClearStall+0x58>
 80071b2:	780a      	ldrb	r2, [r1, #0]
 80071b4:	f830 3022 	ldrh.w	r3, [r0, r2, lsl #2]
 80071b8:	f013 0f40 	tst.w	r3, #64	; 0x40
 80071bc:	d00c      	beq.n	80071d8 <USB_EPClearStall+0x30>
 80071be:	f830 3022 	ldrh.w	r3, [r0, r2, lsl #2]
 80071c2:	b29b      	uxth	r3, r3
 80071c4:	f423 43e0 	bic.w	r3, r3, #28672	; 0x7000
 80071c8:	f023 0370 	bic.w	r3, r3, #112	; 0x70
 80071cc:	f443 4300 	orr.w	r3, r3, #32768	; 0x8000
 80071d0:	f043 03c0 	orr.w	r3, r3, #192	; 0xc0
 80071d4:	f820 3022 	strh.w	r3, [r0, r2, lsl #2]
 80071d8:	78cb      	ldrb	r3, [r1, #3]
 80071da:	2b01      	cmp	r3, #1
 80071dc:	d033      	beq.n	8007246 <USB_EPClearStall+0x9e>
 80071de:	780a      	ldrb	r2, [r1, #0]
 80071e0:	f830 3022 	ldrh.w	r3, [r0, r2, lsl #2]
 80071e4:	b29b      	uxth	r3, r3
 80071e6:	f423 43e0 	bic.w	r3, r3, #28672	; 0x7000
 80071ea:	f023 0340 	bic.w	r3, r3, #64	; 0x40
 80071ee:	f083 0320 	eor.w	r3, r3, #32
 80071f2:	f443 4300 	orr.w	r3, r3, #32768	; 0x8000
 80071f6:	f043 0380 	orr.w	r3, r3, #128	; 0x80
 80071fa:	f820 3022 	strh.w	r3, [r0, r2, lsl #2]
 80071fe:	e022      	b.n	8007246 <USB_EPClearStall+0x9e>
 8007200:	780a      	ldrb	r2, [r1, #0]
 8007202:	f830 3022 	ldrh.w	r3, [r0, r2, lsl #2]
 8007206:	f413 4f80 	tst.w	r3, #16384	; 0x4000
 800720a:	d00c      	beq.n	8007226 <USB_EPClearStall+0x7e>
 800720c:	f830 3022 	ldrh.w	r3, [r0, r2, lsl #2]
 8007210:	b29b      	uxth	r3, r3
 8007212:	f423 43e0 	bic.w	r3, r3, #28672	; 0x7000
 8007216:	f023 0370 	bic.w	r3, r3, #112	; 0x70
 800721a:	f443 4340 	orr.w	r3, r3, #49152	; 0xc000
 800721e:	f043 0380 	orr.w	r3, r3, #128	; 0x80
 8007222:	f820 3022 	strh.w	r3, [r0, r2, lsl #2]
 8007226:	780a      	ldrb	r2, [r1, #0]
 8007228:	f830 3022 	ldrh.w	r3, [r0, r2, lsl #2]
 800722c:	b29b      	uxth	r3, r3
 800722e:	f423 4380 	bic.w	r3, r3, #16384	; 0x4000
 8007232:	f023 0370 	bic.w	r3, r3, #112	; 0x70
 8007236:	f483 5340 	eor.w	r3, r3, #12288	; 0x3000
 800723a:	f443 4300 	orr.w	r3, r3, #32768	; 0x8000
 800723e:	f043 0380 	orr.w	r3, r3, #128	; 0x80
 8007242:	f820 3022 	strh.w	r3, [r0, r2, lsl #2]
 8007246:	2000      	movs	r0, #0
 8007248:	4770      	bx	lr

0800724a <USB_SetDevAddress>:
 800724a:	b911      	cbnz	r1, 8007252 <USB_SetDevAddress+0x8>
 800724c:	2380      	movs	r3, #128	; 0x80
 800724e:	f8a0 304c 	strh.w	r3, [r0, #76]	; 0x4c
 8007252:	2000      	movs	r0, #0
 8007254:	4770      	bx	lr

08007256 <USB_DevConnect>:
 8007256:	2000      	movs	r0, #0
 8007258:	4770      	bx	lr

0800725a <USB_DevDisconnect>:
 800725a:	2000      	movs	r0, #0
 800725c:	4770      	bx	lr

0800725e <USB_ReadInterrupts>:
 800725e:	f8b0 0044 	ldrh.w	r0, [r0, #68]	; 0x44
 8007262:	b280      	uxth	r0, r0
 8007264:	4770      	bx	lr

08007266 <USB_EP0_OutStart>:
 8007266:	2000      	movs	r0, #0
 8007268:	4770      	bx	lr

0800726a <USB_WritePMA>:
 800726a:	b410      	push	{r4}
 800726c:	1c5c      	adds	r4, r3, #1
 800726e:	0864      	lsrs	r4, r4, #1
 8007270:	eb00 0242 	add.w	r2, r0, r2, lsl #1
 8007274:	f502 6280 	add.w	r2, r2, #1024	; 0x400
 8007278:	b144      	cbz	r4, 800728c <USB_WritePMA+0x22>
 800727a:	780b      	ldrb	r3, [r1, #0]
 800727c:	7848      	ldrb	r0, [r1, #1]
 800727e:	ea43 2300 	orr.w	r3, r3, r0, lsl #8
 8007282:	f822 3b04 	strh.w	r3, [r2], #4
 8007286:	3102      	adds	r1, #2
 8007288:	3c01      	subs	r4, #1
 800728a:	e7f5      	b.n	8007278 <USB_WritePMA+0xe>
 800728c:	bc10      	pop	{r4}
 800728e:	4770      	bx	lr

08007290 <USB_EPStartXfer>:
 8007290:	b570      	push	{r4, r5, r6, lr}
 8007292:	4605      	mov	r5, r0
 8007294:	460c      	mov	r4, r1
 8007296:	784b      	ldrb	r3, [r1, #1]
 8007298:	2b01      	cmp	r3, #1
 800729a:	d037      	beq.n	800730c <USB_EPStartXfer+0x7c>
 800729c:	7b0a      	ldrb	r2, [r1, #12]
 800729e:	2a00      	cmp	r2, #0
 80072a0:	f040 8326 	bne.w	80078f0 <USB_EPStartXfer+0x660>
 80072a4:	698b      	ldr	r3, [r1, #24]
 80072a6:	690a      	ldr	r2, [r1, #16]
 80072a8:	4293      	cmp	r3, r2
 80072aa:	f240 8304 	bls.w	80078b6 <USB_EPStartXfer+0x626>
 80072ae:	1a9b      	subs	r3, r3, r2
 80072b0:	618b      	str	r3, [r1, #24]
 80072b2:	f8b5 3050 	ldrh.w	r3, [r5, #80]	; 0x50
 80072b6:	b29b      	uxth	r3, r3
 80072b8:	442b      	add	r3, r5
 80072ba:	7821      	ldrb	r1, [r4, #0]
 80072bc:	eb03 1301 	add.w	r3, r3, r1, lsl #4
 80072c0:	2a00      	cmp	r2, #0
 80072c2:	f040 82fc 	bne.w	80078be <USB_EPStartXfer+0x62e>
 80072c6:	f8b3 240c 	ldrh.w	r2, [r3, #1036]	; 0x40c
 80072ca:	b292      	uxth	r2, r2
 80072cc:	f422 42f8 	bic.w	r2, r2, #31744	; 0x7c00
 80072d0:	b292      	uxth	r2, r2
 80072d2:	f8a3 240c 	strh.w	r2, [r3, #1036]	; 0x40c
 80072d6:	f8b3 240c 	ldrh.w	r2, [r3, #1036]	; 0x40c
 80072da:	ea6f 4242 	mvn.w	r2, r2, lsl #17
 80072de:	ea6f 4252 	mvn.w	r2, r2, lsr #17
 80072e2:	b292      	uxth	r2, r2
 80072e4:	f8a3 240c 	strh.w	r2, [r3, #1036]	; 0x40c
 80072e8:	7822      	ldrb	r2, [r4, #0]
 80072ea:	f835 3022 	ldrh.w	r3, [r5, r2, lsl #2]
 80072ee:	b29b      	uxth	r3, r3
 80072f0:	f423 4380 	bic.w	r3, r3, #16384	; 0x4000
 80072f4:	f023 0370 	bic.w	r3, r3, #112	; 0x70
 80072f8:	f483 5340 	eor.w	r3, r3, #12288	; 0x3000
 80072fc:	f443 4300 	orr.w	r3, r3, #32768	; 0x8000
 8007300:	f043 0380 	orr.w	r3, r3, #128	; 0x80
 8007304:	f825 3022 	strh.w	r3, [r5, r2, lsl #2]
 8007308:	2000      	movs	r0, #0
 800730a:	bd70      	pop	{r4, r5, r6, pc}
 800730c:	698e      	ldr	r6, [r1, #24]
 800730e:	690a      	ldr	r2, [r1, #16]
 8007310:	4296      	cmp	r6, r2
 8007312:	d900      	bls.n	8007316 <USB_EPStartXfer+0x86>
 8007314:	4616      	mov	r6, r2
 8007316:	7b23      	ldrb	r3, [r4, #12]
 8007318:	2b00      	cmp	r3, #0
 800731a:	d039      	beq.n	8007390 <USB_EPStartXfer+0x100>
 800731c:	78e3      	ldrb	r3, [r4, #3]
 800731e:	2b02      	cmp	r3, #2
 8007320:	d058      	beq.n	80073d4 <USB_EPStartXfer+0x144>
 8007322:	7822      	ldrb	r2, [r4, #0]
 8007324:	f835 3022 	ldrh.w	r3, [r5, r2, lsl #2]
 8007328:	b29b      	uxth	r3, r3
 800732a:	f423 43e0 	bic.w	r3, r3, #28672	; 0x7000
 800732e:	f023 0370 	bic.w	r3, r3, #112	; 0x70
 8007332:	f443 4301 	orr.w	r3, r3, #33024	; 0x8100
 8007336:	f043 0380 	orr.w	r3, r3, #128	; 0x80
 800733a:	f825 3022 	strh.w	r3, [r5, r2, lsl #2]
 800733e:	6a23      	ldr	r3, [r4, #32]
 8007340:	1b9b      	subs	r3, r3, r6
 8007342:	6223      	str	r3, [r4, #32]
 8007344:	7823      	ldrb	r3, [r4, #0]
 8007346:	f835 2023 	ldrh.w	r2, [r5, r3, lsl #2]
 800734a:	f012 0f40 	tst.w	r2, #64	; 0x40
 800734e:	f000 8226 	beq.w	800779e <USB_EPStartXfer+0x50e>
 8007352:	7862      	ldrb	r2, [r4, #1]
 8007354:	2a00      	cmp	r2, #0
 8007356:	f040 81ca 	bne.w	80076ee <USB_EPStartXfer+0x45e>
 800735a:	f8b5 2050 	ldrh.w	r2, [r5, #80]	; 0x50
 800735e:	b292      	uxth	r2, r2
 8007360:	442a      	add	r2, r5
 8007362:	eb02 1303 	add.w	r3, r2, r3, lsl #4
 8007366:	2e00      	cmp	r6, #0
 8007368:	f040 81a8 	bne.w	80076bc <USB_EPStartXfer+0x42c>
 800736c:	f8b3 240c 	ldrh.w	r2, [r3, #1036]	; 0x40c
 8007370:	b292      	uxth	r2, r2
 8007372:	f422 42f8 	bic.w	r2, r2, #31744	; 0x7c00
 8007376:	b292      	uxth	r2, r2
 8007378:	f8a3 240c 	strh.w	r2, [r3, #1036]	; 0x40c
 800737c:	f8b3 240c 	ldrh.w	r2, [r3, #1036]	; 0x40c
 8007380:	ea6f 4242 	mvn.w	r2, r2, lsl #17
 8007384:	ea6f 4252 	mvn.w	r2, r2, lsr #17
 8007388:	b292      	uxth	r2, r2
 800738a:	f8a3 240c 	strh.w	r2, [r3, #1036]	; 0x40c
 800738e:	e1b0      	b.n	80076f2 <USB_EPStartXfer+0x462>
 8007390:	b2b6      	uxth	r6, r6
 8007392:	4633      	mov	r3, r6
 8007394:	88e2      	ldrh	r2, [r4, #6]
 8007396:	6961      	ldr	r1, [r4, #20]
 8007398:	4628      	mov	r0, r5
 800739a:	f7ff ff66 	bl	800726a <USB_WritePMA>
 800739e:	f8b5 3050 	ldrh.w	r3, [r5, #80]	; 0x50
 80073a2:	b29b      	uxth	r3, r3
 80073a4:	442b      	add	r3, r5
 80073a6:	7822      	ldrb	r2, [r4, #0]
 80073a8:	eb03 1302 	add.w	r3, r3, r2, lsl #4
 80073ac:	f8a3 6404 	strh.w	r6, [r3, #1028]	; 0x404
 80073b0:	7822      	ldrb	r2, [r4, #0]
 80073b2:	f835 3022 	ldrh.w	r3, [r5, r2, lsl #2]
 80073b6:	b29b      	uxth	r3, r3
 80073b8:	f423 43e0 	bic.w	r3, r3, #28672	; 0x7000
 80073bc:	f023 0340 	bic.w	r3, r3, #64	; 0x40
 80073c0:	f083 0330 	eor.w	r3, r3, #48	; 0x30
 80073c4:	f443 4300 	orr.w	r3, r3, #32768	; 0x8000
 80073c8:	f043 0380 	orr.w	r3, r3, #128	; 0x80
 80073cc:	f825 3022 	strh.w	r3, [r5, r2, lsl #2]
 80073d0:	2000      	movs	r0, #0
 80073d2:	e79a      	b.n	800730a <USB_EPStartXfer+0x7a>
 80073d4:	6a23      	ldr	r3, [r4, #32]
 80073d6:	429a      	cmp	r2, r3
 80073d8:	f080 8152 	bcs.w	8007680 <USB_EPStartXfer+0x3f0>
 80073dc:	7822      	ldrb	r2, [r4, #0]
 80073de:	f835 3022 	ldrh.w	r3, [r5, r2, lsl #2]
 80073e2:	b29b      	uxth	r3, r3
 80073e4:	f423 43e0 	bic.w	r3, r3, #28672	; 0x7000
 80073e8:	f023 0370 	bic.w	r3, r3, #112	; 0x70
 80073ec:	f443 4301 	orr.w	r3, r3, #33024	; 0x8100
 80073f0:	f043 0380 	orr.w	r3, r3, #128	; 0x80
 80073f4:	f825 3022 	strh.w	r3, [r5, r2, lsl #2]
 80073f8:	6a23      	ldr	r3, [r4, #32]
 80073fa:	1b9b      	subs	r3, r3, r6
 80073fc:	6223      	str	r3, [r4, #32]
 80073fe:	7823      	ldrb	r3, [r4, #0]
 8007400:	f835 2023 	ldrh.w	r2, [r5, r3, lsl #2]
 8007404:	f012 0f40 	tst.w	r2, #64	; 0x40
 8007408:	f000 809d 	beq.w	8007546 <USB_EPStartXfer+0x2b6>
 800740c:	7862      	ldrb	r2, [r4, #1]
 800740e:	bb8a      	cbnz	r2, 8007474 <USB_EPStartXfer+0x1e4>
 8007410:	f8b5 2050 	ldrh.w	r2, [r5, #80]	; 0x50
 8007414:	b292      	uxth	r2, r2
 8007416:	442a      	add	r2, r5
 8007418:	eb02 1303 	add.w	r3, r2, r3, lsl #4
 800741c:	b98e      	cbnz	r6, 8007442 <USB_EPStartXfer+0x1b2>
 800741e:	f8b3 240c 	ldrh.w	r2, [r3, #1036]	; 0x40c
 8007422:	b292      	uxth	r2, r2
 8007424:	f422 42f8 	bic.w	r2, r2, #31744	; 0x7c00
 8007428:	b292      	uxth	r2, r2
 800742a:	f8a3 240c 	strh.w	r2, [r3, #1036]	; 0x40c
 800742e:	f8b3 240c 	ldrh.w	r2, [r3, #1036]	; 0x40c
 8007432:	ea6f 4242 	mvn.w	r2, r2, lsl #17
 8007436:	ea6f 4252 	mvn.w	r2, r2, lsr #17
 800743a:	b292      	uxth	r2, r2
 800743c:	f8a3 240c 	strh.w	r2, [r3, #1036]	; 0x40c
 8007440:	e01a      	b.n	8007478 <USB_EPStartXfer+0x1e8>
 8007442:	2e3e      	cmp	r6, #62	; 0x3e
 8007444:	d809      	bhi.n	800745a <USB_EPStartXfer+0x1ca>
 8007446:	0872      	lsrs	r2, r6, #1
 8007448:	f016 0f01 	tst.w	r6, #1
 800744c:	d000      	beq.n	8007450 <USB_EPStartXfer+0x1c0>
 800744e:	3201      	adds	r2, #1
 8007450:	0292      	lsls	r2, r2, #10
 8007452:	b292      	uxth	r2, r2
 8007454:	f8a3 240c 	strh.w	r2, [r3, #1036]	; 0x40c
 8007458:	e00e      	b.n	8007478 <USB_EPStartXfer+0x1e8>
 800745a:	0972      	lsrs	r2, r6, #5
 800745c:	f016 0f1f 	tst.w	r6, #31
 8007460:	d100      	bne.n	8007464 <USB_EPStartXfer+0x1d4>
 8007462:	3a01      	subs	r2, #1
 8007464:	ea6f 62c2 	mvn.w	r2, r2, lsl #27
 8007468:	ea6f 4252 	mvn.w	r2, r2, lsr #17
 800746c:	b292      	uxth	r2, r2
 800746e:	f8a3 240c 	strh.w	r2, [r3, #1036]	; 0x40c
 8007472:	e001      	b.n	8007478 <USB_EPStartXfer+0x1e8>
 8007474:	2a01      	cmp	r2, #1
 8007476:	d02b      	beq.n	80074d0 <USB_EPStartXfer+0x240>
 8007478:	b2b3      	uxth	r3, r6
 800747a:	8962      	ldrh	r2, [r4, #10]
 800747c:	6961      	ldr	r1, [r4, #20]
 800747e:	4628      	mov	r0, r5
 8007480:	f7ff fef3 	bl	800726a <USB_WritePMA>
 8007484:	6963      	ldr	r3, [r4, #20]
 8007486:	4433      	add	r3, r6
 8007488:	6163      	str	r3, [r4, #20]
 800748a:	6a23      	ldr	r3, [r4, #32]
 800748c:	6922      	ldr	r2, [r4, #16]
 800748e:	4293      	cmp	r3, r2
 8007490:	d928      	bls.n	80074e4 <USB_EPStartXfer+0x254>
 8007492:	1b9b      	subs	r3, r3, r6
 8007494:	6223      	str	r3, [r4, #32]
 8007496:	7863      	ldrb	r3, [r4, #1]
 8007498:	2b00      	cmp	r3, #0
 800749a:	d140      	bne.n	800751e <USB_EPStartXfer+0x28e>
 800749c:	f8b5 3050 	ldrh.w	r3, [r5, #80]	; 0x50
 80074a0:	b29b      	uxth	r3, r3
 80074a2:	442b      	add	r3, r5
 80074a4:	7822      	ldrb	r2, [r4, #0]
 80074a6:	eb03 1302 	add.w	r3, r3, r2, lsl #4
 80074aa:	b9fe      	cbnz	r6, 80074ec <USB_EPStartXfer+0x25c>
 80074ac:	f8b3 2404 	ldrh.w	r2, [r3, #1028]	; 0x404
 80074b0:	b292      	uxth	r2, r2
 80074b2:	f422 42f8 	bic.w	r2, r2, #31744	; 0x7c00
 80074b6:	b292      	uxth	r2, r2
 80074b8:	f8a3 2404 	strh.w	r2, [r3, #1028]	; 0x404
 80074bc:	f8b3 2404 	ldrh.w	r2, [r3, #1028]	; 0x404
 80074c0:	ea6f 4242 	mvn.w	r2, r2, lsl #17
 80074c4:	ea6f 4252 	mvn.w	r2, r2, lsr #17
 80074c8:	b292      	uxth	r2, r2
 80074ca:	f8a3 2404 	strh.w	r2, [r3, #1028]	; 0x404
 80074ce:	e028      	b.n	8007522 <USB_EPStartXfer+0x292>
 80074d0:	f8b5 2050 	ldrh.w	r2, [r5, #80]	; 0x50
 80074d4:	b292      	uxth	r2, r2
 80074d6:	442a      	add	r2, r5
 80074d8:	eb02 1303 	add.w	r3, r2, r3, lsl #4
 80074dc:	b2b2      	uxth	r2, r6
 80074de:	f8a3 240c 	strh.w	r2, [r3, #1036]	; 0x40c
 80074e2:	e7c9      	b.n	8007478 <USB_EPStartXfer+0x1e8>
 80074e4:	2200      	movs	r2, #0
 80074e6:	6222      	str	r2, [r4, #32]
 80074e8:	461e      	mov	r6, r3
 80074ea:	e7d4      	b.n	8007496 <USB_EPStartXfer+0x206>
 80074ec:	2e3e      	cmp	r6, #62	; 0x3e
 80074ee:	d809      	bhi.n	8007504 <USB_EPStartXfer+0x274>
 80074f0:	0872      	lsrs	r2, r6, #1
 80074f2:	f016 0f01 	tst.w	r6, #1
 80074f6:	d000      	beq.n	80074fa <USB_EPStartXfer+0x26a>
 80074f8:	3201      	adds	r2, #1
 80074fa:	0292      	lsls	r2, r2, #10
 80074fc:	b292      	uxth	r2, r2
 80074fe:	f8a3 2404 	strh.w	r2, [r3, #1028]	; 0x404
 8007502:	e00e      	b.n	8007522 <USB_EPStartXfer+0x292>
 8007504:	0972      	lsrs	r2, r6, #5
 8007506:	f016 0f1f 	tst.w	r6, #31
 800750a:	d100      	bne.n	800750e <USB_EPStartXfer+0x27e>
 800750c:	3a01      	subs	r2, #1
 800750e:	ea6f 62c2 	mvn.w	r2, r2, lsl #27
 8007512:	ea6f 4252 	mvn.w	r2, r2, lsr #17
 8007516:	b292      	uxth	r2, r2
 8007518:	f8a3 2404 	strh.w	r2, [r3, #1028]	; 0x404
 800751c:	e001      	b.n	8007522 <USB_EPStartXfer+0x292>
 800751e:	2b01      	cmp	r3, #1
 8007520:	d006      	beq.n	8007530 <USB_EPStartXfer+0x2a0>
 8007522:	b2b3      	uxth	r3, r6
 8007524:	8922      	ldrh	r2, [r4, #8]
 8007526:	6961      	ldr	r1, [r4, #20]
 8007528:	4628      	mov	r0, r5
 800752a:	f7ff fe9e 	bl	800726a <USB_WritePMA>
 800752e:	e73f      	b.n	80073b0 <USB_EPStartXfer+0x120>
 8007530:	f8b5 3050 	ldrh.w	r3, [r5, #80]	; 0x50
 8007534:	b29b      	uxth	r3, r3
 8007536:	442b      	add	r3, r5
 8007538:	7822      	ldrb	r2, [r4, #0]
 800753a:	eb03 1302 	add.w	r3, r3, r2, lsl #4
 800753e:	b2b2      	uxth	r2, r6
 8007540:	f8a3 2404 	strh.w	r2, [r3, #1028]	; 0x404
 8007544:	e7ed      	b.n	8007522 <USB_EPStartXfer+0x292>
 8007546:	7862      	ldrb	r2, [r4, #1]
 8007548:	bb8a      	cbnz	r2, 80075ae <USB_EPStartXfer+0x31e>
 800754a:	f8b5 2050 	ldrh.w	r2, [r5, #80]	; 0x50
 800754e:	b292      	uxth	r2, r2
 8007550:	442a      	add	r2, r5
 8007552:	eb02 1303 	add.w	r3, r2, r3, lsl #4
 8007556:	b98e      	cbnz	r6, 800757c <USB_EPStartXfer+0x2ec>
 8007558:	f8b3 2404 	ldrh.w	r2, [r3, #1028]	; 0x404
 800755c:	b292      	uxth	r2, r2
 800755e:	f422 42f8 	bic.w	r2, r2, #31744	; 0x7c00
 8007562:	b292      	uxth	r2, r2
 8007564:	f8a3 2404 	strh.w	r2, [r3, #1028]	; 0x404
 8007568:	f8b3 2404 	ldrh.w	r2, [r3, #1028]	; 0x404
 800756c:	ea6f 4242 	mvn.w	r2, r2, lsl #17
 8007570:	ea6f 4252 	mvn.w	r2, r2, lsr #17
 8007574:	b292      	uxth	r2, r2
 8007576:	f8a3 2404 	strh.w	r2, [r3, #1028]	; 0x404
 800757a:	e01a      	b.n	80075b2 <USB_EPStartXfer+0x322>
 800757c:	2e3e      	cmp	r6, #62	; 0x3e
 800757e:	d809      	bhi.n	8007594 <USB_EPStartXfer+0x304>
 8007580:	0872      	lsrs	r2, r6, #1
 8007582:	f016 0f01 	tst.w	r6, #1
 8007586:	d000      	beq.n	800758a <USB_EPStartXfer+0x2fa>
 8007588:	3201      	adds	r2, #1
 800758a:	0292      	lsls	r2, r2, #10
 800758c:	b292      	uxth	r2, r2
 800758e:	f8a3 2404 	strh.w	r2, [r3, #1028]	; 0x404
 8007592:	e00e      	b.n	80075b2 <USB_EPStartXfer+0x322>
 8007594:	0972      	lsrs	r2, r6, #5
 8007596:	f016 0f1f 	tst.w	r6, #31
 800759a:	d100      	bne.n	800759e <USB_EPStartXfer+0x30e>
 800759c:	3a01      	subs	r2, #1
 800759e:	ea6f 62c2 	mvn.w	r2, r2, lsl #27
 80075a2:	ea6f 4252 	mvn.w	r2, r2, lsr #17
 80075a6:	b292      	uxth	r2, r2
 80075a8:	f8a3 2404 	strh.w	r2, [r3, #1028]	; 0x404
 80075ac:	e001      	b.n	80075b2 <USB_EPStartXfer+0x322>
 80075ae:	2a01      	cmp	r2, #1
 80075b0:	d02b      	beq.n	800760a <USB_EPStartXfer+0x37a>
 80075b2:	b2b3      	uxth	r3, r6
 80075b4:	8922      	ldrh	r2, [r4, #8]
 80075b6:	6961      	ldr	r1, [r4, #20]
 80075b8:	4628      	mov	r0, r5
 80075ba:	f7ff fe56 	bl	800726a <USB_WritePMA>
 80075be:	6963      	ldr	r3, [r4, #20]
 80075c0:	4433      	add	r3, r6
 80075c2:	6163      	str	r3, [r4, #20]
 80075c4:	6a23      	ldr	r3, [r4, #32]
 80075c6:	6922      	ldr	r2, [r4, #16]
 80075c8:	4293      	cmp	r3, r2
 80075ca:	d928      	bls.n	800761e <USB_EPStartXfer+0x38e>
 80075cc:	1b9b      	subs	r3, r3, r6
 80075ce:	6223      	str	r3, [r4, #32]
 80075d0:	7863      	ldrb	r3, [r4, #1]
 80075d2:	2b00      	cmp	r3, #0
 80075d4:	d140      	bne.n	8007658 <USB_EPStartXfer+0x3c8>
 80075d6:	f8b5 3050 	ldrh.w	r3, [r5, #80]	; 0x50
 80075da:	b29b      	uxth	r3, r3
 80075dc:	442b      	add	r3, r5
 80075de:	7822      	ldrb	r2, [r4, #0]
 80075e0:	eb03 1302 	add.w	r3, r3, r2, lsl #4
 80075e4:	b9fe      	cbnz	r6, 8007626 <USB_EPStartXfer+0x396>
 80075e6:	f8b3 240c 	ldrh.w	r2, [r3, #1036]	; 0x40c
 80075ea:	b292      	uxth	r2, r2
 80075ec:	f422 42f8 	bic.w	r2, r2, #31744	; 0x7c00
 80075f0:	b292      	uxth	r2, r2
 80075f2:	f8a3 240c 	strh.w	r2, [r3, #1036]	; 0x40c
 80075f6:	f8b3 240c 	ldrh.w	r2, [r3, #1036]	; 0x40c
 80075fa:	ea6f 4242 	mvn.w	r2, r2, lsl #17
 80075fe:	ea6f 4252 	mvn.w	r2, r2, lsr #17
 8007602:	b292      	uxth	r2, r2
 8007604:	f8a3 240c 	strh.w	r2, [r3, #1036]	; 0x40c
 8007608:	e028      	b.n	800765c <USB_EPStartXfer+0x3cc>
 800760a:	f8b5 2050 	ldrh.w	r2, [r5, #80]	; 0x50
 800760e:	b292      	uxth	r2, r2
 8007610:	442a      	add	r2, r5
 8007612:	eb02 1303 	add.w	r3, r2, r3, lsl #4
 8007616:	b2b2      	uxth	r2, r6
 8007618:	f8a3 2404 	strh.w	r2, [r3, #1028]	; 0x404
 800761c:	e7c9      	b.n	80075b2 <USB_EPStartXfer+0x322>
 800761e:	2200      	movs	r2, #0
 8007620:	6222      	str	r2, [r4, #32]
 8007622:	461e      	mov	r6, r3
 8007624:	e7d4      	b.n	80075d0 <USB_EPStartXfer+0x340>
 8007626:	2e3e      	cmp	r6, #62	; 0x3e
 8007628:	d809      	bhi.n	800763e <USB_EPStartXfer+0x3ae>
 800762a:	0872      	lsrs	r2, r6, #1
 800762c:	f016 0f01 	tst.w	r6, #1
 8007630:	d000      	beq.n	8007634 <USB_EPStartXfer+0x3a4>
 8007632:	3201      	adds	r2, #1
 8007634:	0292      	lsls	r2, r2, #10
 8007636:	b292      	uxth	r2, r2
 8007638:	f8a3 240c 	strh.w	r2, [r3, #1036]	; 0x40c
 800763c:	e00e      	b.n	800765c <USB_EPStartXfer+0x3cc>
 800763e:	0972      	lsrs	r2, r6, #5
 8007640:	f016 0f1f 	tst.w	r6, #31
 8007644:	d100      	bne.n	8007648 <USB_EPStartXfer+0x3b8>
 8007646:	3a01      	subs	r2, #1
 8007648:	ea6f 62c2 	mvn.w	r2, r2, lsl #27
 800764c:	ea6f 4252 	mvn.w	r2, r2, lsr #17
 8007650:	b292      	uxth	r2, r2
 8007652:	f8a3 240c 	strh.w	r2, [r3, #1036]	; 0x40c
 8007656:	e001      	b.n	800765c <USB_EPStartXfer+0x3cc>
 8007658:	2b01      	cmp	r3, #1
 800765a:	d006      	beq.n	800766a <USB_EPStartXfer+0x3da>
 800765c:	b2b3      	uxth	r3, r6
 800765e:	8962      	ldrh	r2, [r4, #10]
 8007660:	6961      	ldr	r1, [r4, #20]
 8007662:	4628      	mov	r0, r5
 8007664:	f7ff fe01 	bl	800726a <USB_WritePMA>
 8007668:	e6a2      	b.n	80073b0 <USB_EPStartXfer+0x120>
 800766a:	f8b5 3050 	ldrh.w	r3, [r5, #80]	; 0x50
 800766e:	b29b      	uxth	r3, r3
 8007670:	442b      	add	r3, r5
 8007672:	7822      	ldrb	r2, [r4, #0]
 8007674:	eb03 1302 	add.w	r3, r3, r2, lsl #4
 8007678:	b2b2      	uxth	r2, r6
 800767a:	f8a3 240c 	strh.w	r2, [r3, #1036]	; 0x40c
 800767e:	e7ed      	b.n	800765c <USB_EPStartXfer+0x3cc>
 8007680:	7821      	ldrb	r1, [r4, #0]
 8007682:	f835 2021 	ldrh.w	r2, [r5, r1, lsl #2]
 8007686:	b292      	uxth	r2, r2
 8007688:	f422 42e2 	bic.w	r2, r2, #28928	; 0x7100
 800768c:	f022 0270 	bic.w	r2, r2, #112	; 0x70
 8007690:	f442 4200 	orr.w	r2, r2, #32768	; 0x8000
 8007694:	f042 0280 	orr.w	r2, r2, #128	; 0x80
 8007698:	f825 2021 	strh.w	r2, [r5, r1, lsl #2]
 800769c:	f8b5 2050 	ldrh.w	r2, [r5, #80]	; 0x50
 80076a0:	b292      	uxth	r2, r2
 80076a2:	442a      	add	r2, r5
 80076a4:	7821      	ldrb	r1, [r4, #0]
 80076a6:	eb02 1201 	add.w	r2, r2, r1, lsl #4
 80076aa:	b29b      	uxth	r3, r3
 80076ac:	f8a2 3404 	strh.w	r3, [r2, #1028]	; 0x404
 80076b0:	8922      	ldrh	r2, [r4, #8]
 80076b2:	6961      	ldr	r1, [r4, #20]
 80076b4:	4628      	mov	r0, r5
 80076b6:	f7ff fdd8 	bl	800726a <USB_WritePMA>
 80076ba:	e679      	b.n	80073b0 <USB_EPStartXfer+0x120>
 80076bc:	2e3e      	cmp	r6, #62	; 0x3e
 80076be:	d809      	bhi.n	80076d4 <USB_EPStartXfer+0x444>
 80076c0:	0872      	lsrs	r2, r6, #1
 80076c2:	f016 0f01 	tst.w	r6, #1
 80076c6:	d000      	beq.n	80076ca <USB_EPStartXfer+0x43a>
 80076c8:	3201      	adds	r2, #1
 80076ca:	0292      	lsls	r2, r2, #10
 80076cc:	b292      	uxth	r2, r2
 80076ce:	f8a3 240c 	strh.w	r2, [r3, #1036]	; 0x40c
 80076d2:	e00e      	b.n	80076f2 <USB_EPStartXfer+0x462>
 80076d4:	0972      	lsrs	r2, r6, #5
 80076d6:	f016 0f1f 	tst.w	r6, #31
 80076da:	d100      	bne.n	80076de <USB_EPStartXfer+0x44e>
 80076dc:	3a01      	subs	r2, #1
 80076de:	ea6f 62c2 	mvn.w	r2, r2, lsl #27
 80076e2:	ea6f 4252 	mvn.w	r2, r2, lsr #17
 80076e6:	b292      	uxth	r2, r2
 80076e8:	f8a3 240c 	strh.w	r2, [r3, #1036]	; 0x40c
 80076ec:	e001      	b.n	80076f2 <USB_EPStartXfer+0x462>
 80076ee:	2a01      	cmp	r2, #1
 80076f0:	d026      	beq.n	8007740 <USB_EPStartXfer+0x4b0>
 80076f2:	b2b3      	uxth	r3, r6
 80076f4:	8962      	ldrh	r2, [r4, #10]
 80076f6:	6961      	ldr	r1, [r4, #20]
 80076f8:	4628      	mov	r0, r5
 80076fa:	f7ff fdb6 	bl	800726a <USB_WritePMA>
 80076fe:	6963      	ldr	r3, [r4, #20]
 8007700:	4433      	add	r3, r6
 8007702:	6163      	str	r3, [r4, #20]
 8007704:	6a23      	ldr	r3, [r4, #32]
 8007706:	6922      	ldr	r2, [r4, #16]
 8007708:	4293      	cmp	r3, r2
 800770a:	d923      	bls.n	8007754 <USB_EPStartXfer+0x4c4>
 800770c:	1b9b      	subs	r3, r3, r6
 800770e:	6223      	str	r3, [r4, #32]
 8007710:	2e00      	cmp	r6, #0
 8007712:	f43f ae4d 	beq.w	80073b0 <USB_EPStartXfer+0x120>
 8007716:	7863      	ldrb	r3, [r4, #1]
 8007718:	bb6b      	cbnz	r3, 8007776 <USB_EPStartXfer+0x4e6>
 800771a:	f8b5 3050 	ldrh.w	r3, [r5, #80]	; 0x50
 800771e:	b29b      	uxth	r3, r3
 8007720:	442b      	add	r3, r5
 8007722:	7822      	ldrb	r2, [r4, #0]
 8007724:	eb03 1302 	add.w	r3, r3, r2, lsl #4
 8007728:	2e3e      	cmp	r6, #62	; 0x3e
 800772a:	d817      	bhi.n	800775c <USB_EPStartXfer+0x4cc>
 800772c:	0872      	lsrs	r2, r6, #1
 800772e:	f016 0f01 	tst.w	r6, #1
 8007732:	d000      	beq.n	8007736 <USB_EPStartXfer+0x4a6>
 8007734:	3201      	adds	r2, #1
 8007736:	0292      	lsls	r2, r2, #10
 8007738:	b292      	uxth	r2, r2
 800773a:	f8a3 2404 	strh.w	r2, [r3, #1028]	; 0x404
 800773e:	e01c      	b.n	800777a <USB_EPStartXfer+0x4ea>
 8007740:	f8b5 2050 	ldrh.w	r2, [r5, #80]	; 0x50
 8007744:	b292      	uxth	r2, r2
 8007746:	442a      	add	r2, r5
 8007748:	eb02 1303 	add.w	r3, r2, r3, lsl #4
 800774c:	b2b2      	uxth	r2, r6
 800774e:	f8a3 240c 	strh.w	r2, [r3, #1036]	; 0x40c
 8007752:	e7ce      	b.n	80076f2 <USB_EPStartXfer+0x462>
 8007754:	2200      	movs	r2, #0
 8007756:	6222      	str	r2, [r4, #32]
 8007758:	461e      	mov	r6, r3
 800775a:	e7d9      	b.n	8007710 <USB_EPStartXfer+0x480>
 800775c:	0972      	lsrs	r2, r6, #5
 800775e:	f016 0f1f 	tst.w	r6, #31
 8007762:	d100      	bne.n	8007766 <USB_EPStartXfer+0x4d6>
 8007764:	3a01      	subs	r2, #1
 8007766:	ea6f 62c2 	mvn.w	r2, r2, lsl #27
 800776a:	ea6f 4252 	mvn.w	r2, r2, lsr #17
 800776e:	b292      	uxth	r2, r2
 8007770:	f8a3 2404 	strh.w	r2, [r3, #1028]	; 0x404
 8007774:	e001      	b.n	800777a <USB_EPStartXfer+0x4ea>
 8007776:	2b01      	cmp	r3, #1
 8007778:	d006      	beq.n	8007788 <USB_EPStartXfer+0x4f8>
 800777a:	b2b3      	uxth	r3, r6
 800777c:	8922      	ldrh	r2, [r4, #8]
 800777e:	6961      	ldr	r1, [r4, #20]
 8007780:	4628      	mov	r0, r5
 8007782:	f7ff fd72 	bl	800726a <USB_WritePMA>
 8007786:	e613      	b.n	80073b0 <USB_EPStartXfer+0x120>
 8007788:	f8b5 3050 	ldrh.w	r3, [r5, #80]	; 0x50
 800778c:	b29b      	uxth	r3, r3
 800778e:	442b      	add	r3, r5
 8007790:	7822      	ldrb	r2, [r4, #0]
 8007792:	eb03 1302 	add.w	r3, r3, r2, lsl #4
 8007796:	b2b2      	uxth	r2, r6
 8007798:	f8a3 2404 	strh.w	r2, [r3, #1028]	; 0x404
 800779c:	e7ed      	b.n	800777a <USB_EPStartXfer+0x4ea>
 800779e:	7862      	ldrb	r2, [r4, #1]
 80077a0:	bb8a      	cbnz	r2, 8007806 <USB_EPStartXfer+0x576>
 80077a2:	f8b5 2050 	ldrh.w	r2, [r5, #80]	; 0x50
 80077a6:	b292      	uxth	r2, r2
 80077a8:	442a      	add	r2, r5
 80077aa:	eb02 1303 	add.w	r3, r2, r3, lsl #4
 80077ae:	b98e      	cbnz	r6, 80077d4 <USB_EPStartXfer+0x544>
 80077b0:	f8b3 2404 	ldrh.w	r2, [r3, #1028]	; 0x404
 80077b4:	b292      	uxth	r2, r2
 80077b6:	f422 42f8 	bic.w	r2, r2, #31744	; 0x7c00
 80077ba:	b292      	uxth	r2, r2
 80077bc:	f8a3 2404 	strh.w	r2, [r3, #1028]	; 0x404
 80077c0:	f8b3 2404 	ldrh.w	r2, [r3, #1028]	; 0x404
 80077c4:	ea6f 4242 	mvn.w	r2, r2, lsl #17
 80077c8:	ea6f 4252 	mvn.w	r2, r2, lsr #17
 80077cc:	b292      	uxth	r2, r2
 80077ce:	f8a3 2404 	strh.w	r2, [r3, #1028]	; 0x404
 80077d2:	e01a      	b.n	800780a <USB_EPStartXfer+0x57a>
 80077d4:	2e3e      	cmp	r6, #62	; 0x3e
 80077d6:	d809      	bhi.n	80077ec <USB_EPStartXfer+0x55c>
 80077d8:	0872      	lsrs	r2, r6, #1
 80077da:	f016 0f01 	tst.w	r6, #1
 80077de:	d000      	beq.n	80077e2 <USB_EPStartXfer+0x552>
 80077e0:	3201      	adds	r2, #1
 80077e2:	0292      	lsls	r2, r2, #10
 80077e4:	b292      	uxth	r2, r2
 80077e6:	f8a3 2404 	strh.w	r2, [r3, #1028]	; 0x404
 80077ea:	e00e      	b.n	800780a <USB_EPStartXfer+0x57a>
 80077ec:	0972      	lsrs	r2, r6, #5
 80077ee:	f016 0f1f 	tst.w	r6, #31
 80077f2:	d100      	bne.n	80077f6 <USB_EPStartXfer+0x566>
 80077f4:	3a01      	subs	r2, #1
 80077f6:	ea6f 62c2 	mvn.w	r2, r2, lsl #27
 80077fa:	ea6f 4252 	mvn.w	r2, r2, lsr #17
 80077fe:	b292      	uxth	r2, r2
 8007800:	f8a3 2404 	strh.w	r2, [r3, #1028]	; 0x404
 8007804:	e001      	b.n	800780a <USB_EPStartXfer+0x57a>
 8007806:	2a01      	cmp	r2, #1
 8007808:	d026      	beq.n	8007858 <USB_EPStartXfer+0x5c8>
 800780a:	b2b3      	uxth	r3, r6
 800780c:	8922      	ldrh	r2, [r4, #8]
 800780e:	6961      	ldr	r1, [r4, #20]
 8007810:	4628      	mov	r0, r5
 8007812:	f7ff fd2a 	bl	800726a <USB_WritePMA>
 8007816:	6963      	ldr	r3, [r4, #20]
 8007818:	4433      	add	r3, r6
 800781a:	6163      	str	r3, [r4, #20]
 800781c:	6a23      	ldr	r3, [r4, #32]
 800781e:	6922      	ldr	r2, [r4, #16]
 8007820:	4293      	cmp	r3, r2
 8007822:	d923      	bls.n	800786c <USB_EPStartXfer+0x5dc>
 8007824:	1b9b      	subs	r3, r3, r6
 8007826:	6223      	str	r3, [r4, #32]
 8007828:	2e00      	cmp	r6, #0
 800782a:	f43f adc1 	beq.w	80073b0 <USB_EPStartXfer+0x120>
 800782e:	7863      	ldrb	r3, [r4, #1]
 8007830:	bb6b      	cbnz	r3, 800788e <USB_EPStartXfer+0x5fe>
 8007832:	f8b5 3050 	ldrh.w	r3, [r5, #80]	; 0x50
 8007836:	b29b      	uxth	r3, r3
 8007838:	442b      	add	r3, r5
 800783a:	7822      	ldrb	r2, [r4, #0]
 800783c:	eb03 1302 	add.w	r3, r3, r2, lsl #4
 8007840:	2e3e      	cmp	r6, #62	; 0x3e
 8007842:	d817      	bhi.n	8007874 <USB_EPStartXfer+0x5e4>
 8007844:	0872      	lsrs	r2, r6, #1
 8007846:	f016 0f01 	tst.w	r6, #1
 800784a:	d000      	beq.n	800784e <USB_EPStartXfer+0x5be>
 800784c:	3201      	adds	r2, #1
 800784e:	0292      	lsls	r2, r2, #10
 8007850:	b292      	uxth	r2, r2
 8007852:	f8a3 240c 	strh.w	r2, [r3, #1036]	; 0x40c
 8007856:	e01c      	b.n	8007892 <USB_EPStartXfer+0x602>
 8007858:	f8b5 2050 	ldrh.w	r2, [r5, #80]	; 0x50
 800785c:	b292      	uxth	r2, r2
 800785e:	442a      	add	r2, r5
 8007860:	eb02 1303 	add.w	r3, r2, r3, lsl #4
 8007864:	b2b2      	uxth	r2, r6
 8007866:	f8a3 2404 	strh.w	r2, [r3, #1028]	; 0x404
 800786a:	e7ce      	b.n	800780a <USB_EPStartXfer+0x57a>
 800786c:	2200      	movs	r2, #0
 800786e:	6222      	str	r2, [r4, #32]
 8007870:	461e      	mov	r6, r3
 8007872:	e7d9      	b.n	8007828 <USB_EPStartXfer+0x598>
 8007874:	0972      	lsrs	r2, r6, #5
 8007876:	f016 0f1f 	tst.w	r6, #31
 800787a:	d100      	bne.n	800787e <USB_EPStartXfer+0x5ee>
 800787c:	3a01      	subs	r2, #1
 800787e:	ea6f 62c2 	mvn.w	r2, r2, lsl #27
 8007882:	ea6f 4252 	mvn.w	r2, r2, lsr #17
 8007886:	b292      	uxth	r2, r2
 8007888:	f8a3 240c 	strh.w	r2, [r3, #1036]	; 0x40c
 800788c:	e001      	b.n	8007892 <USB_EPStartXfer+0x602>
 800788e:	2b01      	cmp	r3, #1
 8007890:	d006      	beq.n	80078a0 <USB_EPStartXfer+0x610>
 8007892:	b2b3      	uxth	r3, r6
 8007894:	8962      	ldrh	r2, [r4, #10]
 8007896:	6961      	ldr	r1, [r4, #20]
 8007898:	4628      	mov	r0, r5
 800789a:	f7ff fce6 	bl	800726a <USB_WritePMA>
 800789e:	e587      	b.n	80073b0 <USB_EPStartXfer+0x120>
 80078a0:	f8b5 3050 	ldrh.w	r3, [r5, #80]	; 0x50
 80078a4:	b29b      	uxth	r3, r3
 80078a6:	442b      	add	r3, r5
 80078a8:	7822      	ldrb	r2, [r4, #0]
 80078aa:	eb03 1302 	add.w	r3, r3, r2, lsl #4
 80078ae:	b2b2      	uxth	r2, r6
 80078b0:	f8a3 240c 	strh.w	r2, [r3, #1036]	; 0x40c
 80078b4:	e7ed      	b.n	8007892 <USB_EPStartXfer+0x602>
 80078b6:	2200      	movs	r2, #0
 80078b8:	618a      	str	r2, [r1, #24]
 80078ba:	461a      	mov	r2, r3
 80078bc:	e4f9      	b.n	80072b2 <USB_EPStartXfer+0x22>
 80078be:	2a3e      	cmp	r2, #62	; 0x3e
 80078c0:	d809      	bhi.n	80078d6 <USB_EPStartXfer+0x646>
 80078c2:	0851      	lsrs	r1, r2, #1
 80078c4:	f012 0f01 	tst.w	r2, #1
 80078c8:	d000      	beq.n	80078cc <USB_EPStartXfer+0x63c>
 80078ca:	3101      	adds	r1, #1
 80078cc:	0289      	lsls	r1, r1, #10
 80078ce:	b289      	uxth	r1, r1
 80078d0:	f8a3 140c 	strh.w	r1, [r3, #1036]	; 0x40c
 80078d4:	e508      	b.n	80072e8 <USB_EPStartXfer+0x58>
 80078d6:	0951      	lsrs	r1, r2, #5
 80078d8:	f012 0f1f 	tst.w	r2, #31
 80078dc:	d100      	bne.n	80078e0 <USB_EPStartXfer+0x650>
 80078de:	3901      	subs	r1, #1
 80078e0:	ea6f 61c1 	mvn.w	r1, r1, lsl #27
 80078e4:	ea6f 4151 	mvn.w	r1, r1, lsr #17
 80078e8:	b289      	uxth	r1, r1
 80078ea:	f8a3 140c 	strh.w	r1, [r3, #1036]	; 0x40c
 80078ee:	e4fb      	b.n	80072e8 <USB_EPStartXfer+0x58>
 80078f0:	78ca      	ldrb	r2, [r1, #3]
 80078f2:	2a02      	cmp	r2, #2
 80078f4:	d045      	beq.n	8007982 <USB_EPStartXfer+0x6f2>
 80078f6:	2a01      	cmp	r2, #1
 80078f8:	f040 8120 	bne.w	8007b3c <USB_EPStartXfer+0x8ac>
 80078fc:	6989      	ldr	r1, [r1, #24]
 80078fe:	6922      	ldr	r2, [r4, #16]
 8007900:	4291      	cmp	r1, r2
 8007902:	f240 80d4 	bls.w	8007aae <USB_EPStartXfer+0x81e>
 8007906:	1a89      	subs	r1, r1, r2
 8007908:	61a1      	str	r1, [r4, #24]
 800790a:	b9d3      	cbnz	r3, 8007942 <USB_EPStartXfer+0x6b2>
 800790c:	f8b5 3050 	ldrh.w	r3, [r5, #80]	; 0x50
 8007910:	b29b      	uxth	r3, r3
 8007912:	442b      	add	r3, r5
 8007914:	7821      	ldrb	r1, [r4, #0]
 8007916:	eb03 1301 	add.w	r3, r3, r1, lsl #4
 800791a:	2a00      	cmp	r2, #0
 800791c:	f040 80cb 	bne.w	8007ab6 <USB_EPStartXfer+0x826>
 8007920:	f8b3 1404 	ldrh.w	r1, [r3, #1028]	; 0x404
 8007924:	b289      	uxth	r1, r1
 8007926:	f421 41f8 	bic.w	r1, r1, #31744	; 0x7c00
 800792a:	b289      	uxth	r1, r1
 800792c:	f8a3 1404 	strh.w	r1, [r3, #1028]	; 0x404
 8007930:	f8b3 1404 	ldrh.w	r1, [r3, #1028]	; 0x404
 8007934:	ea6f 4141 	mvn.w	r1, r1, lsl #17
 8007938:	ea6f 4151 	mvn.w	r1, r1, lsr #17
 800793c:	b289      	uxth	r1, r1
 800793e:	f8a3 1404 	strh.w	r1, [r3, #1028]	; 0x404
 8007942:	7863      	ldrb	r3, [r4, #1]
 8007944:	2b00      	cmp	r3, #0
 8007946:	f040 80ea 	bne.w	8007b1e <USB_EPStartXfer+0x88e>
 800794a:	f8b5 3050 	ldrh.w	r3, [r5, #80]	; 0x50
 800794e:	b29b      	uxth	r3, r3
 8007950:	442b      	add	r3, r5
 8007952:	7821      	ldrb	r1, [r4, #0]
 8007954:	eb03 1301 	add.w	r3, r3, r1, lsl #4
 8007958:	2a00      	cmp	r2, #0
 800795a:	f040 80c5 	bne.w	8007ae8 <USB_EPStartXfer+0x858>
 800795e:	f8b3 240c 	ldrh.w	r2, [r3, #1036]	; 0x40c
 8007962:	b292      	uxth	r2, r2
 8007964:	f422 42f8 	bic.w	r2, r2, #31744	; 0x7c00
 8007968:	b292      	uxth	r2, r2
 800796a:	f8a3 240c 	strh.w	r2, [r3, #1036]	; 0x40c
 800796e:	f8b3 240c 	ldrh.w	r2, [r3, #1036]	; 0x40c
 8007972:	ea6f 4242 	mvn.w	r2, r2, lsl #17
 8007976:	ea6f 4252 	mvn.w	r2, r2, lsr #17
 800797a:	b292      	uxth	r2, r2
 800797c:	f8a3 240c 	strh.w	r2, [r3, #1036]	; 0x40c
 8007980:	e4b2      	b.n	80072e8 <USB_EPStartXfer+0x58>
 8007982:	b9cb      	cbnz	r3, 80079b8 <USB_EPStartXfer+0x728>
 8007984:	f8b0 3050 	ldrh.w	r3, [r0, #80]	; 0x50
 8007988:	b29b      	uxth	r3, r3
 800798a:	4403      	add	r3, r0
 800798c:	780a      	ldrb	r2, [r1, #0]
 800798e:	eb03 1302 	add.w	r3, r3, r2, lsl #4
 8007992:	690a      	ldr	r2, [r1, #16]
 8007994:	bb72      	cbnz	r2, 80079f4 <USB_EPStartXfer+0x764>
 8007996:	f8b3 2404 	ldrh.w	r2, [r3, #1028]	; 0x404
 800799a:	b292      	uxth	r2, r2
 800799c:	f422 42f8 	bic.w	r2, r2, #31744	; 0x7c00
 80079a0:	b292      	uxth	r2, r2
 80079a2:	f8a3 2404 	strh.w	r2, [r3, #1028]	; 0x404
 80079a6:	f8b3 2404 	ldrh.w	r2, [r3, #1028]	; 0x404
 80079aa:	ea6f 4242 	mvn.w	r2, r2, lsl #17
 80079ae:	ea6f 4252 	mvn.w	r2, r2, lsr #17
 80079b2:	b292      	uxth	r2, r2
 80079b4:	f8a3 2404 	strh.w	r2, [r3, #1028]	; 0x404
 80079b8:	7863      	ldrb	r3, [r4, #1]
 80079ba:	2b00      	cmp	r3, #0
 80079bc:	d14c      	bne.n	8007a58 <USB_EPStartXfer+0x7c8>
 80079be:	f8b5 3050 	ldrh.w	r3, [r5, #80]	; 0x50
 80079c2:	b29b      	uxth	r3, r3
 80079c4:	442b      	add	r3, r5
 80079c6:	7822      	ldrb	r2, [r4, #0]
 80079c8:	eb03 1302 	add.w	r3, r3, r2, lsl #4
 80079cc:	6922      	ldr	r2, [r4, #16]
 80079ce:	bb52      	cbnz	r2, 8007a26 <USB_EPStartXfer+0x796>
 80079d0:	f8b3 240c 	ldrh.w	r2, [r3, #1036]	; 0x40c
 80079d4:	b292      	uxth	r2, r2
 80079d6:	f422 42f8 	bic.w	r2, r2, #31744	; 0x7c00
 80079da:	b292      	uxth	r2, r2
 80079dc:	f8a3 240c 	strh.w	r2, [r3, #1036]	; 0x40c
 80079e0:	f8b3 240c 	ldrh.w	r2, [r3, #1036]	; 0x40c
 80079e4:	ea6f 4242 	mvn.w	r2, r2, lsl #17
 80079e8:	ea6f 4252 	mvn.w	r2, r2, lsr #17
 80079ec:	b292      	uxth	r2, r2
 80079ee:	f8a3 240c 	strh.w	r2, [r3, #1036]	; 0x40c
 80079f2:	e033      	b.n	8007a5c <USB_EPStartXfer+0x7cc>
 80079f4:	2a3e      	cmp	r2, #62	; 0x3e
 80079f6:	d809      	bhi.n	8007a0c <USB_EPStartXfer+0x77c>
 80079f8:	0851      	lsrs	r1, r2, #1
 80079fa:	f012 0f01 	tst.w	r2, #1
 80079fe:	d000      	beq.n	8007a02 <USB_EPStartXfer+0x772>
 8007a00:	3101      	adds	r1, #1
 8007a02:	028a      	lsls	r2, r1, #10
 8007a04:	b292      	uxth	r2, r2
 8007a06:	f8a3 2404 	strh.w	r2, [r3, #1028]	; 0x404
 8007a0a:	e7d5      	b.n	80079b8 <USB_EPStartXfer+0x728>
 8007a0c:	0951      	lsrs	r1, r2, #5
 8007a0e:	f012 0f1f 	tst.w	r2, #31
 8007a12:	d100      	bne.n	8007a16 <USB_EPStartXfer+0x786>
 8007a14:	3901      	subs	r1, #1
 8007a16:	ea6f 62c1 	mvn.w	r2, r1, lsl #27
 8007a1a:	ea6f 4252 	mvn.w	r2, r2, lsr #17
 8007a1e:	b292      	uxth	r2, r2
 8007a20:	f8a3 2404 	strh.w	r2, [r3, #1028]	; 0x404
 8007a24:	e7c8      	b.n	80079b8 <USB_EPStartXfer+0x728>
 8007a26:	2a3e      	cmp	r2, #62	; 0x3e
 8007a28:	d809      	bhi.n	8007a3e <USB_EPStartXfer+0x7ae>
 8007a2a:	0851      	lsrs	r1, r2, #1
 8007a2c:	f012 0f01 	tst.w	r2, #1
 8007a30:	d000      	beq.n	8007a34 <USB_EPStartXfer+0x7a4>
 8007a32:	3101      	adds	r1, #1
 8007a34:	028a      	lsls	r2, r1, #10
 8007a36:	b292      	uxth	r2, r2
 8007a38:	f8a3 240c 	strh.w	r2, [r3, #1036]	; 0x40c
 8007a3c:	e00e      	b.n	8007a5c <USB_EPStartXfer+0x7cc>
 8007a3e:	0951      	lsrs	r1, r2, #5
 8007a40:	f012 0f1f 	tst.w	r2, #31
 8007a44:	d100      	bne.n	8007a48 <USB_EPStartXfer+0x7b8>
 8007a46:	3901      	subs	r1, #1
 8007a48:	ea6f 62c1 	mvn.w	r2, r1, lsl #27
 8007a4c:	ea6f 4252 	mvn.w	r2, r2, lsr #17
 8007a50:	b292      	uxth	r2, r2
 8007a52:	f8a3 240c 	strh.w	r2, [r3, #1036]	; 0x40c
 8007a56:	e001      	b.n	8007a5c <USB_EPStartXfer+0x7cc>
 8007a58:	2b01      	cmp	r3, #1
 8007a5a:	d01d      	beq.n	8007a98 <USB_EPStartXfer+0x808>
 8007a5c:	69e3      	ldr	r3, [r4, #28]
 8007a5e:	2b00      	cmp	r3, #0
 8007a60:	f43f ac42 	beq.w	80072e8 <USB_EPStartXfer+0x58>
 8007a64:	7822      	ldrb	r2, [r4, #0]
 8007a66:	f835 1022 	ldrh.w	r1, [r5, r2, lsl #2]
 8007a6a:	f244 0340 	movw	r3, #16448	; 0x4040
 8007a6e:	ea03 0001 	and.w	r0, r3, r1
 8007a72:	438b      	bics	r3, r1
 8007a74:	d002      	beq.n	8007a7c <USB_EPStartXfer+0x7ec>
 8007a76:	2800      	cmp	r0, #0
 8007a78:	f47f ac36 	bne.w	80072e8 <USB_EPStartXfer+0x58>
 8007a7c:	f835 3022 	ldrh.w	r3, [r5, r2, lsl #2]
 8007a80:	b29b      	uxth	r3, r3
 8007a82:	f423 43e0 	bic.w	r3, r3, #28672	; 0x7000
 8007a86:	f023 0370 	bic.w	r3, r3, #112	; 0x70
 8007a8a:	f443 4300 	orr.w	r3, r3, #32768	; 0x8000
 8007a8e:	f043 03c0 	orr.w	r3, r3, #192	; 0xc0
 8007a92:	f825 3022 	strh.w	r3, [r5, r2, lsl #2]
 8007a96:	e427      	b.n	80072e8 <USB_EPStartXfer+0x58>
 8007a98:	f8b5 3050 	ldrh.w	r3, [r5, #80]	; 0x50
 8007a9c:	b29b      	uxth	r3, r3
 8007a9e:	442b      	add	r3, r5
 8007aa0:	7822      	ldrb	r2, [r4, #0]
 8007aa2:	eb03 1302 	add.w	r3, r3, r2, lsl #4
 8007aa6:	8a22      	ldrh	r2, [r4, #16]
 8007aa8:	f8a3 240c 	strh.w	r2, [r3, #1036]	; 0x40c
 8007aac:	e7d6      	b.n	8007a5c <USB_EPStartXfer+0x7cc>
 8007aae:	2200      	movs	r2, #0
 8007ab0:	61a2      	str	r2, [r4, #24]
 8007ab2:	460a      	mov	r2, r1
 8007ab4:	e729      	b.n	800790a <USB_EPStartXfer+0x67a>
 8007ab6:	2a3e      	cmp	r2, #62	; 0x3e
 8007ab8:	d809      	bhi.n	8007ace <USB_EPStartXfer+0x83e>
 8007aba:	0851      	lsrs	r1, r2, #1
 8007abc:	f012 0f01 	tst.w	r2, #1
 8007ac0:	d000      	beq.n	8007ac4 <USB_EPStartXfer+0x834>
 8007ac2:	3101      	adds	r1, #1
 8007ac4:	0289      	lsls	r1, r1, #10
 8007ac6:	b289      	uxth	r1, r1
 8007ac8:	f8a3 1404 	strh.w	r1, [r3, #1028]	; 0x404
 8007acc:	e739      	b.n	8007942 <USB_EPStartXfer+0x6b2>
 8007ace:	0951      	lsrs	r1, r2, #5
 8007ad0:	f012 0f1f 	tst.w	r2, #31
 8007ad4:	d100      	bne.n	8007ad8 <USB_EPStartXfer+0x848>
 8007ad6:	3901      	subs	r1, #1
 8007ad8:	ea6f 61c1 	mvn.w	r1, r1, lsl #27
 8007adc:	ea6f 4151 	mvn.w	r1, r1, lsr #17
 8007ae0:	b289      	uxth	r1, r1
 8007ae2:	f8a3 1404 	strh.w	r1, [r3, #1028]	; 0x404
 8007ae6:	e72c      	b.n	8007942 <USB_EPStartXfer+0x6b2>
 8007ae8:	2a3e      	cmp	r2, #62	; 0x3e
 8007aea:	d80a      	bhi.n	8007b02 <USB_EPStartXfer+0x872>
 8007aec:	0851      	lsrs	r1, r2, #1
 8007aee:	f012 0f01 	tst.w	r2, #1
 8007af2:	d000      	beq.n	8007af6 <USB_EPStartXfer+0x866>
 8007af4:	3101      	adds	r1, #1
 8007af6:	028a      	lsls	r2, r1, #10
 8007af8:	b292      	uxth	r2, r2
 8007afa:	f8a3 240c 	strh.w	r2, [r3, #1036]	; 0x40c
 8007afe:	f7ff bbf3 	b.w	80072e8 <USB_EPStartXfer+0x58>
 8007b02:	0951      	lsrs	r1, r2, #5
 8007b04:	f012 0f1f 	tst.w	r2, #31
 8007b08:	d100      	bne.n	8007b0c <USB_EPStartXfer+0x87c>
 8007b0a:	3901      	subs	r1, #1
 8007b0c:	ea6f 62c1 	mvn.w	r2, r1, lsl #27
 8007b10:	ea6f 4252 	mvn.w	r2, r2, lsr #17
 8007b14:	b292      	uxth	r2, r2
 8007b16:	f8a3 240c 	strh.w	r2, [r3, #1036]	; 0x40c
 8007b1a:	f7ff bbe5 	b.w	80072e8 <USB_EPStartXfer+0x58>
 8007b1e:	2b01      	cmp	r3, #1
 8007b20:	f47f abe2 	bne.w	80072e8 <USB_EPStartXfer+0x58>
 8007b24:	f8b5 3050 	ldrh.w	r3, [r5, #80]	; 0x50
 8007b28:	b29b      	uxth	r3, r3
 8007b2a:	442b      	add	r3, r5
 8007b2c:	7821      	ldrb	r1, [r4, #0]
 8007b2e:	eb03 1301 	add.w	r3, r3, r1, lsl #4
 8007b32:	b292      	uxth	r2, r2
 8007b34:	f8a3 240c 	strh.w	r2, [r3, #1036]	; 0x40c
 8007b38:	f7ff bbd6 	b.w	80072e8 <USB_EPStartXfer+0x58>
 8007b3c:	2001      	movs	r0, #1
 8007b3e:	f7ff bbe4 	b.w	800730a <USB_EPStartXfer+0x7a>

08007b42 <USB_ReadPMA>:
 8007b42:	b410      	push	{r4}
 8007b44:	085c      	lsrs	r4, r3, #1
 8007b46:	eb00 0042 	add.w	r0, r0, r2, lsl #1
 8007b4a:	f500 6080 	add.w	r0, r0, #1024	; 0x400
 8007b4e:	b144      	cbz	r4, 8007b62 <USB_ReadPMA+0x20>
 8007b50:	f830 2b04 	ldrh.w	r2, [r0], #4
 8007b54:	700a      	strb	r2, [r1, #0]
 8007b56:	f3c2 2207 	ubfx	r2, r2, #8, #8
 8007b5a:	704a      	strb	r2, [r1, #1]
 8007b5c:	3102      	adds	r1, #2
 8007b5e:	3c01      	subs	r4, #1
 8007b60:	e7f5      	b.n	8007b4e <USB_ReadPMA+0xc>
 8007b62:	f013 0f01 	tst.w	r3, #1
 8007b66:	d001      	beq.n	8007b6c <USB_ReadPMA+0x2a>
 8007b68:	8803      	ldrh	r3, [r0, #0]
 8007b6a:	700b      	strb	r3, [r1, #0]
 8007b6c:	bc10      	pop	{r4}
 8007b6e:	4770      	bx	lr

08007b70 <USBD_CDC_EP0_RxReady>:
 8007b70:	b510      	push	{r4, lr}
 8007b72:	f8d0 42b8 	ldr.w	r4, [r0, #696]	; 0x2b8
 8007b76:	f8d0 32bc 	ldr.w	r3, [r0, #700]	; 0x2bc
 8007b7a:	b15b      	cbz	r3, 8007b94 <USBD_CDC_EP0_RxReady+0x24>
 8007b7c:	f894 0100 	ldrb.w	r0, [r4, #256]	; 0x100
 8007b80:	28ff      	cmp	r0, #255	; 0xff
 8007b82:	d007      	beq.n	8007b94 <USBD_CDC_EP0_RxReady+0x24>
 8007b84:	689b      	ldr	r3, [r3, #8]
 8007b86:	f894 2101 	ldrb.w	r2, [r4, #257]	; 0x101
 8007b8a:	4621      	mov	r1, r4
 8007b8c:	4798      	blx	r3
 8007b8e:	23ff      	movs	r3, #255	; 0xff
 8007b90:	f884 3100 	strb.w	r3, [r4, #256]	; 0x100
 8007b94:	2000      	movs	r0, #0
 8007b96:	bd10      	pop	{r4, pc}

08007b98 <USBD_CDC_GetFSCfgDesc>:
 8007b98:	2343      	movs	r3, #67	; 0x43
 8007b9a:	8003      	strh	r3, [r0, #0]
 8007b9c:	4800      	ldr	r0, [pc, #0]	; (8007ba0 <USBD_CDC_GetFSCfgDesc+0x8>)
 8007b9e:	4770      	bx	lr
 8007ba0:	2000004c 	.word	0x2000004c

08007ba4 <USBD_CDC_GetHSCfgDesc>:
 8007ba4:	2343      	movs	r3, #67	; 0x43
 8007ba6:	8003      	strh	r3, [r0, #0]
 8007ba8:	4800      	ldr	r0, [pc, #0]	; (8007bac <USBD_CDC_GetHSCfgDesc+0x8>)
 8007baa:	4770      	bx	lr
 8007bac:	20000090 	.word	0x20000090

08007bb0 <USBD_CDC_GetOtherSpeedCfgDesc>:
 8007bb0:	2343      	movs	r3, #67	; 0x43
 8007bb2:	8003      	strh	r3, [r0, #0]
 8007bb4:	4800      	ldr	r0, [pc, #0]	; (8007bb8 <USBD_CDC_GetOtherSpeedCfgDesc+0x8>)
 8007bb6:	4770      	bx	lr
 8007bb8:	200000e0 	.word	0x200000e0

08007bbc <USBD_CDC_GetDeviceQualifierDescriptor>:
 8007bbc:	230a      	movs	r3, #10
 8007bbe:	8003      	strh	r3, [r0, #0]
 8007bc0:	4800      	ldr	r0, [pc, #0]	; (8007bc4 <USBD_CDC_GetDeviceQualifierDescriptor+0x8>)
 8007bc2:	4770      	bx	lr
 8007bc4:	200000d4 	.word	0x200000d4

08007bc8 <USBD_CDC_DataOut>:
 8007bc8:	b538      	push	{r3, r4, r5, lr}
 8007bca:	4604      	mov	r4, r0
 8007bcc:	f8d0 52b8 	ldr.w	r5, [r0, #696]	; 0x2b8
 8007bd0:	f001 f86a 	bl	8008ca8 <USBD_LL_GetRxDataSize>
 8007bd4:	f8c5 010c 	str.w	r0, [r5, #268]	; 0x10c
 8007bd8:	f8d4 32b8 	ldr.w	r3, [r4, #696]	; 0x2b8
 8007bdc:	b14b      	cbz	r3, 8007bf2 <USBD_CDC_DataOut+0x2a>
 8007bde:	f8d4 32bc 	ldr.w	r3, [r4, #700]	; 0x2bc
 8007be2:	68db      	ldr	r3, [r3, #12]
 8007be4:	f505 7186 	add.w	r1, r5, #268	; 0x10c
 8007be8:	f8d5 0104 	ldr.w	r0, [r5, #260]	; 0x104
 8007bec:	4798      	blx	r3
 8007bee:	2000      	movs	r0, #0
 8007bf0:	bd38      	pop	{r3, r4, r5, pc}
 8007bf2:	2002      	movs	r0, #2
 8007bf4:	e7fc      	b.n	8007bf0 <USBD_CDC_DataOut+0x28>

08007bf6 <USBD_CDC_DataIn>:
 8007bf6:	b538      	push	{r3, r4, r5, lr}
 8007bf8:	f8d0 22b8 	ldr.w	r2, [r0, #696]	; 0x2b8
 8007bfc:	f8d0 42c0 	ldr.w	r4, [r0, #704]	; 0x2c0
 8007c00:	b1f2      	cbz	r2, 8007c40 <USBD_CDC_DataIn+0x4a>
 8007c02:	eb01 0381 	add.w	r3, r1, r1, lsl #2
 8007c06:	eb00 0383 	add.w	r3, r0, r3, lsl #2
 8007c0a:	69db      	ldr	r3, [r3, #28]
 8007c0c:	b14b      	cbz	r3, 8007c22 <USBD_CDC_DataIn+0x2c>
 8007c0e:	eb01 0581 	add.w	r5, r1, r1, lsl #2
 8007c12:	eb04 04c5 	add.w	r4, r4, r5, lsl #3
 8007c16:	6ba5      	ldr	r5, [r4, #56]	; 0x38
 8007c18:	fbb3 f4f5 	udiv	r4, r3, r5
 8007c1c:	fb05 3314 	mls	r3, r5, r4, r3
 8007c20:	b123      	cbz	r3, 8007c2c <USBD_CDC_DataIn+0x36>
 8007c22:	2300      	movs	r3, #0
 8007c24:	f8c2 3114 	str.w	r3, [r2, #276]	; 0x114
 8007c28:	2000      	movs	r0, #0
 8007c2a:	bd38      	pop	{r3, r4, r5, pc}
 8007c2c:	eb01 0381 	add.w	r3, r1, r1, lsl #2
 8007c30:	eb00 0383 	add.w	r3, r0, r3, lsl #2
 8007c34:	2200      	movs	r2, #0
 8007c36:	61da      	str	r2, [r3, #28]
 8007c38:	4613      	mov	r3, r2
 8007c3a:	f001 f825 	bl	8008c88 <USBD_LL_Transmit>
 8007c3e:	e7f3      	b.n	8007c28 <USBD_CDC_DataIn+0x32>
 8007c40:	2002      	movs	r0, #2
 8007c42:	e7f2      	b.n	8007c2a <USBD_CDC_DataIn+0x34>

08007c44 <USBD_CDC_Setup>:
 8007c44:	b5f0      	push	{r4, r5, r6, r7, lr}
 8007c46:	b083      	sub	sp, #12
 8007c48:	4606      	mov	r6, r0
 8007c4a:	460c      	mov	r4, r1
 8007c4c:	f8d0 72b8 	ldr.w	r7, [r0, #696]	; 0x2b8
 8007c50:	2300      	movs	r3, #0
 8007c52:	f88d 3007 	strb.w	r3, [sp, #7]
 8007c56:	f8ad 3004 	strh.w	r3, [sp, #4]
 8007c5a:	780b      	ldrb	r3, [r1, #0]
 8007c5c:	f013 0560 	ands.w	r5, r3, #96	; 0x60
 8007c60:	d027      	beq.n	8007cb2 <USBD_CDC_Setup+0x6e>
 8007c62:	2d20      	cmp	r5, #32
 8007c64:	d153      	bne.n	8007d0e <USBD_CDC_Setup+0xca>
 8007c66:	88ca      	ldrh	r2, [r1, #6]
 8007c68:	b1da      	cbz	r2, 8007ca2 <USBD_CDC_Setup+0x5e>
 8007c6a:	f013 0f80 	tst.w	r3, #128	; 0x80
 8007c6e:	d00c      	beq.n	8007c8a <USBD_CDC_Setup+0x46>
 8007c70:	f8d0 32bc 	ldr.w	r3, [r0, #700]	; 0x2bc
 8007c74:	689b      	ldr	r3, [r3, #8]
 8007c76:	4639      	mov	r1, r7
 8007c78:	7860      	ldrb	r0, [r4, #1]
 8007c7a:	4798      	blx	r3
 8007c7c:	88e2      	ldrh	r2, [r4, #6]
 8007c7e:	4639      	mov	r1, r7
 8007c80:	4630      	mov	r0, r6
 8007c82:	f000 fd98 	bl	80087b6 <USBD_CtlSendData>
 8007c86:	2500      	movs	r5, #0
 8007c88:	e044      	b.n	8007d14 <USBD_CDC_Setup+0xd0>
 8007c8a:	784b      	ldrb	r3, [r1, #1]
 8007c8c:	f887 3100 	strb.w	r3, [r7, #256]	; 0x100
 8007c90:	798b      	ldrb	r3, [r1, #6]
 8007c92:	f887 3101 	strb.w	r3, [r7, #257]	; 0x101
 8007c96:	88ca      	ldrh	r2, [r1, #6]
 8007c98:	4639      	mov	r1, r7
 8007c9a:	f000 fda1 	bl	80087e0 <USBD_CtlPrepareRx>
 8007c9e:	2500      	movs	r5, #0
 8007ca0:	e038      	b.n	8007d14 <USBD_CDC_Setup+0xd0>
 8007ca2:	f8d0 32bc 	ldr.w	r3, [r0, #700]	; 0x2bc
 8007ca6:	689b      	ldr	r3, [r3, #8]
 8007ca8:	2200      	movs	r2, #0
 8007caa:	7848      	ldrb	r0, [r1, #1]
 8007cac:	4798      	blx	r3
 8007cae:	2500      	movs	r5, #0
 8007cb0:	e030      	b.n	8007d14 <USBD_CDC_Setup+0xd0>
 8007cb2:	784f      	ldrb	r7, [r1, #1]
 8007cb4:	2f0a      	cmp	r7, #10
 8007cb6:	d014      	beq.n	8007ce2 <USBD_CDC_Setup+0x9e>
 8007cb8:	2f0b      	cmp	r7, #11
 8007cba:	d020      	beq.n	8007cfe <USBD_CDC_Setup+0xba>
 8007cbc:	b11f      	cbz	r7, 8007cc6 <USBD_CDC_Setup+0x82>
 8007cbe:	f000 fa6e 	bl	800819e <USBD_CtlError>
 8007cc2:	2502      	movs	r5, #2
 8007cc4:	e026      	b.n	8007d14 <USBD_CDC_Setup+0xd0>
 8007cc6:	f890 329c 	ldrb.w	r3, [r0, #668]	; 0x29c
 8007cca:	2b03      	cmp	r3, #3
 8007ccc:	d003      	beq.n	8007cd6 <USBD_CDC_Setup+0x92>
 8007cce:	f000 fa66 	bl	800819e <USBD_CtlError>
 8007cd2:	2502      	movs	r5, #2
 8007cd4:	e01e      	b.n	8007d14 <USBD_CDC_Setup+0xd0>
 8007cd6:	2202      	movs	r2, #2
 8007cd8:	a901      	add	r1, sp, #4
 8007cda:	f000 fd6c 	bl	80087b6 <USBD_CtlSendData>
 8007cde:	463d      	mov	r5, r7
 8007ce0:	e018      	b.n	8007d14 <USBD_CDC_Setup+0xd0>
 8007ce2:	f890 329c 	ldrb.w	r3, [r0, #668]	; 0x29c
 8007ce6:	2b03      	cmp	r3, #3
 8007ce8:	d003      	beq.n	8007cf2 <USBD_CDC_Setup+0xae>
 8007cea:	f000 fa58 	bl	800819e <USBD_CtlError>
 8007cee:	2502      	movs	r5, #2
 8007cf0:	e010      	b.n	8007d14 <USBD_CDC_Setup+0xd0>
 8007cf2:	2201      	movs	r2, #1
 8007cf4:	f10d 0107 	add.w	r1, sp, #7
 8007cf8:	f000 fd5d 	bl	80087b6 <USBD_CtlSendData>
 8007cfc:	e00a      	b.n	8007d14 <USBD_CDC_Setup+0xd0>
 8007cfe:	f890 329c 	ldrb.w	r3, [r0, #668]	; 0x29c
 8007d02:	2b03      	cmp	r3, #3
 8007d04:	d006      	beq.n	8007d14 <USBD_CDC_Setup+0xd0>
 8007d06:	f000 fa4a 	bl	800819e <USBD_CtlError>
 8007d0a:	2502      	movs	r5, #2
 8007d0c:	e002      	b.n	8007d14 <USBD_CDC_Setup+0xd0>
 8007d0e:	f000 fa46 	bl	800819e <USBD_CtlError>
 8007d12:	2502      	movs	r5, #2
 8007d14:	4628      	mov	r0, r5
 8007d16:	b003      	add	sp, #12
 8007d18:	bdf0      	pop	{r4, r5, r6, r7, pc}

08007d1a <USBD_CDC_DeInit>:
 8007d1a:	b538      	push	{r3, r4, r5, lr}
 8007d1c:	4604      	mov	r4, r0
 8007d1e:	2181      	movs	r1, #129	; 0x81
 8007d20:	f000 ff7b 	bl	8008c1a <USBD_LL_CloseEP>
 8007d24:	2500      	movs	r5, #0
 8007d26:	62e5      	str	r5, [r4, #44]	; 0x2c
 8007d28:	2101      	movs	r1, #1
 8007d2a:	4620      	mov	r0, r4
 8007d2c:	f000 ff75 	bl	8008c1a <USBD_LL_CloseEP>
 8007d30:	f8c4 516c 	str.w	r5, [r4, #364]	; 0x16c
 8007d34:	2182      	movs	r1, #130	; 0x82
 8007d36:	4620      	mov	r0, r4
 8007d38:	f000 ff6f 	bl	8008c1a <USBD_LL_CloseEP>
 8007d3c:	6425      	str	r5, [r4, #64]	; 0x40
 8007d3e:	f8d4 32b8 	ldr.w	r3, [r4, #696]	; 0x2b8
 8007d42:	b14b      	cbz	r3, 8007d58 <USBD_CDC_DeInit+0x3e>
 8007d44:	f8d4 32bc 	ldr.w	r3, [r4, #700]	; 0x2bc
 8007d48:	685b      	ldr	r3, [r3, #4]
 8007d4a:	4798      	blx	r3
 8007d4c:	f8d4 02b8 	ldr.w	r0, [r4, #696]	; 0x2b8
 8007d50:	f000 ffb4 	bl	8008cbc <USBD_static_free>
 8007d54:	f8c4 52b8 	str.w	r5, [r4, #696]	; 0x2b8
 8007d58:	2000      	movs	r0, #0
 8007d5a:	bd38      	pop	{r3, r4, r5, pc}

08007d5c <USBD_CDC_Init>:
 8007d5c:	b570      	push	{r4, r5, r6, lr}
 8007d5e:	4604      	mov	r4, r0
 8007d60:	7c03      	ldrb	r3, [r0, #16]
 8007d62:	bbab      	cbnz	r3, 8007dd0 <USBD_CDC_Init+0x74>
 8007d64:	f44f 7380 	mov.w	r3, #256	; 0x100
 8007d68:	2202      	movs	r2, #2
 8007d6a:	2181      	movs	r1, #129	; 0x81
 8007d6c:	f000 ff4a 	bl	8008c04 <USBD_LL_OpenEP>
 8007d70:	2501      	movs	r5, #1
 8007d72:	62e5      	str	r5, [r4, #44]	; 0x2c
 8007d74:	f44f 7380 	mov.w	r3, #256	; 0x100
 8007d78:	2202      	movs	r2, #2
 8007d7a:	4629      	mov	r1, r5
 8007d7c:	4620      	mov	r0, r4
 8007d7e:	f000 ff41 	bl	8008c04 <USBD_LL_OpenEP>
 8007d82:	f8c4 516c 	str.w	r5, [r4, #364]	; 0x16c
 8007d86:	2308      	movs	r3, #8
 8007d88:	2203      	movs	r2, #3
 8007d8a:	2182      	movs	r1, #130	; 0x82
 8007d8c:	4620      	mov	r0, r4
 8007d8e:	f000 ff39 	bl	8008c04 <USBD_LL_OpenEP>
 8007d92:	2301      	movs	r3, #1
 8007d94:	6423      	str	r3, [r4, #64]	; 0x40
 8007d96:	f44f 708e 	mov.w	r0, #284	; 0x11c
 8007d9a:	f000 ff8b 	bl	8008cb4 <USBD_static_malloc>
 8007d9e:	4605      	mov	r5, r0
 8007da0:	f8c4 02b8 	str.w	r0, [r4, #696]	; 0x2b8
 8007da4:	b368      	cbz	r0, 8007e02 <USBD_CDC_Init+0xa6>
 8007da6:	f8d4 32bc 	ldr.w	r3, [r4, #700]	; 0x2bc
 8007daa:	681b      	ldr	r3, [r3, #0]
 8007dac:	4798      	blx	r3
 8007dae:	2300      	movs	r3, #0
 8007db0:	f8c5 3114 	str.w	r3, [r5, #276]	; 0x114
 8007db4:	f8c5 3118 	str.w	r3, [r5, #280]	; 0x118
 8007db8:	7c26      	ldrb	r6, [r4, #16]
 8007dba:	b9ce      	cbnz	r6, 8007df0 <USBD_CDC_Init+0x94>
 8007dbc:	f44f 7380 	mov.w	r3, #256	; 0x100
 8007dc0:	f8d5 2104 	ldr.w	r2, [r5, #260]	; 0x104
 8007dc4:	2101      	movs	r1, #1
 8007dc6:	4620      	mov	r0, r4
 8007dc8:	f000 ff66 	bl	8008c98 <USBD_LL_PrepareReceive>
 8007dcc:	4630      	mov	r0, r6
 8007dce:	bd70      	pop	{r4, r5, r6, pc}
 8007dd0:	2340      	movs	r3, #64	; 0x40
 8007dd2:	2202      	movs	r2, #2
 8007dd4:	2181      	movs	r1, #129	; 0x81
 8007dd6:	f000 ff15 	bl	8008c04 <USBD_LL_OpenEP>
 8007dda:	2501      	movs	r5, #1
 8007ddc:	62e5      	str	r5, [r4, #44]	; 0x2c
 8007dde:	2340      	movs	r3, #64	; 0x40
 8007de0:	2202      	movs	r2, #2
 8007de2:	4629      	mov	r1, r5
 8007de4:	4620      	mov	r0, r4
 8007de6:	f000 ff0d 	bl	8008c04 <USBD_LL_OpenEP>
 8007dea:	f8c4 516c 	str.w	r5, [r4, #364]	; 0x16c
 8007dee:	e7ca      	b.n	8007d86 <USBD_CDC_Init+0x2a>
 8007df0:	2340      	movs	r3, #64	; 0x40
 8007df2:	f8d5 2104 	ldr.w	r2, [r5, #260]	; 0x104
 8007df6:	2101      	movs	r1, #1
 8007df8:	4620      	mov	r0, r4
 8007dfa:	f000 ff4d 	bl	8008c98 <USBD_LL_PrepareReceive>
 8007dfe:	2600      	movs	r6, #0
 8007e00:	e7e4      	b.n	8007dcc <USBD_CDC_Init+0x70>
 8007e02:	2601      	movs	r6, #1
 8007e04:	e7e2      	b.n	8007dcc <USBD_CDC_Init+0x70>

08007e06 <USBD_CDC_RegisterInterface>:
 8007e06:	b119      	cbz	r1, 8007e10 <USBD_CDC_RegisterInterface+0xa>
 8007e08:	f8c0 12bc 	str.w	r1, [r0, #700]	; 0x2bc
 8007e0c:	2000      	movs	r0, #0
 8007e0e:	4770      	bx	lr
 8007e10:	2002      	movs	r0, #2
 8007e12:	4770      	bx	lr

08007e14 <USBD_CDC_SetTxBuffer>:
 8007e14:	f8d0 32b8 	ldr.w	r3, [r0, #696]	; 0x2b8
 8007e18:	f8c3 1108 	str.w	r1, [r3, #264]	; 0x108
 8007e1c:	f8c3 2110 	str.w	r2, [r3, #272]	; 0x110
 8007e20:	2000      	movs	r0, #0
 8007e22:	4770      	bx	lr

08007e24 <USBD_CDC_SetRxBuffer>:
 8007e24:	f8d0 32b8 	ldr.w	r3, [r0, #696]	; 0x2b8
 8007e28:	f8c3 1104 	str.w	r1, [r3, #260]	; 0x104
 8007e2c:	2000      	movs	r0, #0
 8007e2e:	4770      	bx	lr

08007e30 <USBD_CDC_TransmitPacket>:
 8007e30:	f8d0 22b8 	ldr.w	r2, [r0, #696]	; 0x2b8
 8007e34:	b1a2      	cbz	r2, 8007e60 <USBD_CDC_TransmitPacket+0x30>
 8007e36:	b508      	push	{r3, lr}
 8007e38:	f8d2 3114 	ldr.w	r3, [r2, #276]	; 0x114
 8007e3c:	b10b      	cbz	r3, 8007e42 <USBD_CDC_TransmitPacket+0x12>
 8007e3e:	2001      	movs	r0, #1
 8007e40:	bd08      	pop	{r3, pc}
 8007e42:	2301      	movs	r3, #1
 8007e44:	f8c2 3114 	str.w	r3, [r2, #276]	; 0x114
 8007e48:	f8d2 3110 	ldr.w	r3, [r2, #272]	; 0x110
 8007e4c:	6303      	str	r3, [r0, #48]	; 0x30
 8007e4e:	f8b2 3110 	ldrh.w	r3, [r2, #272]	; 0x110
 8007e52:	f8d2 2108 	ldr.w	r2, [r2, #264]	; 0x108
 8007e56:	2181      	movs	r1, #129	; 0x81
 8007e58:	f000 ff16 	bl	8008c88 <USBD_LL_Transmit>
 8007e5c:	2000      	movs	r0, #0
 8007e5e:	e7ef      	b.n	8007e40 <USBD_CDC_TransmitPacket+0x10>
 8007e60:	2002      	movs	r0, #2
 8007e62:	4770      	bx	lr

08007e64 <USBD_CDC_ReceivePacket>:
 8007e64:	f8d0 22b8 	ldr.w	r2, [r0, #696]	; 0x2b8
 8007e68:	b192      	cbz	r2, 8007e90 <USBD_CDC_ReceivePacket+0x2c>
 8007e6a:	b508      	push	{r3, lr}
 8007e6c:	7c03      	ldrb	r3, [r0, #16]
 8007e6e:	b943      	cbnz	r3, 8007e82 <USBD_CDC_ReceivePacket+0x1e>
 8007e70:	f44f 7380 	mov.w	r3, #256	; 0x100
 8007e74:	f8d2 2104 	ldr.w	r2, [r2, #260]	; 0x104
 8007e78:	2101      	movs	r1, #1
 8007e7a:	f000 ff0d 	bl	8008c98 <USBD_LL_PrepareReceive>
 8007e7e:	2000      	movs	r0, #0
 8007e80:	bd08      	pop	{r3, pc}
 8007e82:	2340      	movs	r3, #64	; 0x40
 8007e84:	f8d2 2104 	ldr.w	r2, [r2, #260]	; 0x104
 8007e88:	2101      	movs	r1, #1
 8007e8a:	f000 ff05 	bl	8008c98 <USBD_LL_PrepareReceive>
 8007e8e:	e7f6      	b.n	8007e7e <USBD_CDC_ReceivePacket+0x1a>
 8007e90:	2002      	movs	r0, #2
 8007e92:	4770      	bx	lr

08007e94 <USBD_Init>:
 8007e94:	b198      	cbz	r0, 8007ebe <USBD_Init+0x2a>
 8007e96:	b508      	push	{r3, lr}
 8007e98:	4603      	mov	r3, r0
 8007e9a:	f8d0 02b4 	ldr.w	r0, [r0, #692]	; 0x2b4
 8007e9e:	b110      	cbz	r0, 8007ea6 <USBD_Init+0x12>
 8007ea0:	2000      	movs	r0, #0
 8007ea2:	f8c3 02b4 	str.w	r0, [r3, #692]	; 0x2b4
 8007ea6:	b109      	cbz	r1, 8007eac <USBD_Init+0x18>
 8007ea8:	f8c3 12b0 	str.w	r1, [r3, #688]	; 0x2b0
 8007eac:	2101      	movs	r1, #1
 8007eae:	f883 129c 	strb.w	r1, [r3, #668]	; 0x29c
 8007eb2:	701a      	strb	r2, [r3, #0]
 8007eb4:	4618      	mov	r0, r3
 8007eb6:	f000 fe5b 	bl	8008b70 <USBD_LL_Init>
 8007eba:	2000      	movs	r0, #0
 8007ebc:	bd08      	pop	{r3, pc}
 8007ebe:	2002      	movs	r0, #2
 8007ec0:	4770      	bx	lr

08007ec2 <USBD_RegisterClass>:
 8007ec2:	b119      	cbz	r1, 8007ecc <USBD_RegisterClass+0xa>
 8007ec4:	f8c0 12b4 	str.w	r1, [r0, #692]	; 0x2b4
 8007ec8:	2000      	movs	r0, #0
 8007eca:	4770      	bx	lr
 8007ecc:	2002      	movs	r0, #2
 8007ece:	4770      	bx	lr

08007ed0 <USBD_Start>:
 8007ed0:	b508      	push	{r3, lr}
 8007ed2:	f000 fe8f 	bl	8008bf4 <USBD_LL_Start>
 8007ed6:	2000      	movs	r0, #0
 8007ed8:	bd08      	pop	{r3, pc}

08007eda <USBD_SetClassConfig>:
 8007eda:	b508      	push	{r3, lr}
 8007edc:	f8d0 32b4 	ldr.w	r3, [r0, #692]	; 0x2b4
 8007ee0:	b12b      	cbz	r3, 8007eee <USBD_SetClassConfig+0x14>
 8007ee2:	681b      	ldr	r3, [r3, #0]
 8007ee4:	4798      	blx	r3
 8007ee6:	b900      	cbnz	r0, 8007eea <USBD_SetClassConfig+0x10>
 8007ee8:	bd08      	pop	{r3, pc}
 8007eea:	2002      	movs	r0, #2
 8007eec:	e7fc      	b.n	8007ee8 <USBD_SetClassConfig+0xe>
 8007eee:	2002      	movs	r0, #2
 8007ef0:	e7fa      	b.n	8007ee8 <USBD_SetClassConfig+0xe>

08007ef2 <USBD_ClrClassConfig>:
 8007ef2:	b508      	push	{r3, lr}
 8007ef4:	f8d0 32b4 	ldr.w	r3, [r0, #692]	; 0x2b4
 8007ef8:	685b      	ldr	r3, [r3, #4]
 8007efa:	4798      	blx	r3
 8007efc:	2000      	movs	r0, #0
 8007efe:	bd08      	pop	{r3, pc}

08007f00 <USBD_LL_SetupStage>:
 8007f00:	b538      	push	{r3, r4, r5, lr}
 8007f02:	4604      	mov	r4, r0
 8007f04:	f500 752a 	add.w	r5, r0, #680	; 0x2a8
 8007f08:	4628      	mov	r0, r5
 8007f0a:	f000 f934 	bl	8008176 <USBD_ParseSetupRequest>
 8007f0e:	2301      	movs	r3, #1
 8007f10:	f8c4 3294 	str.w	r3, [r4, #660]	; 0x294
 8007f14:	f8b4 32ae 	ldrh.w	r3, [r4, #686]	; 0x2ae
 8007f18:	f8c4 3298 	str.w	r3, [r4, #664]	; 0x298
 8007f1c:	f894 12a8 	ldrb.w	r1, [r4, #680]	; 0x2a8
 8007f20:	f001 031f 	and.w	r3, r1, #31
 8007f24:	2b01      	cmp	r3, #1
 8007f26:	d00e      	beq.n	8007f46 <USBD_LL_SetupStage+0x46>
 8007f28:	2b02      	cmp	r3, #2
 8007f2a:	d011      	beq.n	8007f50 <USBD_LL_SetupStage+0x50>
 8007f2c:	b12b      	cbz	r3, 8007f3a <USBD_LL_SetupStage+0x3a>
 8007f2e:	f001 0180 	and.w	r1, r1, #128	; 0x80
 8007f32:	4620      	mov	r0, r4
 8007f34:	f000 fe79 	bl	8008c2a <USBD_LL_StallEP>
 8007f38:	e003      	b.n	8007f42 <USBD_LL_SetupStage+0x42>
 8007f3a:	4629      	mov	r1, r5
 8007f3c:	4620      	mov	r0, r4
 8007f3e:	f000 fac9 	bl	80084d4 <USBD_StdDevReq>
 8007f42:	2000      	movs	r0, #0
 8007f44:	bd38      	pop	{r3, r4, r5, pc}
 8007f46:	4629      	mov	r1, r5
 8007f48:	4620      	mov	r0, r4
 8007f4a:	f000 faf7 	bl	800853c <USBD_StdItfReq>
 8007f4e:	e7f8      	b.n	8007f42 <USBD_LL_SetupStage+0x42>
 8007f50:	4629      	mov	r1, r5
 8007f52:	4620      	mov	r0, r4
 8007f54:	f000 fb22 	bl	800859c <USBD_StdEPReq>
 8007f58:	e7f3      	b.n	8007f42 <USBD_LL_SetupStage+0x42>

08007f5a <USBD_LL_DataOutStage>:
 8007f5a:	b538      	push	{r3, r4, r5, lr}
 8007f5c:	4604      	mov	r4, r0
 8007f5e:	460d      	mov	r5, r1
 8007f60:	bb91      	cbnz	r1, 8007fc8 <USBD_LL_DataOutStage+0x6e>
 8007f62:	4613      	mov	r3, r2
 8007f64:	f8d0 2294 	ldr.w	r2, [r0, #660]	; 0x294
 8007f68:	2a03      	cmp	r2, #3
 8007f6a:	d003      	beq.n	8007f74 <USBD_LL_DataOutStage+0x1a>
 8007f6c:	2a05      	cmp	r2, #5
 8007f6e:	d024      	beq.n	8007fba <USBD_LL_DataOutStage+0x60>
 8007f70:	4608      	mov	r0, r1
 8007f72:	e033      	b.n	8007fdc <USBD_LL_DataOutStage+0x82>
 8007f74:	f8d0 1160 	ldr.w	r1, [r0, #352]	; 0x160
 8007f78:	f8d0 2164 	ldr.w	r2, [r0, #356]	; 0x164
 8007f7c:	4291      	cmp	r1, r2
 8007f7e:	d90d      	bls.n	8007f9c <USBD_LL_DataOutStage+0x42>
 8007f80:	1a89      	subs	r1, r1, r2
 8007f82:	f8c0 1160 	str.w	r1, [r0, #352]	; 0x160
 8007f86:	428a      	cmp	r2, r1
 8007f88:	d906      	bls.n	8007f98 <USBD_LL_DataOutStage+0x3e>
 8007f8a:	b28a      	uxth	r2, r1
 8007f8c:	4619      	mov	r1, r3
 8007f8e:	4620      	mov	r0, r4
 8007f90:	f000 fc35 	bl	80087fe <USBD_CtlContinueRx>
 8007f94:	4628      	mov	r0, r5
 8007f96:	e021      	b.n	8007fdc <USBD_LL_DataOutStage+0x82>
 8007f98:	b292      	uxth	r2, r2
 8007f9a:	e7f7      	b.n	8007f8c <USBD_LL_DataOutStage+0x32>
 8007f9c:	f8d0 32b4 	ldr.w	r3, [r0, #692]	; 0x2b4
 8007fa0:	691b      	ldr	r3, [r3, #16]
 8007fa2:	b11b      	cbz	r3, 8007fac <USBD_LL_DataOutStage+0x52>
 8007fa4:	f890 229c 	ldrb.w	r2, [r0, #668]	; 0x29c
 8007fa8:	2a03      	cmp	r2, #3
 8007faa:	d004      	beq.n	8007fb6 <USBD_LL_DataOutStage+0x5c>
 8007fac:	4620      	mov	r0, r4
 8007fae:	f000 fc2e 	bl	800880e <USBD_CtlSendStatus>
 8007fb2:	4628      	mov	r0, r5
 8007fb4:	e012      	b.n	8007fdc <USBD_LL_DataOutStage+0x82>
 8007fb6:	4798      	blx	r3
 8007fb8:	e7f8      	b.n	8007fac <USBD_LL_DataOutStage+0x52>
 8007fba:	2100      	movs	r1, #0
 8007fbc:	f8c0 1294 	str.w	r1, [r0, #660]	; 0x294
 8007fc0:	f000 fe33 	bl	8008c2a <USBD_LL_StallEP>
 8007fc4:	4628      	mov	r0, r5
 8007fc6:	e009      	b.n	8007fdc <USBD_LL_DataOutStage+0x82>
 8007fc8:	f8d0 32b4 	ldr.w	r3, [r0, #692]	; 0x2b4
 8007fcc:	699b      	ldr	r3, [r3, #24]
 8007fce:	b133      	cbz	r3, 8007fde <USBD_LL_DataOutStage+0x84>
 8007fd0:	f890 229c 	ldrb.w	r2, [r0, #668]	; 0x29c
 8007fd4:	2a03      	cmp	r2, #3
 8007fd6:	d104      	bne.n	8007fe2 <USBD_LL_DataOutStage+0x88>
 8007fd8:	4798      	blx	r3
 8007fda:	2000      	movs	r0, #0
 8007fdc:	bd38      	pop	{r3, r4, r5, pc}
 8007fde:	2002      	movs	r0, #2
 8007fe0:	e7fc      	b.n	8007fdc <USBD_LL_DataOutStage+0x82>
 8007fe2:	2002      	movs	r0, #2
 8007fe4:	e7fa      	b.n	8007fdc <USBD_LL_DataOutStage+0x82>

08007fe6 <USBD_LL_DataInStage>:
 8007fe6:	b538      	push	{r3, r4, r5, lr}
 8007fe8:	4604      	mov	r4, r0
 8007fea:	460d      	mov	r5, r1
 8007fec:	2900      	cmp	r1, #0
 8007fee:	d153      	bne.n	8008098 <USBD_LL_DataInStage+0xb2>
 8007ff0:	4613      	mov	r3, r2
 8007ff2:	f8d0 2294 	ldr.w	r2, [r0, #660]	; 0x294
 8007ff6:	2a02      	cmp	r2, #2
 8007ff8:	d00c      	beq.n	8008014 <USBD_LL_DataInStage+0x2e>
 8007ffa:	2a04      	cmp	r2, #4
 8007ffc:	d000      	beq.n	8008000 <USBD_LL_DataInStage+0x1a>
 8007ffe:	b91a      	cbnz	r2, 8008008 <USBD_LL_DataInStage+0x22>
 8008000:	2180      	movs	r1, #128	; 0x80
 8008002:	4620      	mov	r0, r4
 8008004:	f000 fe11 	bl	8008c2a <USBD_LL_StallEP>
 8008008:	f894 32a0 	ldrb.w	r3, [r4, #672]	; 0x2a0
 800800c:	2b01      	cmp	r3, #1
 800800e:	d03e      	beq.n	800808e <USBD_LL_DataInStage+0xa8>
 8008010:	4628      	mov	r0, r5
 8008012:	bd38      	pop	{r3, r4, r5, pc}
 8008014:	6a01      	ldr	r1, [r0, #32]
 8008016:	6a42      	ldr	r2, [r0, #36]	; 0x24
 8008018:	4291      	cmp	r1, r2
 800801a:	d81b      	bhi.n	8008054 <USBD_LL_DataInStage+0x6e>
 800801c:	69c1      	ldr	r1, [r0, #28]
 800801e:	fbb1 f3f2 	udiv	r3, r1, r2
 8008022:	fb02 1313 	mls	r3, r2, r3, r1
 8008026:	b92b      	cbnz	r3, 8008034 <USBD_LL_DataInStage+0x4e>
 8008028:	428a      	cmp	r2, r1
 800802a:	d803      	bhi.n	8008034 <USBD_LL_DataInStage+0x4e>
 800802c:	f8d0 3298 	ldr.w	r3, [r0, #664]	; 0x298
 8008030:	4299      	cmp	r1, r3
 8008032:	d31c      	bcc.n	800806e <USBD_LL_DataInStage+0x88>
 8008034:	f8d4 32b4 	ldr.w	r3, [r4, #692]	; 0x2b4
 8008038:	68db      	ldr	r3, [r3, #12]
 800803a:	b11b      	cbz	r3, 8008044 <USBD_LL_DataInStage+0x5e>
 800803c:	f894 229c 	ldrb.w	r2, [r4, #668]	; 0x29c
 8008040:	2a03      	cmp	r2, #3
 8008042:	d021      	beq.n	8008088 <USBD_LL_DataInStage+0xa2>
 8008044:	2180      	movs	r1, #128	; 0x80
 8008046:	4620      	mov	r0, r4
 8008048:	f000 fdef 	bl	8008c2a <USBD_LL_StallEP>
 800804c:	4620      	mov	r0, r4
 800804e:	f000 fbe9 	bl	8008824 <USBD_CtlReceiveStatus>
 8008052:	e7d9      	b.n	8008008 <USBD_LL_DataInStage+0x22>
 8008054:	1a8a      	subs	r2, r1, r2
 8008056:	6202      	str	r2, [r0, #32]
 8008058:	b292      	uxth	r2, r2
 800805a:	4619      	mov	r1, r3
 800805c:	f000 fbb8 	bl	80087d0 <USBD_CtlContinueSendData>
 8008060:	2300      	movs	r3, #0
 8008062:	461a      	mov	r2, r3
 8008064:	4619      	mov	r1, r3
 8008066:	4620      	mov	r0, r4
 8008068:	f000 fe16 	bl	8008c98 <USBD_LL_PrepareReceive>
 800806c:	e7cc      	b.n	8008008 <USBD_LL_DataInStage+0x22>
 800806e:	2200      	movs	r2, #0
 8008070:	4611      	mov	r1, r2
 8008072:	f000 fbad 	bl	80087d0 <USBD_CtlContinueSendData>
 8008076:	2100      	movs	r1, #0
 8008078:	f8c4 1298 	str.w	r1, [r4, #664]	; 0x298
 800807c:	460b      	mov	r3, r1
 800807e:	460a      	mov	r2, r1
 8008080:	4620      	mov	r0, r4
 8008082:	f000 fe09 	bl	8008c98 <USBD_LL_PrepareReceive>
 8008086:	e7bf      	b.n	8008008 <USBD_LL_DataInStage+0x22>
 8008088:	4620      	mov	r0, r4
 800808a:	4798      	blx	r3
 800808c:	e7da      	b.n	8008044 <USBD_LL_DataInStage+0x5e>
 800808e:	2300      	movs	r3, #0
 8008090:	f884 32a0 	strb.w	r3, [r4, #672]	; 0x2a0
 8008094:	4628      	mov	r0, r5
 8008096:	e7bc      	b.n	8008012 <USBD_LL_DataInStage+0x2c>
 8008098:	f8d0 32b4 	ldr.w	r3, [r0, #692]	; 0x2b4
 800809c:	695b      	ldr	r3, [r3, #20]
 800809e:	b133      	cbz	r3, 80080ae <USBD_LL_DataInStage+0xc8>
 80080a0:	f890 229c 	ldrb.w	r2, [r0, #668]	; 0x29c
 80080a4:	2a03      	cmp	r2, #3
 80080a6:	d104      	bne.n	80080b2 <USBD_LL_DataInStage+0xcc>
 80080a8:	4798      	blx	r3
 80080aa:	2000      	movs	r0, #0
 80080ac:	e7b1      	b.n	8008012 <USBD_LL_DataInStage+0x2c>
 80080ae:	2002      	movs	r0, #2
 80080b0:	e7af      	b.n	8008012 <USBD_LL_DataInStage+0x2c>
 80080b2:	2002      	movs	r0, #2
 80080b4:	e7ad      	b.n	8008012 <USBD_LL_DataInStage+0x2c>

080080b6 <USBD_LL_Reset>:
 80080b6:	b570      	push	{r4, r5, r6, lr}
 80080b8:	4604      	mov	r4, r0
 80080ba:	2340      	movs	r3, #64	; 0x40
 80080bc:	2200      	movs	r2, #0
 80080be:	4611      	mov	r1, r2
 80080c0:	f000 fda0 	bl	8008c04 <USBD_LL_OpenEP>
 80080c4:	2501      	movs	r5, #1
 80080c6:	f8c4 5158 	str.w	r5, [r4, #344]	; 0x158
 80080ca:	2640      	movs	r6, #64	; 0x40
 80080cc:	f8c4 6164 	str.w	r6, [r4, #356]	; 0x164
 80080d0:	4633      	mov	r3, r6
 80080d2:	2200      	movs	r2, #0
 80080d4:	2180      	movs	r1, #128	; 0x80
 80080d6:	4620      	mov	r0, r4
 80080d8:	f000 fd94 	bl	8008c04 <USBD_LL_OpenEP>
 80080dc:	61a5      	str	r5, [r4, #24]
 80080de:	6266      	str	r6, [r4, #36]	; 0x24
 80080e0:	f884 529c 	strb.w	r5, [r4, #668]	; 0x29c
 80080e4:	2300      	movs	r3, #0
 80080e6:	f8c4 3294 	str.w	r3, [r4, #660]	; 0x294
 80080ea:	6063      	str	r3, [r4, #4]
 80080ec:	f8c4 32a4 	str.w	r3, [r4, #676]	; 0x2a4
 80080f0:	f8d4 32b8 	ldr.w	r3, [r4, #696]	; 0x2b8
 80080f4:	b12b      	cbz	r3, 8008102 <USBD_LL_Reset+0x4c>
 80080f6:	f8d4 32b4 	ldr.w	r3, [r4, #692]	; 0x2b4
 80080fa:	685b      	ldr	r3, [r3, #4]
 80080fc:	2100      	movs	r1, #0
 80080fe:	4620      	mov	r0, r4
 8008100:	4798      	blx	r3
 8008102:	2000      	movs	r0, #0
 8008104:	bd70      	pop	{r4, r5, r6, pc}

08008106 <USBD_LL_SetSpeed>:
 8008106:	7401      	strb	r1, [r0, #16]
 8008108:	2000      	movs	r0, #0
 800810a:	4770      	bx	lr

0800810c <USBD_LL_Suspend>:
 800810c:	f890 329c 	ldrb.w	r3, [r0, #668]	; 0x29c
 8008110:	f880 329d 	strb.w	r3, [r0, #669]	; 0x29d
 8008114:	2304      	movs	r3, #4
 8008116:	f880 329c 	strb.w	r3, [r0, #668]	; 0x29c
 800811a:	2000      	movs	r0, #0
 800811c:	4770      	bx	lr

0800811e <USBD_LL_Resume>:
 800811e:	f890 329c 	ldrb.w	r3, [r0, #668]	; 0x29c
 8008122:	2b04      	cmp	r3, #4
 8008124:	d001      	beq.n	800812a <USBD_LL_Resume+0xc>
 8008126:	2000      	movs	r0, #0
 8008128:	4770      	bx	lr
 800812a:	f890 329d 	ldrb.w	r3, [r0, #669]	; 0x29d
 800812e:	f880 329c 	strb.w	r3, [r0, #668]	; 0x29c
 8008132:	e7f8      	b.n	8008126 <USBD_LL_Resume+0x8>

08008134 <USBD_LL_SOF>:
 8008134:	b508      	push	{r3, lr}
 8008136:	f890 329c 	ldrb.w	r3, [r0, #668]	; 0x29c
 800813a:	2b03      	cmp	r3, #3
 800813c:	d001      	beq.n	8008142 <USBD_LL_SOF+0xe>
 800813e:	2000      	movs	r0, #0
 8008140:	bd08      	pop	{r3, pc}
 8008142:	f8d0 32b4 	ldr.w	r3, [r0, #692]	; 0x2b4
 8008146:	69db      	ldr	r3, [r3, #28]
 8008148:	2b00      	cmp	r3, #0
 800814a:	d0f8      	beq.n	800813e <USBD_LL_SOF+0xa>
 800814c:	4798      	blx	r3
 800814e:	e7f6      	b.n	800813e <USBD_LL_SOF+0xa>

08008150 <USBD_GetLen>:
 8008150:	4603      	mov	r3, r0
 8008152:	2000      	movs	r0, #0
 8008154:	781a      	ldrb	r2, [r3, #0]
 8008156:	b11a      	cbz	r2, 8008160 <USBD_GetLen+0x10>
 8008158:	3001      	adds	r0, #1
 800815a:	b2c0      	uxtb	r0, r0
 800815c:	3301      	adds	r3, #1
 800815e:	e7f9      	b.n	8008154 <USBD_GetLen+0x4>
 8008160:	4770      	bx	lr

08008162 <USBD_SetFeature>:
 8008162:	b508      	push	{r3, lr}
 8008164:	884b      	ldrh	r3, [r1, #2]
 8008166:	2b01      	cmp	r3, #1
 8008168:	d000      	beq.n	800816c <USBD_SetFeature+0xa>
 800816a:	bd08      	pop	{r3, pc}
 800816c:	f8c0 32a4 	str.w	r3, [r0, #676]	; 0x2a4
 8008170:	f000 fb4d 	bl	800880e <USBD_CtlSendStatus>
 8008174:	e7f9      	b.n	800816a <USBD_SetFeature+0x8>

08008176 <USBD_ParseSetupRequest>:
 8008176:	780b      	ldrb	r3, [r1, #0]
 8008178:	7003      	strb	r3, [r0, #0]
 800817a:	784b      	ldrb	r3, [r1, #1]
 800817c:	7043      	strb	r3, [r0, #1]
 800817e:	788b      	ldrb	r3, [r1, #2]
 8008180:	78ca      	ldrb	r2, [r1, #3]
 8008182:	eb03 2302 	add.w	r3, r3, r2, lsl #8
 8008186:	8043      	strh	r3, [r0, #2]
 8008188:	790b      	ldrb	r3, [r1, #4]
 800818a:	794a      	ldrb	r2, [r1, #5]
 800818c:	eb03 2302 	add.w	r3, r3, r2, lsl #8
 8008190:	8083      	strh	r3, [r0, #4]
 8008192:	798b      	ldrb	r3, [r1, #6]
 8008194:	79ca      	ldrb	r2, [r1, #7]
 8008196:	eb03 2302 	add.w	r3, r3, r2, lsl #8
 800819a:	80c3      	strh	r3, [r0, #6]
 800819c:	4770      	bx	lr

0800819e <USBD_CtlError>:
 800819e:	b510      	push	{r4, lr}
 80081a0:	4604      	mov	r4, r0
 80081a2:	2180      	movs	r1, #128	; 0x80
 80081a4:	f000 fd41 	bl	8008c2a <USBD_LL_StallEP>
 80081a8:	2100      	movs	r1, #0
 80081aa:	4620      	mov	r0, r4
 80081ac:	f000 fd3d 	bl	8008c2a <USBD_LL_StallEP>
 80081b0:	bd10      	pop	{r4, pc}

080081b2 <USBD_GetDescriptor>:
 80081b2:	b530      	push	{r4, r5, lr}
 80081b4:	b083      	sub	sp, #12
 80081b6:	4605      	mov	r5, r0
 80081b8:	460c      	mov	r4, r1
 80081ba:	2300      	movs	r3, #0
 80081bc:	f8ad 3006 	strh.w	r3, [sp, #6]
 80081c0:	884a      	ldrh	r2, [r1, #2]
 80081c2:	0a13      	lsrs	r3, r2, #8
 80081c4:	3b01      	subs	r3, #1
 80081c6:	2b06      	cmp	r3, #6
 80081c8:	f200 80a4 	bhi.w	8008314 <USBD_GetDescriptor+0x162>
 80081cc:	e8df f003 	tbb	[pc, r3]
 80081d0:	a22c1804 	.word	0xa22c1804
 80081d4:	86a2      	.short	0x86a2
 80081d6:	93          	.byte	0x93
 80081d7:	00          	.byte	0x00
 80081d8:	f8d0 32b0 	ldr.w	r3, [r0, #688]	; 0x2b0
 80081dc:	681b      	ldr	r3, [r3, #0]
 80081de:	f10d 0106 	add.w	r1, sp, #6
 80081e2:	7c00      	ldrb	r0, [r0, #16]
 80081e4:	4798      	blx	r3
 80081e6:	f8bd 2006 	ldrh.w	r2, [sp, #6]
 80081ea:	b11a      	cbz	r2, 80081f4 <USBD_GetDescriptor+0x42>
 80081ec:	88e3      	ldrh	r3, [r4, #6]
 80081ee:	2b00      	cmp	r3, #0
 80081f0:	f040 8094 	bne.w	800831c <USBD_GetDescriptor+0x16a>
 80081f4:	88e3      	ldrh	r3, [r4, #6]
 80081f6:	2b00      	cmp	r3, #0
 80081f8:	f000 809a 	beq.w	8008330 <USBD_GetDescriptor+0x17e>
 80081fc:	b003      	add	sp, #12
 80081fe:	bd30      	pop	{r4, r5, pc}
 8008200:	7c03      	ldrb	r3, [r0, #16]
 8008202:	b943      	cbnz	r3, 8008216 <USBD_GetDescriptor+0x64>
 8008204:	f8d0 32b4 	ldr.w	r3, [r0, #692]	; 0x2b4
 8008208:	6a9b      	ldr	r3, [r3, #40]	; 0x28
 800820a:	f10d 0006 	add.w	r0, sp, #6
 800820e:	4798      	blx	r3
 8008210:	2302      	movs	r3, #2
 8008212:	7043      	strb	r3, [r0, #1]
 8008214:	e7e7      	b.n	80081e6 <USBD_GetDescriptor+0x34>
 8008216:	f8d0 32b4 	ldr.w	r3, [r0, #692]	; 0x2b4
 800821a:	6adb      	ldr	r3, [r3, #44]	; 0x2c
 800821c:	f10d 0006 	add.w	r0, sp, #6
 8008220:	4798      	blx	r3
 8008222:	2302      	movs	r3, #2
 8008224:	7043      	strb	r3, [r0, #1]
 8008226:	e7de      	b.n	80081e6 <USBD_GetDescriptor+0x34>
 8008228:	b2d2      	uxtb	r2, r2
 800822a:	2a05      	cmp	r2, #5
 800822c:	d852      	bhi.n	80082d4 <USBD_GetDescriptor+0x122>
 800822e:	e8df f002 	tbb	[pc, r2]
 8008232:	1003      	.short	0x1003
 8008234:	44372a1d 	.word	0x44372a1d
 8008238:	f8d0 32b0 	ldr.w	r3, [r0, #688]	; 0x2b0
 800823c:	685b      	ldr	r3, [r3, #4]
 800823e:	b123      	cbz	r3, 800824a <USBD_GetDescriptor+0x98>
 8008240:	f10d 0106 	add.w	r1, sp, #6
 8008244:	7c00      	ldrb	r0, [r0, #16]
 8008246:	4798      	blx	r3
 8008248:	e7cd      	b.n	80081e6 <USBD_GetDescriptor+0x34>
 800824a:	4621      	mov	r1, r4
 800824c:	f7ff ffa7 	bl	800819e <USBD_CtlError>
 8008250:	e7d4      	b.n	80081fc <USBD_GetDescriptor+0x4a>
 8008252:	f8d0 32b0 	ldr.w	r3, [r0, #688]	; 0x2b0
 8008256:	689b      	ldr	r3, [r3, #8]
 8008258:	b123      	cbz	r3, 8008264 <USBD_GetDescriptor+0xb2>
 800825a:	f10d 0106 	add.w	r1, sp, #6
 800825e:	7c00      	ldrb	r0, [r0, #16]
 8008260:	4798      	blx	r3
 8008262:	e7c0      	b.n	80081e6 <USBD_GetDescriptor+0x34>
 8008264:	4621      	mov	r1, r4
 8008266:	f7ff ff9a 	bl	800819e <USBD_CtlError>
 800826a:	e7c7      	b.n	80081fc <USBD_GetDescriptor+0x4a>
 800826c:	f8d0 32b0 	ldr.w	r3, [r0, #688]	; 0x2b0
 8008270:	68db      	ldr	r3, [r3, #12]
 8008272:	b123      	cbz	r3, 800827e <USBD_GetDescriptor+0xcc>
 8008274:	f10d 0106 	add.w	r1, sp, #6
 8008278:	7c00      	ldrb	r0, [r0, #16]
 800827a:	4798      	blx	r3
 800827c:	e7b3      	b.n	80081e6 <USBD_GetDescriptor+0x34>
 800827e:	4621      	mov	r1, r4
 8008280:	f7ff ff8d 	bl	800819e <USBD_CtlError>
 8008284:	e7ba      	b.n	80081fc <USBD_GetDescriptor+0x4a>
 8008286:	f8d0 32b0 	ldr.w	r3, [r0, #688]	; 0x2b0
 800828a:	691b      	ldr	r3, [r3, #16]
 800828c:	b123      	cbz	r3, 8008298 <USBD_GetDescriptor+0xe6>
 800828e:	f10d 0106 	add.w	r1, sp, #6
 8008292:	7c00      	ldrb	r0, [r0, #16]
 8008294:	4798      	blx	r3
 8008296:	e7a6      	b.n	80081e6 <USBD_GetDescriptor+0x34>
 8008298:	4621      	mov	r1, r4
 800829a:	f7ff ff80 	bl	800819e <USBD_CtlError>
 800829e:	e7ad      	b.n	80081fc <USBD_GetDescriptor+0x4a>
 80082a0:	f8d0 32b0 	ldr.w	r3, [r0, #688]	; 0x2b0
 80082a4:	695b      	ldr	r3, [r3, #20]
 80082a6:	b123      	cbz	r3, 80082b2 <USBD_GetDescriptor+0x100>
 80082a8:	f10d 0106 	add.w	r1, sp, #6
 80082ac:	7c00      	ldrb	r0, [r0, #16]
 80082ae:	4798      	blx	r3
 80082b0:	e799      	b.n	80081e6 <USBD_GetDescriptor+0x34>
 80082b2:	4621      	mov	r1, r4
 80082b4:	f7ff ff73 	bl	800819e <USBD_CtlError>
 80082b8:	e7a0      	b.n	80081fc <USBD_GetDescriptor+0x4a>
 80082ba:	f8d0 32b0 	ldr.w	r3, [r0, #688]	; 0x2b0
 80082be:	699b      	ldr	r3, [r3, #24]
 80082c0:	b123      	cbz	r3, 80082cc <USBD_GetDescriptor+0x11a>
 80082c2:	f10d 0106 	add.w	r1, sp, #6
 80082c6:	7c00      	ldrb	r0, [r0, #16]
 80082c8:	4798      	blx	r3
 80082ca:	e78c      	b.n	80081e6 <USBD_GetDescriptor+0x34>
 80082cc:	4621      	mov	r1, r4
 80082ce:	f7ff ff66 	bl	800819e <USBD_CtlError>
 80082d2:	e793      	b.n	80081fc <USBD_GetDescriptor+0x4a>
 80082d4:	4621      	mov	r1, r4
 80082d6:	f7ff ff62 	bl	800819e <USBD_CtlError>
 80082da:	e78f      	b.n	80081fc <USBD_GetDescriptor+0x4a>
 80082dc:	7c03      	ldrb	r3, [r0, #16]
 80082de:	b933      	cbnz	r3, 80082ee <USBD_GetDescriptor+0x13c>
 80082e0:	f8d0 32b4 	ldr.w	r3, [r0, #692]	; 0x2b4
 80082e4:	6b5b      	ldr	r3, [r3, #52]	; 0x34
 80082e6:	f10d 0006 	add.w	r0, sp, #6
 80082ea:	4798      	blx	r3
 80082ec:	e77b      	b.n	80081e6 <USBD_GetDescriptor+0x34>
 80082ee:	4621      	mov	r1, r4
 80082f0:	f7ff ff55 	bl	800819e <USBD_CtlError>
 80082f4:	e782      	b.n	80081fc <USBD_GetDescriptor+0x4a>
 80082f6:	7c03      	ldrb	r3, [r0, #16]
 80082f8:	b943      	cbnz	r3, 800830c <USBD_GetDescriptor+0x15a>
 80082fa:	f8d0 32b4 	ldr.w	r3, [r0, #692]	; 0x2b4
 80082fe:	6b1b      	ldr	r3, [r3, #48]	; 0x30
 8008300:	f10d 0006 	add.w	r0, sp, #6
 8008304:	4798      	blx	r3
 8008306:	2307      	movs	r3, #7
 8008308:	7043      	strb	r3, [r0, #1]
 800830a:	e76c      	b.n	80081e6 <USBD_GetDescriptor+0x34>
 800830c:	4621      	mov	r1, r4
 800830e:	f7ff ff46 	bl	800819e <USBD_CtlError>
 8008312:	e773      	b.n	80081fc <USBD_GetDescriptor+0x4a>
 8008314:	4621      	mov	r1, r4
 8008316:	f7ff ff42 	bl	800819e <USBD_CtlError>
 800831a:	e76f      	b.n	80081fc <USBD_GetDescriptor+0x4a>
 800831c:	429a      	cmp	r2, r3
 800831e:	bf28      	it	cs
 8008320:	461a      	movcs	r2, r3
 8008322:	f8ad 2006 	strh.w	r2, [sp, #6]
 8008326:	4601      	mov	r1, r0
 8008328:	4628      	mov	r0, r5
 800832a:	f000 fa44 	bl	80087b6 <USBD_CtlSendData>
 800832e:	e761      	b.n	80081f4 <USBD_GetDescriptor+0x42>
 8008330:	4628      	mov	r0, r5
 8008332:	f000 fa6c 	bl	800880e <USBD_CtlSendStatus>
 8008336:	e761      	b.n	80081fc <USBD_GetDescriptor+0x4a>

08008338 <USBD_SetAddress>:
 8008338:	b538      	push	{r3, r4, r5, lr}
 800833a:	4604      	mov	r4, r0
 800833c:	888b      	ldrh	r3, [r1, #4]
 800833e:	b9f3      	cbnz	r3, 800837e <USBD_SetAddress+0x46>
 8008340:	88cb      	ldrh	r3, [r1, #6]
 8008342:	b9e3      	cbnz	r3, 800837e <USBD_SetAddress+0x46>
 8008344:	884b      	ldrh	r3, [r1, #2]
 8008346:	2b7f      	cmp	r3, #127	; 0x7f
 8008348:	d819      	bhi.n	800837e <USBD_SetAddress+0x46>
 800834a:	f003 057f 	and.w	r5, r3, #127	; 0x7f
 800834e:	f890 329c 	ldrb.w	r3, [r0, #668]	; 0x29c
 8008352:	2b03      	cmp	r3, #3
 8008354:	d00c      	beq.n	8008370 <USBD_SetAddress+0x38>
 8008356:	f880 529e 	strb.w	r5, [r0, #670]	; 0x29e
 800835a:	4629      	mov	r1, r5
 800835c:	f000 fc8c 	bl	8008c78 <USBD_LL_SetUSBAddress>
 8008360:	4620      	mov	r0, r4
 8008362:	f000 fa54 	bl	800880e <USBD_CtlSendStatus>
 8008366:	b135      	cbz	r5, 8008376 <USBD_SetAddress+0x3e>
 8008368:	2302      	movs	r3, #2
 800836a:	f884 329c 	strb.w	r3, [r4, #668]	; 0x29c
 800836e:	e009      	b.n	8008384 <USBD_SetAddress+0x4c>
 8008370:	f7ff ff15 	bl	800819e <USBD_CtlError>
 8008374:	e006      	b.n	8008384 <USBD_SetAddress+0x4c>
 8008376:	2301      	movs	r3, #1
 8008378:	f884 329c 	strb.w	r3, [r4, #668]	; 0x29c
 800837c:	e002      	b.n	8008384 <USBD_SetAddress+0x4c>
 800837e:	4620      	mov	r0, r4
 8008380:	f7ff ff0d 	bl	800819e <USBD_CtlError>
 8008384:	bd38      	pop	{r3, r4, r5, pc}
	...

08008388 <USBD_SetConfig>:
 8008388:	b538      	push	{r3, r4, r5, lr}
 800838a:	4604      	mov	r4, r0
 800838c:	460d      	mov	r5, r1
 800838e:	7889      	ldrb	r1, [r1, #2]
 8008390:	4b28      	ldr	r3, [pc, #160]	; (8008434 <USBD_SetConfig+0xac>)
 8008392:	7019      	strb	r1, [r3, #0]
 8008394:	2901      	cmp	r1, #1
 8008396:	d80e      	bhi.n	80083b6 <USBD_SetConfig+0x2e>
 8008398:	f890 329c 	ldrb.w	r3, [r0, #668]	; 0x29c
 800839c:	2b02      	cmp	r3, #2
 800839e:	d00e      	beq.n	80083be <USBD_SetConfig+0x36>
 80083a0:	2b03      	cmp	r3, #3
 80083a2:	d021      	beq.n	80083e8 <USBD_SetConfig+0x60>
 80083a4:	4629      	mov	r1, r5
 80083a6:	f7ff fefa 	bl	800819e <USBD_CtlError>
 80083aa:	4b22      	ldr	r3, [pc, #136]	; (8008434 <USBD_SetConfig+0xac>)
 80083ac:	7819      	ldrb	r1, [r3, #0]
 80083ae:	4620      	mov	r0, r4
 80083b0:	f7ff fd9f 	bl	8007ef2 <USBD_ClrClassConfig>
 80083b4:	e002      	b.n	80083bc <USBD_SetConfig+0x34>
 80083b6:	4629      	mov	r1, r5
 80083b8:	f7ff fef1 	bl	800819e <USBD_CtlError>
 80083bc:	bd38      	pop	{r3, r4, r5, pc}
 80083be:	b181      	cbz	r1, 80083e2 <USBD_SetConfig+0x5a>
 80083c0:	6041      	str	r1, [r0, #4]
 80083c2:	2303      	movs	r3, #3
 80083c4:	f880 329c 	strb.w	r3, [r0, #668]	; 0x29c
 80083c8:	f7ff fd87 	bl	8007eda <USBD_SetClassConfig>
 80083cc:	2802      	cmp	r0, #2
 80083ce:	d003      	beq.n	80083d8 <USBD_SetConfig+0x50>
 80083d0:	4620      	mov	r0, r4
 80083d2:	f000 fa1c 	bl	800880e <USBD_CtlSendStatus>
 80083d6:	e7f1      	b.n	80083bc <USBD_SetConfig+0x34>
 80083d8:	4629      	mov	r1, r5
 80083da:	4620      	mov	r0, r4
 80083dc:	f7ff fedf 	bl	800819e <USBD_CtlError>
 80083e0:	e7ec      	b.n	80083bc <USBD_SetConfig+0x34>
 80083e2:	f000 fa14 	bl	800880e <USBD_CtlSendStatus>
 80083e6:	e7e9      	b.n	80083bc <USBD_SetConfig+0x34>
 80083e8:	b189      	cbz	r1, 800840e <USBD_SetConfig+0x86>
 80083ea:	6843      	ldr	r3, [r0, #4]
 80083ec:	4299      	cmp	r1, r3
 80083ee:	d01d      	beq.n	800842c <USBD_SetConfig+0xa4>
 80083f0:	b2d9      	uxtb	r1, r3
 80083f2:	f7ff fd7e 	bl	8007ef2 <USBD_ClrClassConfig>
 80083f6:	4b0f      	ldr	r3, [pc, #60]	; (8008434 <USBD_SetConfig+0xac>)
 80083f8:	7819      	ldrb	r1, [r3, #0]
 80083fa:	6061      	str	r1, [r4, #4]
 80083fc:	4620      	mov	r0, r4
 80083fe:	f7ff fd6c 	bl	8007eda <USBD_SetClassConfig>
 8008402:	2802      	cmp	r0, #2
 8008404:	d00d      	beq.n	8008422 <USBD_SetConfig+0x9a>
 8008406:	4620      	mov	r0, r4
 8008408:	f000 fa01 	bl	800880e <USBD_CtlSendStatus>
 800840c:	e7d6      	b.n	80083bc <USBD_SetConfig+0x34>
 800840e:	2302      	movs	r3, #2
 8008410:	f880 329c 	strb.w	r3, [r0, #668]	; 0x29c
 8008414:	6041      	str	r1, [r0, #4]
 8008416:	f7ff fd6c 	bl	8007ef2 <USBD_ClrClassConfig>
 800841a:	4620      	mov	r0, r4
 800841c:	f000 f9f7 	bl	800880e <USBD_CtlSendStatus>
 8008420:	e7cc      	b.n	80083bc <USBD_SetConfig+0x34>
 8008422:	4629      	mov	r1, r5
 8008424:	4620      	mov	r0, r4
 8008426:	f7ff feba 	bl	800819e <USBD_CtlError>
 800842a:	e7c7      	b.n	80083bc <USBD_SetConfig+0x34>
 800842c:	f000 f9ef 	bl	800880e <USBD_CtlSendStatus>
 8008430:	e7c4      	b.n	80083bc <USBD_SetConfig+0x34>
 8008432:	bf00      	nop
 8008434:	20000480 	.word	0x20000480

08008438 <USBD_GetConfig>:
 8008438:	b508      	push	{r3, lr}
 800843a:	88cb      	ldrh	r3, [r1, #6]
 800843c:	2b01      	cmp	r3, #1
 800843e:	d10a      	bne.n	8008456 <USBD_GetConfig+0x1e>
 8008440:	f890 329c 	ldrb.w	r3, [r0, #668]	; 0x29c
 8008444:	2b02      	cmp	r3, #2
 8008446:	d909      	bls.n	800845c <USBD_GetConfig+0x24>
 8008448:	2b03      	cmp	r3, #3
 800844a:	d109      	bne.n	8008460 <USBD_GetConfig+0x28>
 800844c:	2201      	movs	r2, #1
 800844e:	1d01      	adds	r1, r0, #4
 8008450:	f000 f9b1 	bl	80087b6 <USBD_CtlSendData>
 8008454:	e001      	b.n	800845a <USBD_GetConfig+0x22>
 8008456:	f7ff fea2 	bl	800819e <USBD_CtlError>
 800845a:	bd08      	pop	{r3, pc}
 800845c:	b25b      	sxtb	r3, r3
 800845e:	b913      	cbnz	r3, 8008466 <USBD_GetConfig+0x2e>
 8008460:	f7ff fe9d 	bl	800819e <USBD_CtlError>
 8008464:	e7f9      	b.n	800845a <USBD_GetConfig+0x22>
 8008466:	4601      	mov	r1, r0
 8008468:	2300      	movs	r3, #0
 800846a:	f841 3f08 	str.w	r3, [r1, #8]!
 800846e:	2201      	movs	r2, #1
 8008470:	f000 f9a1 	bl	80087b6 <USBD_CtlSendData>
 8008474:	e7f1      	b.n	800845a <USBD_GetConfig+0x22>

08008476 <USBD_GetStatus>:
 8008476:	b508      	push	{r3, lr}
 8008478:	f890 329c 	ldrb.w	r3, [r0, #668]	; 0x29c
 800847c:	3b01      	subs	r3, #1
 800847e:	2b02      	cmp	r3, #2
 8008480:	d812      	bhi.n	80084a8 <USBD_GetStatus+0x32>
 8008482:	88cb      	ldrh	r3, [r1, #6]
 8008484:	2b02      	cmp	r3, #2
 8008486:	d10c      	bne.n	80084a2 <USBD_GetStatus+0x2c>
 8008488:	2301      	movs	r3, #1
 800848a:	60c3      	str	r3, [r0, #12]
 800848c:	f8d0 32a4 	ldr.w	r3, [r0, #676]	; 0x2a4
 8008490:	b10b      	cbz	r3, 8008496 <USBD_GetStatus+0x20>
 8008492:	2303      	movs	r3, #3
 8008494:	60c3      	str	r3, [r0, #12]
 8008496:	2202      	movs	r2, #2
 8008498:	f100 010c 	add.w	r1, r0, #12
 800849c:	f000 f98b 	bl	80087b6 <USBD_CtlSendData>
 80084a0:	bd08      	pop	{r3, pc}
 80084a2:	f7ff fe7c 	bl	800819e <USBD_CtlError>
 80084a6:	e7fb      	b.n	80084a0 <USBD_GetStatus+0x2a>
 80084a8:	f7ff fe79 	bl	800819e <USBD_CtlError>
 80084ac:	e7f8      	b.n	80084a0 <USBD_GetStatus+0x2a>

080084ae <USBD_ClrFeature>:
 80084ae:	b508      	push	{r3, lr}
 80084b0:	f890 329c 	ldrb.w	r3, [r0, #668]	; 0x29c
 80084b4:	3b01      	subs	r3, #1
 80084b6:	2b02      	cmp	r3, #2
 80084b8:	d809      	bhi.n	80084ce <USBD_ClrFeature+0x20>
 80084ba:	884b      	ldrh	r3, [r1, #2]
 80084bc:	2b01      	cmp	r3, #1
 80084be:	d000      	beq.n	80084c2 <USBD_ClrFeature+0x14>
 80084c0:	bd08      	pop	{r3, pc}
 80084c2:	2300      	movs	r3, #0
 80084c4:	f8c0 32a4 	str.w	r3, [r0, #676]	; 0x2a4
 80084c8:	f000 f9a1 	bl	800880e <USBD_CtlSendStatus>
 80084cc:	e7f8      	b.n	80084c0 <USBD_ClrFeature+0x12>
 80084ce:	f7ff fe66 	bl	800819e <USBD_CtlError>
 80084d2:	e7f5      	b.n	80084c0 <USBD_ClrFeature+0x12>

080084d4 <USBD_StdDevReq>:
 80084d4:	b508      	push	{r3, lr}
 80084d6:	780b      	ldrb	r3, [r1, #0]
 80084d8:	f003 0360 	and.w	r3, r3, #96	; 0x60
 80084dc:	2b20      	cmp	r3, #32
 80084de:	d005      	beq.n	80084ec <USBD_StdDevReq+0x18>
 80084e0:	2b40      	cmp	r3, #64	; 0x40
 80084e2:	d003      	beq.n	80084ec <USBD_StdDevReq+0x18>
 80084e4:	b143      	cbz	r3, 80084f8 <USBD_StdDevReq+0x24>
 80084e6:	f7ff fe5a 	bl	800819e <USBD_CtlError>
 80084ea:	e003      	b.n	80084f4 <USBD_StdDevReq+0x20>
 80084ec:	f8d0 32b4 	ldr.w	r3, [r0, #692]	; 0x2b4
 80084f0:	689b      	ldr	r3, [r3, #8]
 80084f2:	4798      	blx	r3
 80084f4:	2000      	movs	r0, #0
 80084f6:	bd08      	pop	{r3, pc}
 80084f8:	784b      	ldrb	r3, [r1, #1]
 80084fa:	2b09      	cmp	r3, #9
 80084fc:	d81b      	bhi.n	8008536 <USBD_StdDevReq+0x62>
 80084fe:	e8df f003 	tbb	[pc, r3]
 8008502:	1711      	.short	0x1711
 8008504:	081a141a 	.word	0x081a141a
 8008508:	0b0e1a05 	.word	0x0b0e1a05
 800850c:	f7ff fe51 	bl	80081b2 <USBD_GetDescriptor>
 8008510:	e7f0      	b.n	80084f4 <USBD_StdDevReq+0x20>
 8008512:	f7ff ff11 	bl	8008338 <USBD_SetAddress>
 8008516:	e7ed      	b.n	80084f4 <USBD_StdDevReq+0x20>
 8008518:	f7ff ff36 	bl	8008388 <USBD_SetConfig>
 800851c:	e7ea      	b.n	80084f4 <USBD_StdDevReq+0x20>
 800851e:	f7ff ff8b 	bl	8008438 <USBD_GetConfig>
 8008522:	e7e7      	b.n	80084f4 <USBD_StdDevReq+0x20>
 8008524:	f7ff ffa7 	bl	8008476 <USBD_GetStatus>
 8008528:	e7e4      	b.n	80084f4 <USBD_StdDevReq+0x20>
 800852a:	f7ff fe1a 	bl	8008162 <USBD_SetFeature>
 800852e:	e7e1      	b.n	80084f4 <USBD_StdDevReq+0x20>
 8008530:	f7ff ffbd 	bl	80084ae <USBD_ClrFeature>
 8008534:	e7de      	b.n	80084f4 <USBD_StdDevReq+0x20>
 8008536:	f7ff fe32 	bl	800819e <USBD_CtlError>
 800853a:	e7db      	b.n	80084f4 <USBD_StdDevReq+0x20>

0800853c <USBD_StdItfReq>:
 800853c:	b538      	push	{r3, r4, r5, lr}
 800853e:	4605      	mov	r5, r0
 8008540:	460c      	mov	r4, r1
 8008542:	780b      	ldrb	r3, [r1, #0]
 8008544:	f003 0360 	and.w	r3, r3, #96	; 0x60
 8008548:	2b20      	cmp	r3, #32
 800854a:	d006      	beq.n	800855a <USBD_StdItfReq+0x1e>
 800854c:	2b40      	cmp	r3, #64	; 0x40
 800854e:	d004      	beq.n	800855a <USBD_StdItfReq+0x1e>
 8008550:	b11b      	cbz	r3, 800855a <USBD_StdItfReq+0x1e>
 8008552:	f7ff fe24 	bl	800819e <USBD_CtlError>
 8008556:	2000      	movs	r0, #0
 8008558:	bd38      	pop	{r3, r4, r5, pc}
 800855a:	f895 329c 	ldrb.w	r3, [r5, #668]	; 0x29c
 800855e:	3b01      	subs	r3, #1
 8008560:	2b02      	cmp	r3, #2
 8008562:	d816      	bhi.n	8008592 <USBD_StdItfReq+0x56>
 8008564:	7923      	ldrb	r3, [r4, #4]
 8008566:	2b01      	cmp	r3, #1
 8008568:	d80e      	bhi.n	8008588 <USBD_StdItfReq+0x4c>
 800856a:	f8d5 32b4 	ldr.w	r3, [r5, #692]	; 0x2b4
 800856e:	689b      	ldr	r3, [r3, #8]
 8008570:	4621      	mov	r1, r4
 8008572:	4628      	mov	r0, r5
 8008574:	4798      	blx	r3
 8008576:	88e3      	ldrh	r3, [r4, #6]
 8008578:	2b00      	cmp	r3, #0
 800857a:	d1ec      	bne.n	8008556 <USBD_StdItfReq+0x1a>
 800857c:	2800      	cmp	r0, #0
 800857e:	d1ea      	bne.n	8008556 <USBD_StdItfReq+0x1a>
 8008580:	4628      	mov	r0, r5
 8008582:	f000 f944 	bl	800880e <USBD_CtlSendStatus>
 8008586:	e7e6      	b.n	8008556 <USBD_StdItfReq+0x1a>
 8008588:	4621      	mov	r1, r4
 800858a:	4628      	mov	r0, r5
 800858c:	f7ff fe07 	bl	800819e <USBD_CtlError>
 8008590:	e7e1      	b.n	8008556 <USBD_StdItfReq+0x1a>
 8008592:	4621      	mov	r1, r4
 8008594:	4628      	mov	r0, r5
 8008596:	f7ff fe02 	bl	800819e <USBD_CtlError>
 800859a:	e7dc      	b.n	8008556 <USBD_StdItfReq+0x1a>

0800859c <USBD_StdEPReq>:
 800859c:	b570      	push	{r4, r5, r6, lr}
 800859e:	4605      	mov	r5, r0
 80085a0:	888b      	ldrh	r3, [r1, #4]
 80085a2:	780c      	ldrb	r4, [r1, #0]
 80085a4:	f004 0460 	and.w	r4, r4, #96	; 0x60
 80085a8:	2c20      	cmp	r4, #32
 80085aa:	d007      	beq.n	80085bc <USBD_StdEPReq+0x20>
 80085ac:	b2da      	uxtb	r2, r3
 80085ae:	2c40      	cmp	r4, #64	; 0x40
 80085b0:	d004      	beq.n	80085bc <USBD_StdEPReq+0x20>
 80085b2:	b15c      	cbz	r4, 80085cc <USBD_StdEPReq+0x30>
 80085b4:	f7ff fdf3 	bl	800819e <USBD_CtlError>
 80085b8:	2400      	movs	r4, #0
 80085ba:	e005      	b.n	80085c8 <USBD_StdEPReq+0x2c>
 80085bc:	f8d5 32b4 	ldr.w	r3, [r5, #692]	; 0x2b4
 80085c0:	689b      	ldr	r3, [r3, #8]
 80085c2:	4628      	mov	r0, r5
 80085c4:	4798      	blx	r3
 80085c6:	2400      	movs	r4, #0
 80085c8:	4620      	mov	r0, r4
 80085ca:	bd70      	pop	{r4, r5, r6, pc}
 80085cc:	2c20      	cmp	r4, #32
 80085ce:	d009      	beq.n	80085e4 <USBD_StdEPReq+0x48>
 80085d0:	784e      	ldrb	r6, [r1, #1]
 80085d2:	2e01      	cmp	r6, #1
 80085d4:	d033      	beq.n	800863e <USBD_StdEPReq+0xa2>
 80085d6:	2e03      	cmp	r6, #3
 80085d8:	d00a      	beq.n	80085f0 <USBD_StdEPReq+0x54>
 80085da:	2e00      	cmp	r6, #0
 80085dc:	d055      	beq.n	800868a <USBD_StdEPReq+0xee>
 80085de:	f7ff fdde 	bl	800819e <USBD_CtlError>
 80085e2:	e7f1      	b.n	80085c8 <USBD_StdEPReq+0x2c>
 80085e4:	f8d0 32b4 	ldr.w	r3, [r0, #692]	; 0x2b4
 80085e8:	689b      	ldr	r3, [r3, #8]
 80085ea:	4798      	blx	r3
 80085ec:	4604      	mov	r4, r0
 80085ee:	e7eb      	b.n	80085c8 <USBD_StdEPReq+0x2c>
 80085f0:	f890 329c 	ldrb.w	r3, [r0, #668]	; 0x29c
 80085f4:	2b02      	cmp	r3, #2
 80085f6:	d004      	beq.n	8008602 <USBD_StdEPReq+0x66>
 80085f8:	2b03      	cmp	r3, #3
 80085fa:	d011      	beq.n	8008620 <USBD_StdEPReq+0x84>
 80085fc:	f7ff fdcf 	bl	800819e <USBD_CtlError>
 8008600:	e7e2      	b.n	80085c8 <USBD_StdEPReq+0x2c>
 8008602:	b10a      	cbz	r2, 8008608 <USBD_StdEPReq+0x6c>
 8008604:	2a80      	cmp	r2, #128	; 0x80
 8008606:	d103      	bne.n	8008610 <USBD_StdEPReq+0x74>
 8008608:	4628      	mov	r0, r5
 800860a:	f7ff fdc8 	bl	800819e <USBD_CtlError>
 800860e:	e7db      	b.n	80085c8 <USBD_StdEPReq+0x2c>
 8008610:	4611      	mov	r1, r2
 8008612:	f000 fb0a 	bl	8008c2a <USBD_LL_StallEP>
 8008616:	2180      	movs	r1, #128	; 0x80
 8008618:	4628      	mov	r0, r5
 800861a:	f000 fb06 	bl	8008c2a <USBD_LL_StallEP>
 800861e:	e7d3      	b.n	80085c8 <USBD_StdEPReq+0x2c>
 8008620:	884b      	ldrh	r3, [r1, #2]
 8008622:	b923      	cbnz	r3, 800862e <USBD_StdEPReq+0x92>
 8008624:	b11a      	cbz	r2, 800862e <USBD_StdEPReq+0x92>
 8008626:	2a80      	cmp	r2, #128	; 0x80
 8008628:	d001      	beq.n	800862e <USBD_StdEPReq+0x92>
 800862a:	88cb      	ldrh	r3, [r1, #6]
 800862c:	b11b      	cbz	r3, 8008636 <USBD_StdEPReq+0x9a>
 800862e:	4628      	mov	r0, r5
 8008630:	f000 f8ed 	bl	800880e <USBD_CtlSendStatus>
 8008634:	e7c8      	b.n	80085c8 <USBD_StdEPReq+0x2c>
 8008636:	4611      	mov	r1, r2
 8008638:	f000 faf7 	bl	8008c2a <USBD_LL_StallEP>
 800863c:	e7f7      	b.n	800862e <USBD_StdEPReq+0x92>
 800863e:	f890 329c 	ldrb.w	r3, [r0, #668]	; 0x29c
 8008642:	2b02      	cmp	r3, #2
 8008644:	d004      	beq.n	8008650 <USBD_StdEPReq+0xb4>
 8008646:	2b03      	cmp	r3, #3
 8008648:	d011      	beq.n	800866e <USBD_StdEPReq+0xd2>
 800864a:	f7ff fda8 	bl	800819e <USBD_CtlError>
 800864e:	e7bb      	b.n	80085c8 <USBD_StdEPReq+0x2c>
 8008650:	b10a      	cbz	r2, 8008656 <USBD_StdEPReq+0xba>
 8008652:	2a80      	cmp	r2, #128	; 0x80
 8008654:	d103      	bne.n	800865e <USBD_StdEPReq+0xc2>
 8008656:	4628      	mov	r0, r5
 8008658:	f7ff fda1 	bl	800819e <USBD_CtlError>
 800865c:	e7b4      	b.n	80085c8 <USBD_StdEPReq+0x2c>
 800865e:	4611      	mov	r1, r2
 8008660:	f000 fae3 	bl	8008c2a <USBD_LL_StallEP>
 8008664:	2180      	movs	r1, #128	; 0x80
 8008666:	4628      	mov	r0, r5
 8008668:	f000 fadf 	bl	8008c2a <USBD_LL_StallEP>
 800866c:	e7ac      	b.n	80085c8 <USBD_StdEPReq+0x2c>
 800866e:	884b      	ldrh	r3, [r1, #2]
 8008670:	2b00      	cmp	r3, #0
 8008672:	d1a9      	bne.n	80085c8 <USBD_StdEPReq+0x2c>
 8008674:	f012 0f7f 	tst.w	r2, #127	; 0x7f
 8008678:	d103      	bne.n	8008682 <USBD_StdEPReq+0xe6>
 800867a:	4628      	mov	r0, r5
 800867c:	f000 f8c7 	bl	800880e <USBD_CtlSendStatus>
 8008680:	e7a2      	b.n	80085c8 <USBD_StdEPReq+0x2c>
 8008682:	4611      	mov	r1, r2
 8008684:	f000 fad9 	bl	8008c3a <USBD_LL_ClearStallEP>
 8008688:	e7f7      	b.n	800867a <USBD_StdEPReq+0xde>
 800868a:	f890 029c 	ldrb.w	r0, [r0, #668]	; 0x29c
 800868e:	2802      	cmp	r0, #2
 8008690:	d006      	beq.n	80086a0 <USBD_StdEPReq+0x104>
 8008692:	2803      	cmp	r0, #3
 8008694:	d029      	beq.n	80086ea <USBD_StdEPReq+0x14e>
 8008696:	4628      	mov	r0, r5
 8008698:	f7ff fd81 	bl	800819e <USBD_CtlError>
 800869c:	4634      	mov	r4, r6
 800869e:	e793      	b.n	80085c8 <USBD_StdEPReq+0x2c>
 80086a0:	b10a      	cbz	r2, 80086a6 <USBD_StdEPReq+0x10a>
 80086a2:	2a80      	cmp	r2, #128	; 0x80
 80086a4:	d113      	bne.n	80086ce <USBD_StdEPReq+0x132>
 80086a6:	f013 0f80 	tst.w	r3, #128	; 0x80
 80086aa:	d115      	bne.n	80086d8 <USBD_StdEPReq+0x13c>
 80086ac:	f002 027f 	and.w	r2, r2, #127	; 0x7f
 80086b0:	eb02 0282 	add.w	r2, r2, r2, lsl #2
 80086b4:	0091      	lsls	r1, r2, #2
 80086b6:	f501 71a8 	add.w	r1, r1, #336	; 0x150
 80086ba:	4429      	add	r1, r5
 80086bc:	3104      	adds	r1, #4
 80086be:	2300      	movs	r3, #0
 80086c0:	600b      	str	r3, [r1, #0]
 80086c2:	2202      	movs	r2, #2
 80086c4:	4628      	mov	r0, r5
 80086c6:	f000 f876 	bl	80087b6 <USBD_CtlSendData>
 80086ca:	4634      	mov	r4, r6
 80086cc:	e77c      	b.n	80085c8 <USBD_StdEPReq+0x2c>
 80086ce:	4628      	mov	r0, r5
 80086d0:	f7ff fd65 	bl	800819e <USBD_CtlError>
 80086d4:	4634      	mov	r4, r6
 80086d6:	e777      	b.n	80085c8 <USBD_StdEPReq+0x2c>
 80086d8:	f002 027f 	and.w	r2, r2, #127	; 0x7f
 80086dc:	eb02 0282 	add.w	r2, r2, r2, lsl #2
 80086e0:	0091      	lsls	r1, r2, #2
 80086e2:	3110      	adds	r1, #16
 80086e4:	4429      	add	r1, r5
 80086e6:	3104      	adds	r1, #4
 80086e8:	e7e9      	b.n	80086be <USBD_StdEPReq+0x122>
 80086ea:	b25b      	sxtb	r3, r3
 80086ec:	2b00      	cmp	r3, #0
 80086ee:	db1f      	blt.n	8008730 <USBD_StdEPReq+0x194>
 80086f0:	f002 000f 	and.w	r0, r2, #15
 80086f4:	eb00 0080 	add.w	r0, r0, r0, lsl #2
 80086f8:	eb05 0080 	add.w	r0, r5, r0, lsl #2
 80086fc:	f8d0 0158 	ldr.w	r0, [r0, #344]	; 0x158
 8008700:	b320      	cbz	r0, 800874c <USBD_StdEPReq+0x1b0>
 8008702:	2b00      	cmp	r3, #0
 8008704:	db27      	blt.n	8008756 <USBD_StdEPReq+0x1ba>
 8008706:	f002 037f 	and.w	r3, r2, #127	; 0x7f
 800870a:	eb03 0383 	add.w	r3, r3, r3, lsl #2
 800870e:	009c      	lsls	r4, r3, #2
 8008710:	f504 74a8 	add.w	r4, r4, #336	; 0x150
 8008714:	442c      	add	r4, r5
 8008716:	3404      	adds	r4, #4
 8008718:	b10a      	cbz	r2, 800871e <USBD_StdEPReq+0x182>
 800871a:	2a80      	cmp	r2, #128	; 0x80
 800871c:	d124      	bne.n	8008768 <USBD_StdEPReq+0x1cc>
 800871e:	2300      	movs	r3, #0
 8008720:	6023      	str	r3, [r4, #0]
 8008722:	2202      	movs	r2, #2
 8008724:	4621      	mov	r1, r4
 8008726:	4628      	mov	r0, r5
 8008728:	f000 f845 	bl	80087b6 <USBD_CtlSendData>
 800872c:	4634      	mov	r4, r6
 800872e:	e74b      	b.n	80085c8 <USBD_StdEPReq+0x2c>
 8008730:	f002 000f 	and.w	r0, r2, #15
 8008734:	eb00 0080 	add.w	r0, r0, r0, lsl #2
 8008738:	eb05 0080 	add.w	r0, r5, r0, lsl #2
 800873c:	6980      	ldr	r0, [r0, #24]
 800873e:	2800      	cmp	r0, #0
 8008740:	d1df      	bne.n	8008702 <USBD_StdEPReq+0x166>
 8008742:	4628      	mov	r0, r5
 8008744:	f7ff fd2b 	bl	800819e <USBD_CtlError>
 8008748:	4634      	mov	r4, r6
 800874a:	e73d      	b.n	80085c8 <USBD_StdEPReq+0x2c>
 800874c:	4628      	mov	r0, r5
 800874e:	f7ff fd26 	bl	800819e <USBD_CtlError>
 8008752:	4634      	mov	r4, r6
 8008754:	e738      	b.n	80085c8 <USBD_StdEPReq+0x2c>
 8008756:	f002 037f 	and.w	r3, r2, #127	; 0x7f
 800875a:	eb03 0383 	add.w	r3, r3, r3, lsl #2
 800875e:	009c      	lsls	r4, r3, #2
 8008760:	3410      	adds	r4, #16
 8008762:	442c      	add	r4, r5
 8008764:	3404      	adds	r4, #4
 8008766:	e7d7      	b.n	8008718 <USBD_StdEPReq+0x17c>
 8008768:	4611      	mov	r1, r2
 800876a:	4628      	mov	r0, r5
 800876c:	f000 fa6d 	bl	8008c4a <USBD_LL_IsStallEP>
 8008770:	b110      	cbz	r0, 8008778 <USBD_StdEPReq+0x1dc>
 8008772:	2301      	movs	r3, #1
 8008774:	6023      	str	r3, [r4, #0]
 8008776:	e7d4      	b.n	8008722 <USBD_StdEPReq+0x186>
 8008778:	2300      	movs	r3, #0
 800877a:	6023      	str	r3, [r4, #0]
 800877c:	e7d1      	b.n	8008722 <USBD_StdEPReq+0x186>

0800877e <USBD_GetString>:
 800877e:	b1c8      	cbz	r0, 80087b4 <USBD_GetString+0x36>
 8008780:	b570      	push	{r4, r5, r6, lr}
 8008782:	460d      	mov	r5, r1
 8008784:	4616      	mov	r6, r2
 8008786:	4604      	mov	r4, r0
 8008788:	f7ff fce2 	bl	8008150 <USBD_GetLen>
 800878c:	3001      	adds	r0, #1
 800878e:	0040      	lsls	r0, r0, #1
 8008790:	8030      	strh	r0, [r6, #0]
 8008792:	7028      	strb	r0, [r5, #0]
 8008794:	2303      	movs	r3, #3
 8008796:	706b      	strb	r3, [r5, #1]
 8008798:	2302      	movs	r3, #2
 800879a:	e007      	b.n	80087ac <USBD_GetString+0x2e>
 800879c:	3401      	adds	r4, #1
 800879e:	1c5a      	adds	r2, r3, #1
 80087a0:	b2d2      	uxtb	r2, r2
 80087a2:	54e8      	strb	r0, [r5, r3]
 80087a4:	3302      	adds	r3, #2
 80087a6:	b2db      	uxtb	r3, r3
 80087a8:	2100      	movs	r1, #0
 80087aa:	54a9      	strb	r1, [r5, r2]
 80087ac:	7820      	ldrb	r0, [r4, #0]
 80087ae:	2800      	cmp	r0, #0
 80087b0:	d1f4      	bne.n	800879c <USBD_GetString+0x1e>
 80087b2:	bd70      	pop	{r4, r5, r6, pc}
 80087b4:	4770      	bx	lr

080087b6 <USBD_CtlSendData>:
 80087b6:	b510      	push	{r4, lr}
 80087b8:	4613      	mov	r3, r2
 80087ba:	2202      	movs	r2, #2
 80087bc:	f8c0 2294 	str.w	r2, [r0, #660]	; 0x294
 80087c0:	61c3      	str	r3, [r0, #28]
 80087c2:	6203      	str	r3, [r0, #32]
 80087c4:	460a      	mov	r2, r1
 80087c6:	2100      	movs	r1, #0
 80087c8:	f000 fa5e 	bl	8008c88 <USBD_LL_Transmit>
 80087cc:	2000      	movs	r0, #0
 80087ce:	bd10      	pop	{r4, pc}

080087d0 <USBD_CtlContinueSendData>:
 80087d0:	b508      	push	{r3, lr}
 80087d2:	4613      	mov	r3, r2
 80087d4:	460a      	mov	r2, r1
 80087d6:	2100      	movs	r1, #0
 80087d8:	f000 fa56 	bl	8008c88 <USBD_LL_Transmit>
 80087dc:	2000      	movs	r0, #0
 80087de:	bd08      	pop	{r3, pc}

080087e0 <USBD_CtlPrepareRx>:
 80087e0:	b510      	push	{r4, lr}
 80087e2:	4613      	mov	r3, r2
 80087e4:	2203      	movs	r2, #3
 80087e6:	f8c0 2294 	str.w	r2, [r0, #660]	; 0x294
 80087ea:	f8c0 315c 	str.w	r3, [r0, #348]	; 0x15c
 80087ee:	f8c0 3160 	str.w	r3, [r0, #352]	; 0x160
 80087f2:	460a      	mov	r2, r1
 80087f4:	2100      	movs	r1, #0
 80087f6:	f000 fa4f 	bl	8008c98 <USBD_LL_PrepareReceive>
 80087fa:	2000      	movs	r0, #0
 80087fc:	bd10      	pop	{r4, pc}

080087fe <USBD_CtlContinueRx>:
 80087fe:	b508      	push	{r3, lr}
 8008800:	4613      	mov	r3, r2
 8008802:	460a      	mov	r2, r1
 8008804:	2100      	movs	r1, #0
 8008806:	f000 fa47 	bl	8008c98 <USBD_LL_PrepareReceive>
 800880a:	2000      	movs	r0, #0
 800880c:	bd08      	pop	{r3, pc}

0800880e <USBD_CtlSendStatus>:
 800880e:	b508      	push	{r3, lr}
 8008810:	2304      	movs	r3, #4
 8008812:	f8c0 3294 	str.w	r3, [r0, #660]	; 0x294
 8008816:	2300      	movs	r3, #0
 8008818:	461a      	mov	r2, r3
 800881a:	4619      	mov	r1, r3
 800881c:	f000 fa34 	bl	8008c88 <USBD_LL_Transmit>
 8008820:	2000      	movs	r0, #0
 8008822:	bd08      	pop	{r3, pc}

08008824 <USBD_CtlReceiveStatus>:
 8008824:	b508      	push	{r3, lr}
 8008826:	2305      	movs	r3, #5
 8008828:	f8c0 3294 	str.w	r3, [r0, #660]	; 0x294
 800882c:	2300      	movs	r3, #0
 800882e:	461a      	mov	r2, r3
 8008830:	4619      	mov	r1, r3
 8008832:	f000 fa31 	bl	8008c98 <USBD_LL_PrepareReceive>
 8008836:	2000      	movs	r0, #0
 8008838:	bd08      	pop	{r3, pc}
	...

0800883c <MX_USB_DEVICE_Init>:
 800883c:	b508      	push	{r3, lr}
 800883e:	2200      	movs	r2, #0
 8008840:	490f      	ldr	r1, [pc, #60]	; (8008880 <MX_USB_DEVICE_Init+0x44>)
 8008842:	4810      	ldr	r0, [pc, #64]	; (8008884 <MX_USB_DEVICE_Init+0x48>)
 8008844:	f7ff fb26 	bl	8007e94 <USBD_Init>
 8008848:	b970      	cbnz	r0, 8008868 <MX_USB_DEVICE_Init+0x2c>
 800884a:	490f      	ldr	r1, [pc, #60]	; (8008888 <MX_USB_DEVICE_Init+0x4c>)
 800884c:	480d      	ldr	r0, [pc, #52]	; (8008884 <MX_USB_DEVICE_Init+0x48>)
 800884e:	f7ff fb38 	bl	8007ec2 <USBD_RegisterClass>
 8008852:	b960      	cbnz	r0, 800886e <MX_USB_DEVICE_Init+0x32>
 8008854:	490d      	ldr	r1, [pc, #52]	; (800888c <MX_USB_DEVICE_Init+0x50>)
 8008856:	480b      	ldr	r0, [pc, #44]	; (8008884 <MX_USB_DEVICE_Init+0x48>)
 8008858:	f7ff fad5 	bl	8007e06 <USBD_CDC_RegisterInterface>
 800885c:	b950      	cbnz	r0, 8008874 <MX_USB_DEVICE_Init+0x38>
 800885e:	4809      	ldr	r0, [pc, #36]	; (8008884 <MX_USB_DEVICE_Init+0x48>)
 8008860:	f7ff fb36 	bl	8007ed0 <USBD_Start>
 8008864:	b948      	cbnz	r0, 800887a <MX_USB_DEVICE_Init+0x3e>
 8008866:	bd08      	pop	{r3, pc}
 8008868:	f7f8 fe74 	bl	8001554 <Error_Handler>
 800886c:	e7ed      	b.n	800884a <MX_USB_DEVICE_Init+0xe>
 800886e:	f7f8 fe71 	bl	8001554 <Error_Handler>
 8008872:	e7ef      	b.n	8008854 <MX_USB_DEVICE_Init+0x18>
 8008874:	f7f8 fe6e 	bl	8001554 <Error_Handler>
 8008878:	e7f1      	b.n	800885e <MX_USB_DEVICE_Init+0x22>
 800887a:	f7f8 fe6b 	bl	8001554 <Error_Handler>
 800887e:	e7f2      	b.n	8008866 <MX_USB_DEVICE_Init+0x2a>
 8008880:	20000134 	.word	0x20000134
 8008884:	20000634 	.word	0x20000634
 8008888:	20000014 	.word	0x20000014
 800888c:	20000124 	.word	0x20000124

08008890 <_ZL13CDC_DeInit_FSv>:
 8008890:	2000      	movs	r0, #0
 8008892:	4770      	bx	lr

08008894 <_ZL14CDC_Control_FShPht>:
 8008894:	2000      	movs	r0, #0
 8008896:	4770      	bx	lr

08008898 <_ZL11CDC_Init_FSv>:
 8008898:	b510      	push	{r4, lr}
 800889a:	4c06      	ldr	r4, [pc, #24]	; (80088b4 <_ZL11CDC_Init_FSv+0x1c>)
 800889c:	2200      	movs	r2, #0
 800889e:	4906      	ldr	r1, [pc, #24]	; (80088b8 <_ZL11CDC_Init_FSv+0x20>)
 80088a0:	4620      	mov	r0, r4
 80088a2:	f7ff fab7 	bl	8007e14 <USBD_CDC_SetTxBuffer>
 80088a6:	4905      	ldr	r1, [pc, #20]	; (80088bc <_ZL11CDC_Init_FSv+0x24>)
 80088a8:	4620      	mov	r0, r4
 80088aa:	f7ff fabb 	bl	8007e24 <USBD_CDC_SetRxBuffer>
 80088ae:	2000      	movs	r0, #0
 80088b0:	bd10      	pop	{r4, pc}
 80088b2:	bf00      	nop
 80088b4:	20000634 	.word	0x20000634
 80088b8:	200004c4 	.word	0x200004c4
 80088bc:	20000484 	.word	0x20000484

080088c0 <CDC_Transmit_FS>:
 80088c0:	4b09      	ldr	r3, [pc, #36]	; (80088e8 <CDC_Transmit_FS+0x28>)
 80088c2:	f8d3 32b8 	ldr.w	r3, [r3, #696]	; 0x2b8
 80088c6:	f8d3 3114 	ldr.w	r3, [r3, #276]	; 0x114
 80088ca:	b10b      	cbz	r3, 80088d0 <CDC_Transmit_FS+0x10>
 80088cc:	2001      	movs	r0, #1
 80088ce:	4770      	bx	lr
 80088d0:	b510      	push	{r4, lr}
 80088d2:	4c05      	ldr	r4, [pc, #20]	; (80088e8 <CDC_Transmit_FS+0x28>)
 80088d4:	460a      	mov	r2, r1
 80088d6:	4601      	mov	r1, r0
 80088d8:	4620      	mov	r0, r4
 80088da:	f7ff fa9b 	bl	8007e14 <USBD_CDC_SetTxBuffer>
 80088de:	4620      	mov	r0, r4
 80088e0:	f7ff faa6 	bl	8007e30 <USBD_CDC_TransmitPacket>
 80088e4:	bd10      	pop	{r4, pc}
 80088e6:	bf00      	nop
 80088e8:	20000634 	.word	0x20000634

080088ec <_ZL14CDC_Receive_FSPhPm>:
 80088ec:	b510      	push	{r4, lr}
 80088ee:	b08c      	sub	sp, #48	; 0x30
 80088f0:	ab02      	add	r3, sp, #8
 80088f2:	9300      	str	r3, [sp, #0]
 80088f4:	4604      	mov	r4, r0
 80088f6:	b330      	cbz	r0, 8008946 <_ZL14CDC_Receive_FSPhPm+0x5a>
 80088f8:	f7f7 fc28 	bl	800014c <strlen>
 80088fc:	1822      	adds	r2, r4, r0
 80088fe:	f04f 0300 	mov.w	r3, #0
 8008902:	4621      	mov	r1, r4
 8008904:	4668      	mov	r0, sp
 8008906:	f7f7 fd8d 	bl	8000424 <_ZNSt7__cxx1112basic_stringIcSt11char_traitsIcESaIcEE12_M_constructIPKcEEvT_S8_St20forward_iterator_tag>
 800890a:	ac08      	add	r4, sp, #32
 800890c:	9406      	str	r4, [sp, #24]
 800890e:	9900      	ldr	r1, [sp, #0]
 8008910:	f04f 0300 	mov.w	r3, #0
 8008914:	9a01      	ldr	r2, [sp, #4]
 8008916:	440a      	add	r2, r1
 8008918:	a806      	add	r0, sp, #24
 800891a:	f7f8 fae3 	bl	8000ee4 <_ZNSt7__cxx1112basic_stringIcSt11char_traitsIcESaIcEE12_M_constructIPcEEvT_S7_St20forward_iterator_tag>
 800891e:	a806      	add	r0, sp, #24
 8008920:	f7f7 fc66 	bl	80001f0 <_Z7ArreyRxNSt7__cxx1112basic_stringIcSt11char_traitsIcESaIcEEE>
 8008924:	9806      	ldr	r0, [sp, #24]
 8008926:	42a0      	cmp	r0, r4
 8008928:	d001      	beq.n	800892e <_ZL14CDC_Receive_FSPhPm+0x42>
 800892a:	f000 f9c9 	bl	8008cc0 <_ZdlPv>
 800892e:	4807      	ldr	r0, [pc, #28]	; (800894c <_ZL14CDC_Receive_FSPhPm+0x60>)
 8008930:	f7ff fa98 	bl	8007e64 <USBD_CDC_ReceivePacket>
 8008934:	9800      	ldr	r0, [sp, #0]
 8008936:	ab02      	add	r3, sp, #8
 8008938:	4298      	cmp	r0, r3
 800893a:	d001      	beq.n	8008940 <_ZL14CDC_Receive_FSPhPm+0x54>
 800893c:	f000 f9c0 	bl	8008cc0 <_ZdlPv>
 8008940:	2000      	movs	r0, #0
 8008942:	b00c      	add	sp, #48	; 0x30
 8008944:	bd10      	pop	{r4, pc}
 8008946:	1e42      	subs	r2, r0, #1
 8008948:	e7d9      	b.n	80088fe <_ZL14CDC_Receive_FSPhPm+0x12>
 800894a:	bf00      	nop
 800894c:	20000634 	.word	0x20000634

08008950 <USBD_FS_DeviceDescriptor>:
 8008950:	2312      	movs	r3, #18
 8008952:	800b      	strh	r3, [r1, #0]
 8008954:	4800      	ldr	r0, [pc, #0]	; (8008958 <USBD_FS_DeviceDescriptor+0x8>)
 8008956:	4770      	bx	lr
 8008958:	20000150 	.word	0x20000150

0800895c <USBD_FS_LangIDStrDescriptor>:
 800895c:	2304      	movs	r3, #4
 800895e:	800b      	strh	r3, [r1, #0]
 8008960:	4800      	ldr	r0, [pc, #0]	; (8008964 <USBD_FS_LangIDStrDescriptor+0x8>)
 8008962:	4770      	bx	lr
 8008964:	20000164 	.word	0x20000164

08008968 <IntToUnicode>:
 8008968:	2300      	movs	r3, #0
 800896a:	4293      	cmp	r3, r2
 800896c:	d217      	bcs.n	800899e <IntToUnicode+0x36>
 800896e:	b430      	push	{r4, r5}
 8008970:	e00b      	b.n	800898a <IntToUnicode+0x22>
 8008972:	3437      	adds	r4, #55	; 0x37
 8008974:	f801 4013 	strb.w	r4, [r1, r3, lsl #1]
 8008978:	0100      	lsls	r0, r0, #4
 800897a:	005c      	lsls	r4, r3, #1
 800897c:	3401      	adds	r4, #1
 800897e:	2500      	movs	r5, #0
 8008980:	550d      	strb	r5, [r1, r4]
 8008982:	3301      	adds	r3, #1
 8008984:	b2db      	uxtb	r3, r3
 8008986:	4293      	cmp	r3, r2
 8008988:	d207      	bcs.n	800899a <IntToUnicode+0x32>
 800898a:	0f04      	lsrs	r4, r0, #28
 800898c:	f1b0 4f20 	cmp.w	r0, #2684354560	; 0xa0000000
 8008990:	d2ef      	bcs.n	8008972 <IntToUnicode+0xa>
 8008992:	3430      	adds	r4, #48	; 0x30
 8008994:	f801 4013 	strb.w	r4, [r1, r3, lsl #1]
 8008998:	e7ee      	b.n	8008978 <IntToUnicode+0x10>
 800899a:	bc30      	pop	{r4, r5}
 800899c:	4770      	bx	lr
 800899e:	4770      	bx	lr

080089a0 <Get_SerialNum>:
 80089a0:	b538      	push	{r3, r4, r5, lr}
 80089a2:	4b0a      	ldr	r3, [pc, #40]	; (80089cc <Get_SerialNum+0x2c>)
 80089a4:	6818      	ldr	r0, [r3, #0]
 80089a6:	3304      	adds	r3, #4
 80089a8:	681c      	ldr	r4, [r3, #0]
 80089aa:	3304      	adds	r3, #4
 80089ac:	681b      	ldr	r3, [r3, #0]
 80089ae:	18c0      	adds	r0, r0, r3
 80089b0:	d100      	bne.n	80089b4 <Get_SerialNum+0x14>
 80089b2:	bd38      	pop	{r3, r4, r5, pc}
 80089b4:	4d06      	ldr	r5, [pc, #24]	; (80089d0 <Get_SerialNum+0x30>)
 80089b6:	2208      	movs	r2, #8
 80089b8:	1ca9      	adds	r1, r5, #2
 80089ba:	f7ff ffd5 	bl	8008968 <IntToUnicode>
 80089be:	2204      	movs	r2, #4
 80089c0:	f105 0112 	add.w	r1, r5, #18
 80089c4:	4620      	mov	r0, r4
 80089c6:	f7ff ffcf 	bl	8008968 <IntToUnicode>
 80089ca:	e7f2      	b.n	80089b2 <Get_SerialNum+0x12>
 80089cc:	1ffff7e8 	.word	0x1ffff7e8
 80089d0:	20000168 	.word	0x20000168

080089d4 <USBD_FS_SerialStrDescriptor>:
 80089d4:	b508      	push	{r3, lr}
 80089d6:	231a      	movs	r3, #26
 80089d8:	800b      	strh	r3, [r1, #0]
 80089da:	f7ff ffe1 	bl	80089a0 <Get_SerialNum>
 80089de:	4801      	ldr	r0, [pc, #4]	; (80089e4 <USBD_FS_SerialStrDescriptor+0x10>)
 80089e0:	bd08      	pop	{r3, pc}
 80089e2:	bf00      	nop
 80089e4:	20000168 	.word	0x20000168

080089e8 <USBD_FS_ProductStrDescriptor>:
 80089e8:	b508      	push	{r3, lr}
 80089ea:	460a      	mov	r2, r1
 80089ec:	b928      	cbnz	r0, 80089fa <USBD_FS_ProductStrDescriptor+0x12>
 80089ee:	4905      	ldr	r1, [pc, #20]	; (8008a04 <USBD_FS_ProductStrDescriptor+0x1c>)
 80089f0:	4805      	ldr	r0, [pc, #20]	; (8008a08 <USBD_FS_ProductStrDescriptor+0x20>)
 80089f2:	f7ff fec4 	bl	800877e <USBD_GetString>
 80089f6:	4803      	ldr	r0, [pc, #12]	; (8008a04 <USBD_FS_ProductStrDescriptor+0x1c>)
 80089f8:	bd08      	pop	{r3, pc}
 80089fa:	4902      	ldr	r1, [pc, #8]	; (8008a04 <USBD_FS_ProductStrDescriptor+0x1c>)
 80089fc:	4802      	ldr	r0, [pc, #8]	; (8008a08 <USBD_FS_ProductStrDescriptor+0x20>)
 80089fe:	f7ff febe 	bl	800877e <USBD_GetString>
 8008a02:	e7f8      	b.n	80089f6 <USBD_FS_ProductStrDescriptor+0xe>
 8008a04:	200008f8 	.word	0x200008f8
 8008a08:	08009790 	.word	0x08009790

08008a0c <USBD_FS_ManufacturerStrDescriptor>:
 8008a0c:	b510      	push	{r4, lr}
 8008a0e:	460a      	mov	r2, r1
 8008a10:	4c03      	ldr	r4, [pc, #12]	; (8008a20 <USBD_FS_ManufacturerStrDescriptor+0x14>)
 8008a12:	4621      	mov	r1, r4
 8008a14:	4803      	ldr	r0, [pc, #12]	; (8008a24 <USBD_FS_ManufacturerStrDescriptor+0x18>)
 8008a16:	f7ff feb2 	bl	800877e <USBD_GetString>
 8008a1a:	4620      	mov	r0, r4
 8008a1c:	bd10      	pop	{r4, pc}
 8008a1e:	bf00      	nop
 8008a20:	200008f8 	.word	0x200008f8
 8008a24:	080097a8 	.word	0x080097a8

08008a28 <USBD_FS_ConfigStrDescriptor>:
 8008a28:	b508      	push	{r3, lr}
 8008a2a:	460a      	mov	r2, r1
 8008a2c:	b928      	cbnz	r0, 8008a3a <USBD_FS_ConfigStrDescriptor+0x12>
 8008a2e:	4905      	ldr	r1, [pc, #20]	; (8008a44 <USBD_FS_ConfigStrDescriptor+0x1c>)
 8008a30:	4805      	ldr	r0, [pc, #20]	; (8008a48 <USBD_FS_ConfigStrDescriptor+0x20>)
 8008a32:	f7ff fea4 	bl	800877e <USBD_GetString>
 8008a36:	4803      	ldr	r0, [pc, #12]	; (8008a44 <USBD_FS_ConfigStrDescriptor+0x1c>)
 8008a38:	bd08      	pop	{r3, pc}
 8008a3a:	4902      	ldr	r1, [pc, #8]	; (8008a44 <USBD_FS_ConfigStrDescriptor+0x1c>)
 8008a3c:	4802      	ldr	r0, [pc, #8]	; (8008a48 <USBD_FS_ConfigStrDescriptor+0x20>)
 8008a3e:	f7ff fe9e 	bl	800877e <USBD_GetString>
 8008a42:	e7f8      	b.n	8008a36 <USBD_FS_ConfigStrDescriptor+0xe>
 8008a44:	200008f8 	.word	0x200008f8
 8008a48:	080097bc 	.word	0x080097bc

08008a4c <USBD_FS_InterfaceStrDescriptor>:
 8008a4c:	b508      	push	{r3, lr}
 8008a4e:	460a      	mov	r2, r1
 8008a50:	b928      	cbnz	r0, 8008a5e <USBD_FS_InterfaceStrDescriptor+0x12>
 8008a52:	4905      	ldr	r1, [pc, #20]	; (8008a68 <USBD_FS_InterfaceStrDescriptor+0x1c>)
 8008a54:	4805      	ldr	r0, [pc, #20]	; (8008a6c <USBD_FS_InterfaceStrDescriptor+0x20>)
 8008a56:	f7ff fe92 	bl	800877e <USBD_GetString>
 8008a5a:	4803      	ldr	r0, [pc, #12]	; (8008a68 <USBD_FS_InterfaceStrDescriptor+0x1c>)
 8008a5c:	bd08      	pop	{r3, pc}
 8008a5e:	4902      	ldr	r1, [pc, #8]	; (8008a68 <USBD_FS_InterfaceStrDescriptor+0x1c>)
 8008a60:	4802      	ldr	r0, [pc, #8]	; (8008a6c <USBD_FS_InterfaceStrDescriptor+0x20>)
 8008a62:	f7ff fe8c 	bl	800877e <USBD_GetString>
 8008a66:	e7f8      	b.n	8008a5a <USBD_FS_InterfaceStrDescriptor+0xe>
 8008a68:	200008f8 	.word	0x200008f8
 8008a6c:	080097c8 	.word	0x080097c8

08008a70 <USBD_Get_USB_Status>:
 8008a70:	2802      	cmp	r0, #2
 8008a72:	d805      	bhi.n	8008a80 <USBD_Get_USB_Status+0x10>
 8008a74:	e8df f000 	tbb	[pc, r0]
 8008a78:	0405      	.short	0x0405
 8008a7a:	02          	.byte	0x02
 8008a7b:	00          	.byte	0x00
 8008a7c:	2001      	movs	r0, #1
 8008a7e:	4770      	bx	lr
 8008a80:	2002      	movs	r0, #2
 8008a82:	4770      	bx	lr

08008a84 <HAL_PCD_MspInit>:
 8008a84:	6802      	ldr	r2, [r0, #0]
 8008a86:	4b12      	ldr	r3, [pc, #72]	; (8008ad0 <HAL_PCD_MspInit+0x4c>)
 8008a88:	429a      	cmp	r2, r3
 8008a8a:	d000      	beq.n	8008a8e <HAL_PCD_MspInit+0xa>
 8008a8c:	4770      	bx	lr
 8008a8e:	b500      	push	{lr}
 8008a90:	b083      	sub	sp, #12
 8008a92:	f503 33da 	add.w	r3, r3, #111616	; 0x1b400
 8008a96:	69da      	ldr	r2, [r3, #28]
 8008a98:	f442 0200 	orr.w	r2, r2, #8388608	; 0x800000
 8008a9c:	61da      	str	r2, [r3, #28]
 8008a9e:	69db      	ldr	r3, [r3, #28]
 8008aa0:	f403 0300 	and.w	r3, r3, #8388608	; 0x800000
 8008aa4:	9301      	str	r3, [sp, #4]
 8008aa6:	9b01      	ldr	r3, [sp, #4]
 8008aa8:	2200      	movs	r2, #0
 8008aaa:	4611      	mov	r1, r2
 8008aac:	2013      	movs	r0, #19
 8008aae:	f7f9 fead 	bl	800280c <HAL_NVIC_SetPriority>
 8008ab2:	2013      	movs	r0, #19
 8008ab4:	f7f9 fede 	bl	8002874 <HAL_NVIC_EnableIRQ>
 8008ab8:	2200      	movs	r2, #0
 8008aba:	4611      	mov	r1, r2
 8008abc:	2014      	movs	r0, #20
 8008abe:	f7f9 fea5 	bl	800280c <HAL_NVIC_SetPriority>
 8008ac2:	2014      	movs	r0, #20
 8008ac4:	f7f9 fed6 	bl	8002874 <HAL_NVIC_EnableIRQ>
 8008ac8:	b003      	add	sp, #12
 8008aca:	f85d fb04 	ldr.w	pc, [sp], #4
 8008ace:	bf00      	nop
 8008ad0:	40005c00 	.word	0x40005c00

08008ad4 <HAL_PCD_SetupStageCallback>:
 8008ad4:	b508      	push	{r3, lr}
 8008ad6:	f500 712c 	add.w	r1, r0, #688	; 0x2b0
 8008ada:	f8d0 02e8 	ldr.w	r0, [r0, #744]	; 0x2e8
 8008ade:	f7ff fa0f 	bl	8007f00 <USBD_LL_SetupStage>
 8008ae2:	bd08      	pop	{r3, pc}

08008ae4 <HAL_PCD_DataOutStageCallback>:
 8008ae4:	b508      	push	{r3, lr}
 8008ae6:	eb01 0381 	add.w	r3, r1, r1, lsl #2
 8008aea:	eb00 03c3 	add.w	r3, r0, r3, lsl #3
 8008aee:	f8d3 217c 	ldr.w	r2, [r3, #380]	; 0x17c
 8008af2:	f8d0 02e8 	ldr.w	r0, [r0, #744]	; 0x2e8
 8008af6:	f7ff fa30 	bl	8007f5a <USBD_LL_DataOutStage>
 8008afa:	bd08      	pop	{r3, pc}

08008afc <HAL_PCD_DataInStageCallback>:
 8008afc:	b508      	push	{r3, lr}
 8008afe:	eb01 0381 	add.w	r3, r1, r1, lsl #2
 8008b02:	eb00 03c3 	add.w	r3, r0, r3, lsl #3
 8008b06:	6bda      	ldr	r2, [r3, #60]	; 0x3c
 8008b08:	f8d0 02e8 	ldr.w	r0, [r0, #744]	; 0x2e8
 8008b0c:	f7ff fa6b 	bl	8007fe6 <USBD_LL_DataInStage>
 8008b10:	bd08      	pop	{r3, pc}

08008b12 <HAL_PCD_SOFCallback>:
 8008b12:	b508      	push	{r3, lr}
 8008b14:	f8d0 02e8 	ldr.w	r0, [r0, #744]	; 0x2e8
 8008b18:	f7ff fb0c 	bl	8008134 <USBD_LL_SOF>
 8008b1c:	bd08      	pop	{r3, pc}

08008b1e <HAL_PCD_ResetCallback>:
 8008b1e:	b510      	push	{r4, lr}
 8008b20:	4604      	mov	r4, r0
 8008b22:	6883      	ldr	r3, [r0, #8]
 8008b24:	2b02      	cmp	r3, #2
 8008b26:	d109      	bne.n	8008b3c <HAL_PCD_ResetCallback+0x1e>
 8008b28:	2101      	movs	r1, #1
 8008b2a:	f8d4 02e8 	ldr.w	r0, [r4, #744]	; 0x2e8
 8008b2e:	f7ff faea 	bl	8008106 <USBD_LL_SetSpeed>
 8008b32:	f8d4 02e8 	ldr.w	r0, [r4, #744]	; 0x2e8
 8008b36:	f7ff fabe 	bl	80080b6 <USBD_LL_Reset>
 8008b3a:	bd10      	pop	{r4, pc}
 8008b3c:	f7f8 fd0a 	bl	8001554 <Error_Handler>
 8008b40:	e7f2      	b.n	8008b28 <HAL_PCD_ResetCallback+0xa>
	...

08008b44 <HAL_PCD_SuspendCallback>:
 8008b44:	b510      	push	{r4, lr}
 8008b46:	4604      	mov	r4, r0
 8008b48:	f8d0 02e8 	ldr.w	r0, [r0, #744]	; 0x2e8
 8008b4c:	f7ff fade 	bl	800810c <USBD_LL_Suspend>
 8008b50:	69a3      	ldr	r3, [r4, #24]
 8008b52:	b123      	cbz	r3, 8008b5e <HAL_PCD_SuspendCallback+0x1a>
 8008b54:	4a02      	ldr	r2, [pc, #8]	; (8008b60 <HAL_PCD_SuspendCallback+0x1c>)
 8008b56:	6913      	ldr	r3, [r2, #16]
 8008b58:	f043 0306 	orr.w	r3, r3, #6
 8008b5c:	6113      	str	r3, [r2, #16]
 8008b5e:	bd10      	pop	{r4, pc}
 8008b60:	e000ed00 	.word	0xe000ed00

08008b64 <HAL_PCD_ResumeCallback>:
 8008b64:	b508      	push	{r3, lr}
 8008b66:	f8d0 02e8 	ldr.w	r0, [r0, #744]	; 0x2e8
 8008b6a:	f7ff fad8 	bl	800811e <USBD_LL_Resume>
 8008b6e:	bd08      	pop	{r3, pc}

08008b70 <USBD_LL_Init>:
 8008b70:	b510      	push	{r4, lr}
 8008b72:	4604      	mov	r4, r0
 8008b74:	481d      	ldr	r0, [pc, #116]	; (8008bec <USBD_LL_Init+0x7c>)
 8008b76:	f8c0 42e8 	str.w	r4, [r0, #744]	; 0x2e8
 8008b7a:	f8c4 02c0 	str.w	r0, [r4, #704]	; 0x2c0
 8008b7e:	4b1c      	ldr	r3, [pc, #112]	; (8008bf0 <USBD_LL_Init+0x80>)
 8008b80:	6003      	str	r3, [r0, #0]
 8008b82:	2308      	movs	r3, #8
 8008b84:	6043      	str	r3, [r0, #4]
 8008b86:	2302      	movs	r3, #2
 8008b88:	6083      	str	r3, [r0, #8]
 8008b8a:	2300      	movs	r3, #0
 8008b8c:	6183      	str	r3, [r0, #24]
 8008b8e:	61c3      	str	r3, [r0, #28]
 8008b90:	6203      	str	r3, [r0, #32]
 8008b92:	f7fb fddf 	bl	8004754 <HAL_PCD_Init>
 8008b96:	bb30      	cbnz	r0, 8008be6 <USBD_LL_Init+0x76>
 8008b98:	2318      	movs	r3, #24
 8008b9a:	2200      	movs	r2, #0
 8008b9c:	4611      	mov	r1, r2
 8008b9e:	f8d4 02c0 	ldr.w	r0, [r4, #704]	; 0x2c0
 8008ba2:	f7fc fcd6 	bl	8005552 <HAL_PCDEx_PMAConfig>
 8008ba6:	2358      	movs	r3, #88	; 0x58
 8008ba8:	2200      	movs	r2, #0
 8008baa:	2180      	movs	r1, #128	; 0x80
 8008bac:	f8d4 02c0 	ldr.w	r0, [r4, #704]	; 0x2c0
 8008bb0:	f7fc fccf 	bl	8005552 <HAL_PCDEx_PMAConfig>
 8008bb4:	23c0      	movs	r3, #192	; 0xc0
 8008bb6:	2200      	movs	r2, #0
 8008bb8:	2181      	movs	r1, #129	; 0x81
 8008bba:	f8d4 02c0 	ldr.w	r0, [r4, #704]	; 0x2c0
 8008bbe:	f7fc fcc8 	bl	8005552 <HAL_PCDEx_PMAConfig>
 8008bc2:	f44f 7388 	mov.w	r3, #272	; 0x110
 8008bc6:	2200      	movs	r2, #0
 8008bc8:	2101      	movs	r1, #1
 8008bca:	f8d4 02c0 	ldr.w	r0, [r4, #704]	; 0x2c0
 8008bce:	f7fc fcc0 	bl	8005552 <HAL_PCDEx_PMAConfig>
 8008bd2:	f44f 7380 	mov.w	r3, #256	; 0x100
 8008bd6:	2200      	movs	r2, #0
 8008bd8:	2182      	movs	r1, #130	; 0x82
 8008bda:	f8d4 02c0 	ldr.w	r0, [r4, #704]	; 0x2c0
 8008bde:	f7fc fcb8 	bl	8005552 <HAL_PCDEx_PMAConfig>
 8008be2:	2000      	movs	r0, #0
 8008be4:	bd10      	pop	{r4, pc}
 8008be6:	f7f8 fcb5 	bl	8001554 <Error_Handler>
 8008bea:	e7d5      	b.n	8008b98 <USBD_LL_Init+0x28>
 8008bec:	20000af8 	.word	0x20000af8
 8008bf0:	40005c00 	.word	0x40005c00

08008bf4 <USBD_LL_Start>:
 8008bf4:	b508      	push	{r3, lr}
 8008bf6:	f8d0 02c0 	ldr.w	r0, [r0, #704]	; 0x2c0
 8008bfa:	f7fb fe31 	bl	8004860 <HAL_PCD_Start>
 8008bfe:	f7ff ff37 	bl	8008a70 <USBD_Get_USB_Status>
 8008c02:	bd08      	pop	{r3, pc}

08008c04 <USBD_LL_OpenEP>:
 8008c04:	b510      	push	{r4, lr}
 8008c06:	4614      	mov	r4, r2
 8008c08:	461a      	mov	r2, r3
 8008c0a:	4623      	mov	r3, r4
 8008c0c:	f8d0 02c0 	ldr.w	r0, [r0, #704]	; 0x2c0
 8008c10:	f7fc fb6c 	bl	80052ec <HAL_PCD_EP_Open>
 8008c14:	f7ff ff2c 	bl	8008a70 <USBD_Get_USB_Status>
 8008c18:	bd10      	pop	{r4, pc}

08008c1a <USBD_LL_CloseEP>:
 8008c1a:	b508      	push	{r3, lr}
 8008c1c:	f8d0 02c0 	ldr.w	r0, [r0, #704]	; 0x2c0
 8008c20:	f7fc fba0 	bl	8005364 <HAL_PCD_EP_Close>
 8008c24:	f7ff ff24 	bl	8008a70 <USBD_Get_USB_Status>
 8008c28:	bd08      	pop	{r3, pc}

08008c2a <USBD_LL_StallEP>:
 8008c2a:	b508      	push	{r3, lr}
 8008c2c:	f8d0 02c0 	ldr.w	r0, [r0, #704]	; 0x2c0
 8008c30:	f7fc fc18 	bl	8005464 <HAL_PCD_EP_SetStall>
 8008c34:	f7ff ff1c 	bl	8008a70 <USBD_Get_USB_Status>
 8008c38:	bd08      	pop	{r3, pc}

08008c3a <USBD_LL_ClearStallEP>:
 8008c3a:	b508      	push	{r3, lr}
 8008c3c:	f8d0 02c0 	ldr.w	r0, [r0, #704]	; 0x2c0
 8008c40:	f7fc fc4c 	bl	80054dc <HAL_PCD_EP_ClrStall>
 8008c44:	f7ff ff14 	bl	8008a70 <USBD_Get_USB_Status>
 8008c48:	bd08      	pop	{r3, pc}

08008c4a <USBD_LL_IsStallEP>:
 8008c4a:	f8d0 32c0 	ldr.w	r3, [r0, #704]	; 0x2c0
 8008c4e:	f011 0f80 	tst.w	r1, #128	; 0x80
 8008c52:	d108      	bne.n	8008c66 <USBD_LL_IsStallEP+0x1c>
 8008c54:	f001 017f 	and.w	r1, r1, #127	; 0x7f
 8008c58:	eb01 0181 	add.w	r1, r1, r1, lsl #2
 8008c5c:	eb03 01c1 	add.w	r1, r3, r1, lsl #3
 8008c60:	f891 016a 	ldrb.w	r0, [r1, #362]	; 0x16a
 8008c64:	4770      	bx	lr
 8008c66:	f001 017f 	and.w	r1, r1, #127	; 0x7f
 8008c6a:	3101      	adds	r1, #1
 8008c6c:	eb01 0181 	add.w	r1, r1, r1, lsl #2
 8008c70:	eb03 01c1 	add.w	r1, r3, r1, lsl #3
 8008c74:	7888      	ldrb	r0, [r1, #2]
 8008c76:	4770      	bx	lr

08008c78 <USBD_LL_SetUSBAddress>:
 8008c78:	b508      	push	{r3, lr}
 8008c7a:	f8d0 02c0 	ldr.w	r0, [r0, #704]	; 0x2c0
 8008c7e:	f7fc fa38 	bl	80050f2 <HAL_PCD_SetAddress>
 8008c82:	f7ff fef5 	bl	8008a70 <USBD_Get_USB_Status>
 8008c86:	bd08      	pop	{r3, pc}

08008c88 <USBD_LL_Transmit>:
 8008c88:	b508      	push	{r3, lr}
 8008c8a:	f8d0 02c0 	ldr.w	r0, [r0, #704]	; 0x2c0
 8008c8e:	f7fc fbc6 	bl	800541e <HAL_PCD_EP_Transmit>
 8008c92:	f7ff feed 	bl	8008a70 <USBD_Get_USB_Status>
 8008c96:	bd08      	pop	{r3, pc}

08008c98 <USBD_LL_PrepareReceive>:
 8008c98:	b508      	push	{r3, lr}
 8008c9a:	f8d0 02c0 	ldr.w	r0, [r0, #704]	; 0x2c0
 8008c9e:	f7fc fb93 	bl	80053c8 <HAL_PCD_EP_Receive>
 8008ca2:	f7ff fee5 	bl	8008a70 <USBD_Get_USB_Status>
 8008ca6:	bd08      	pop	{r3, pc}

08008ca8 <USBD_LL_GetRxDataSize>:
 8008ca8:	b508      	push	{r3, lr}
 8008caa:	f8d0 02c0 	ldr.w	r0, [r0, #704]	; 0x2c0
 8008cae:	f7fc fbad 	bl	800540c <HAL_PCD_EP_GetRxCount>
 8008cb2:	bd08      	pop	{r3, pc}

08008cb4 <USBD_static_malloc>:
 8008cb4:	4800      	ldr	r0, [pc, #0]	; (8008cb8 <USBD_static_malloc+0x4>)
 8008cb6:	4770      	bx	lr
 8008cb8:	20000504 	.word	0x20000504

08008cbc <USBD_static_free>:
 8008cbc:	4770      	bx	lr

08008cbe <HAL_PCDEx_SetConnectionState>:
 8008cbe:	4770      	bx	lr

08008cc0 <_ZdlPv>:
 8008cc0:	f000 ba0c 	b.w	80090dc <free>

08008cc4 <_ZSt17__throw_bad_allocv>:
 8008cc4:	b508      	push	{r3, lr}
 8008cc6:	f000 f9cf 	bl	8009068 <abort>

08008cca <_ZSt19__throw_logic_errorPKc>:
 8008cca:	b508      	push	{r3, lr}
 8008ccc:	f000 f9cc 	bl	8009068 <abort>

08008cd0 <_ZSt24__throw_invalid_argumentPKc>:
 8008cd0:	b508      	push	{r3, lr}
 8008cd2:	f000 f9c9 	bl	8009068 <abort>

08008cd6 <_ZSt20__throw_length_errorPKc>:
 8008cd6:	b508      	push	{r3, lr}
 8008cd8:	f000 f9c6 	bl	8009068 <abort>

08008cdc <_ZSt20__throw_out_of_rangePKc>:
 8008cdc:	b508      	push	{r3, lr}
 8008cde:	f000 f9c3 	bl	8009068 <abort>

08008ce2 <_ZSt24__throw_out_of_range_fmtPKcz>:
 8008ce2:	b40f      	push	{r0, r1, r2, r3}
 8008ce4:	b580      	push	{r7, lr}
 8008ce6:	b082      	sub	sp, #8
 8008ce8:	af00      	add	r7, sp, #0
 8008cea:	f107 0410 	add.w	r4, r7, #16
 8008cee:	f854 5b04 	ldr.w	r5, [r4], #4
 8008cf2:	4628      	mov	r0, r5
 8008cf4:	f7f7 fa2a 	bl	800014c <strlen>
 8008cf8:	f200 2307 	addw	r3, r0, #519	; 0x207
 8008cfc:	f023 0307 	bic.w	r3, r3, #7
 8008d00:	ebad 0d03 	sub.w	sp, sp, r3
 8008d04:	f500 7100 	add.w	r1, r0, #512	; 0x200
 8008d08:	4623      	mov	r3, r4
 8008d0a:	462a      	mov	r2, r5
 8008d0c:	4668      	mov	r0, sp
 8008d0e:	607c      	str	r4, [r7, #4]
 8008d10:	f000 f854 	bl	8008dbc <_ZN9__gnu_cxx15__snprintf_liteEPcjPKcSt9__va_list>
 8008d14:	f000 f9a8 	bl	8009068 <abort>

08008d18 <_ZN9__gnu_cxx26__throw_insufficient_spaceEPKcS1_>:
 8008d18:	4606      	mov	r6, r0
 8008d1a:	460c      	mov	r4, r1
 8008d1c:	b580      	push	{r7, lr}
 8008d1e:	b09c      	sub	sp, #112	; 0x70
 8008d20:	af00      	add	r7, sp, #0
 8008d22:	1ba4      	subs	r4, r4, r6
 8008d24:	2269      	movs	r2, #105	; 0x69
 8008d26:	490e      	ldr	r1, [pc, #56]	; (8008d60 <_ZN9__gnu_cxx26__throw_insufficient_spaceEPKcS1_+0x48>)
 8008d28:	1d38      	adds	r0, r7, #4
 8008d2a:	f000 f9fb 	bl	8009124 <memcpy>
 8008d2e:	f104 0370 	add.w	r3, r4, #112	; 0x70
 8008d32:	f023 0307 	bic.w	r3, r3, #7
 8008d36:	ebad 0d03 	sub.w	sp, sp, r3
 8008d3a:	466d      	mov	r5, sp
 8008d3c:	2268      	movs	r2, #104	; 0x68
 8008d3e:	1d39      	adds	r1, r7, #4
 8008d40:	4628      	mov	r0, r5
 8008d42:	f000 f9ef 	bl	8009124 <memcpy>
 8008d46:	4622      	mov	r2, r4
 8008d48:	4631      	mov	r1, r6
 8008d4a:	f105 0068 	add.w	r0, r5, #104	; 0x68
 8008d4e:	f000 f9e9 	bl	8009124 <memcpy>
 8008d52:	2300      	movs	r3, #0
 8008d54:	442c      	add	r4, r5
 8008d56:	4628      	mov	r0, r5
 8008d58:	f884 3068 	strb.w	r3, [r4, #104]	; 0x68
 8008d5c:	f7ff ffb5 	bl	8008cca <_ZSt19__throw_logic_errorPKc>
 8008d60:	080097d6 	.word	0x080097d6

08008d64 <_ZN9__gnu_cxx15__concat_size_tEPcjj>:
 8008d64:	e92d 41f0 	stmdb	sp!, {r4, r5, r6, r7, r8, lr}
 8008d68:	af00      	add	r7, sp, #0
 8008d6a:	b084      	sub	sp, #16
 8008d6c:	466d      	mov	r5, sp
 8008d6e:	f105 040c 	add.w	r4, r5, #12
 8008d72:	4623      	mov	r3, r4
 8008d74:	f04f 0c0a 	mov.w	ip, #10
 8008d78:	f8df 803c 	ldr.w	r8, [pc, #60]	; 8008db8 <_ZN9__gnu_cxx15__concat_size_tEPcjj+0x54>
 8008d7c:	fbb2 f6fc 	udiv	r6, r2, ip
 8008d80:	fb0c 2e16 	mls	lr, ip, r6, r2
 8008d84:	f818 e00e 	ldrb.w	lr, [r8, lr]
 8008d88:	f803 ed01 	strb.w	lr, [r3, #-1]!
 8008d8c:	4696      	mov	lr, r2
 8008d8e:	f1be 0f09 	cmp.w	lr, #9
 8008d92:	4632      	mov	r2, r6
 8008d94:	d8f2      	bhi.n	8008d7c <_ZN9__gnu_cxx15__concat_size_tEPcjj+0x18>
 8008d96:	1ae4      	subs	r4, r4, r3
 8008d98:	428c      	cmp	r4, r1
 8008d9a:	d809      	bhi.n	8008db0 <_ZN9__gnu_cxx15__concat_size_tEPcjj+0x4c>
 8008d9c:	f1c4 010c 	rsb	r1, r4, #12
 8008da0:	4622      	mov	r2, r4
 8008da2:	4429      	add	r1, r5
 8008da4:	f000 f9be 	bl	8009124 <memcpy>
 8008da8:	4620      	mov	r0, r4
 8008daa:	46bd      	mov	sp, r7
 8008dac:	e8bd 81f0 	ldmia.w	sp!, {r4, r5, r6, r7, r8, pc}
 8008db0:	f04f 34ff 	mov.w	r4, #4294967295
 8008db4:	e7f8      	b.n	8008da8 <_ZN9__gnu_cxx15__concat_size_tEPcjj+0x44>
 8008db6:	bf00      	nop
 8008db8:	0800983f 	.word	0x0800983f

08008dbc <_ZN9__gnu_cxx15__snprintf_liteEPcjPKcSt9__va_list>:
 8008dbc:	e92d 41f0 	stmdb	sp!, {r4, r5, r6, r7, r8, lr}
 8008dc0:	4607      	mov	r7, r0
 8008dc2:	4615      	mov	r5, r2
 8008dc4:	4604      	mov	r4, r0
 8008dc6:	3901      	subs	r1, #1
 8008dc8:	eb00 0801 	add.w	r8, r0, r1
 8008dcc:	782a      	ldrb	r2, [r5, #0]
 8008dce:	b362      	cbz	r2, 8008e2a <_ZN9__gnu_cxx15__snprintf_liteEPcjPKcSt9__va_list+0x6e>
 8008dd0:	4544      	cmp	r4, r8
 8008dd2:	d22e      	bcs.n	8008e32 <_ZN9__gnu_cxx15__snprintf_liteEPcjPKcSt9__va_list+0x76>
 8008dd4:	2a25      	cmp	r2, #37	; 0x25
 8008dd6:	d107      	bne.n	8008de8 <_ZN9__gnu_cxx15__snprintf_liteEPcjPKcSt9__va_list+0x2c>
 8008dd8:	786a      	ldrb	r2, [r5, #1]
 8008dda:	2a73      	cmp	r2, #115	; 0x73
 8008ddc:	d009      	beq.n	8008df2 <_ZN9__gnu_cxx15__snprintf_liteEPcjPKcSt9__va_list+0x36>
 8008dde:	2a7a      	cmp	r2, #122	; 0x7a
 8008de0:	d012      	beq.n	8008e08 <_ZN9__gnu_cxx15__snprintf_liteEPcjPKcSt9__va_list+0x4c>
 8008de2:	2a25      	cmp	r2, #37	; 0x25
 8008de4:	d100      	bne.n	8008de8 <_ZN9__gnu_cxx15__snprintf_liteEPcjPKcSt9__va_list+0x2c>
 8008de6:	3501      	adds	r5, #1
 8008de8:	f815 2b01 	ldrb.w	r2, [r5], #1
 8008dec:	f804 2b01 	strb.w	r2, [r4], #1
 8008df0:	e7ec      	b.n	8008dcc <_ZN9__gnu_cxx15__snprintf_liteEPcjPKcSt9__va_list+0x10>
 8008df2:	f853 2b04 	ldr.w	r2, [r3], #4
 8008df6:	3a01      	subs	r2, #1
 8008df8:	f812 1f01 	ldrb.w	r1, [r2, #1]!
 8008dfc:	b1e9      	cbz	r1, 8008e3a <_ZN9__gnu_cxx15__snprintf_liteEPcjPKcSt9__va_list+0x7e>
 8008dfe:	4544      	cmp	r4, r8
 8008e00:	d017      	beq.n	8008e32 <_ZN9__gnu_cxx15__snprintf_liteEPcjPKcSt9__va_list+0x76>
 8008e02:	f804 1b01 	strb.w	r1, [r4], #1
 8008e06:	e7f7      	b.n	8008df8 <_ZN9__gnu_cxx15__snprintf_liteEPcjPKcSt9__va_list+0x3c>
 8008e08:	78aa      	ldrb	r2, [r5, #2]
 8008e0a:	2a75      	cmp	r2, #117	; 0x75
 8008e0c:	d1ec      	bne.n	8008de8 <_ZN9__gnu_cxx15__snprintf_liteEPcjPKcSt9__va_list+0x2c>
 8008e0e:	461e      	mov	r6, r3
 8008e10:	4620      	mov	r0, r4
 8008e12:	f856 2b04 	ldr.w	r2, [r6], #4
 8008e16:	eba8 0104 	sub.w	r1, r8, r4
 8008e1a:	f7ff ffa3 	bl	8008d64 <_ZN9__gnu_cxx15__concat_size_tEPcjj>
 8008e1e:	2800      	cmp	r0, #0
 8008e20:	dd07      	ble.n	8008e32 <_ZN9__gnu_cxx15__snprintf_liteEPcjPKcSt9__va_list+0x76>
 8008e22:	4633      	mov	r3, r6
 8008e24:	4404      	add	r4, r0
 8008e26:	3503      	adds	r5, #3
 8008e28:	e7d0      	b.n	8008dcc <_ZN9__gnu_cxx15__snprintf_liteEPcjPKcSt9__va_list+0x10>
 8008e2a:	7022      	strb	r2, [r4, #0]
 8008e2c:	1be0      	subs	r0, r4, r7
 8008e2e:	e8bd 81f0 	ldmia.w	sp!, {r4, r5, r6, r7, r8, pc}
 8008e32:	4621      	mov	r1, r4
 8008e34:	4638      	mov	r0, r7
 8008e36:	f7ff ff6f 	bl	8008d18 <_ZN9__gnu_cxx26__throw_insufficient_spaceEPKcS1_>
 8008e3a:	3502      	adds	r5, #2
 8008e3c:	e7c6      	b.n	8008dcc <_ZN9__gnu_cxx15__snprintf_liteEPcjPKcSt9__va_list+0x10>

08008e3e <_ZNSt11char_traitsIcE7compareEPKcS2_j>:
 8008e3e:	b10a      	cbz	r2, 8008e44 <_ZNSt11char_traitsIcE7compareEPKcS2_j+0x6>
 8008e40:	f000 b962 	b.w	8009108 <memcmp>
 8008e44:	4610      	mov	r0, r2
 8008e46:	4770      	bx	lr

08008e48 <_ZNSt11char_traitsIcE4findEPKcjRS1_>:
 8008e48:	4613      	mov	r3, r2
 8008e4a:	460a      	mov	r2, r1
 8008e4c:	b111      	cbz	r1, 8008e54 <_ZNSt11char_traitsIcE4findEPKcjRS1_+0xc>
 8008e4e:	7819      	ldrb	r1, [r3, #0]
 8008e50:	f000 b94c 	b.w	80090ec <memchr>
 8008e54:	4608      	mov	r0, r1
 8008e56:	4770      	bx	lr

08008e58 <_ZNSt11char_traitsIcE4copyEPcPKcj>:
 8008e58:	b10a      	cbz	r2, 8008e5e <_ZNSt11char_traitsIcE4copyEPcPKcj+0x6>
 8008e5a:	f000 b963 	b.w	8009124 <memcpy>
 8008e5e:	4770      	bx	lr

08008e60 <_ZNSt7__cxx1112basic_stringIcSt11char_traitsIcESaIcEE9_M_createERjj>:
 8008e60:	b508      	push	{r3, lr}
 8008e62:	680b      	ldr	r3, [r1, #0]
 8008e64:	f1b3 4f80 	cmp.w	r3, #1073741824	; 0x40000000
 8008e68:	d302      	bcc.n	8008e70 <_ZNSt7__cxx1112basic_stringIcSt11char_traitsIcESaIcEE9_M_createERjj+0x10>
 8008e6a:	480d      	ldr	r0, [pc, #52]	; (8008ea0 <_ZNSt7__cxx1112basic_stringIcSt11char_traitsIcESaIcEE9_M_createERjj+0x40>)
 8008e6c:	f7ff ff33 	bl	8008cd6 <_ZSt20__throw_length_errorPKc>
 8008e70:	4293      	cmp	r3, r2
 8008e72:	d90b      	bls.n	8008e8c <_ZNSt7__cxx1112basic_stringIcSt11char_traitsIcESaIcEE9_M_createERjj+0x2c>
 8008e74:	ebb3 0f42 	cmp.w	r3, r2, lsl #1
 8008e78:	ea4f 0042 	mov.w	r0, r2, lsl #1
 8008e7c:	d206      	bcs.n	8008e8c <_ZNSt7__cxx1112basic_stringIcSt11char_traitsIcESaIcEE9_M_createERjj+0x2c>
 8008e7e:	f1b0 4f80 	cmp.w	r0, #1073741824	; 0x40000000
 8008e82:	bf2a      	itet	cs
 8008e84:	f06f 4340 	mvncs.w	r3, #3221225472	; 0xc0000000
 8008e88:	6008      	strcc	r0, [r1, #0]
 8008e8a:	600b      	strcs	r3, [r1, #0]
 8008e8c:	6808      	ldr	r0, [r1, #0]
 8008e8e:	3001      	adds	r0, #1
 8008e90:	d501      	bpl.n	8008e96 <_ZNSt7__cxx1112basic_stringIcSt11char_traitsIcESaIcEE9_M_createERjj+0x36>
 8008e92:	f7ff ff17 	bl	8008cc4 <_ZSt17__throw_bad_allocv>
 8008e96:	e8bd 4008 	ldmia.w	sp!, {r3, lr}
 8008e9a:	f000 b8cb 	b.w	8009034 <_Znwj>
 8008e9e:	bf00      	nop
 8008ea0:	0800984a 	.word	0x0800984a

08008ea4 <_ZNSt7__cxx1112basic_stringIcSt11char_traitsIcESaIcEE10_M_disposeEv>:
 8008ea4:	4603      	mov	r3, r0
 8008ea6:	f853 0b08 	ldr.w	r0, [r3], #8
 8008eaa:	4298      	cmp	r0, r3
 8008eac:	d001      	beq.n	8008eb2 <_ZNSt7__cxx1112basic_stringIcSt11char_traitsIcESaIcEE10_M_disposeEv+0xe>
 8008eae:	f7ff bf07 	b.w	8008cc0 <_ZdlPv>
 8008eb2:	4770      	bx	lr

08008eb4 <_ZNSt7__cxx1112basic_stringIcSt11char_traitsIcESaIcEE7_S_copyEPcPKcj>:
 8008eb4:	2a01      	cmp	r2, #1
 8008eb6:	b510      	push	{r4, lr}
 8008eb8:	d102      	bne.n	8008ec0 <_ZNSt7__cxx1112basic_stringIcSt11char_traitsIcESaIcEE7_S_copyEPcPKcj+0xc>
 8008eba:	780a      	ldrb	r2, [r1, #0]
 8008ebc:	7002      	strb	r2, [r0, #0]
 8008ebe:	bd10      	pop	{r4, pc}
 8008ec0:	f7ff ffca 	bl	8008e58 <_ZNSt11char_traitsIcE4copyEPcPKcj>
 8008ec4:	e7fb      	b.n	8008ebe <_ZNSt7__cxx1112basic_stringIcSt11char_traitsIcESaIcEE7_S_copyEPcPKcj+0xa>

08008ec6 <_ZNSt7__cxx1112basic_stringIcSt11char_traitsIcESaIcEE9_M_mutateEjjPKcj>:
 8008ec6:	e92d 47f3 	stmdb	sp!, {r0, r1, r4, r5, r6, r7, r8, r9, sl, lr}
 8008eca:	9e0a      	ldr	r6, [sp, #40]	; 0x28
 8008ecc:	461f      	mov	r7, r3
 8008ece:	6843      	ldr	r3, [r0, #4]
 8008ed0:	eb01 0802 	add.w	r8, r1, r2
 8008ed4:	1ab2      	subs	r2, r6, r2
 8008ed6:	441a      	add	r2, r3
 8008ed8:	eba3 0908 	sub.w	r9, r3, r8
 8008edc:	4603      	mov	r3, r0
 8008ede:	9201      	str	r2, [sp, #4]
 8008ee0:	f853 2b08 	ldr.w	r2, [r3], #8
 8008ee4:	460d      	mov	r5, r1
 8008ee6:	429a      	cmp	r2, r3
 8008ee8:	bf0c      	ite	eq
 8008eea:	220f      	moveq	r2, #15
 8008eec:	6882      	ldrne	r2, [r0, #8]
 8008eee:	a901      	add	r1, sp, #4
 8008ef0:	4604      	mov	r4, r0
 8008ef2:	f7ff ffb5 	bl	8008e60 <_ZNSt7__cxx1112basic_stringIcSt11char_traitsIcESaIcEE9_M_createERjj>
 8008ef6:	4682      	mov	sl, r0
 8008ef8:	b11d      	cbz	r5, 8008f02 <_ZNSt7__cxx1112basic_stringIcSt11char_traitsIcESaIcEE9_M_mutateEjjPKcj+0x3c>
 8008efa:	462a      	mov	r2, r5
 8008efc:	6821      	ldr	r1, [r4, #0]
 8008efe:	f7ff ffd9 	bl	8008eb4 <_ZNSt7__cxx1112basic_stringIcSt11char_traitsIcESaIcEE7_S_copyEPcPKcj>
 8008f02:	b137      	cbz	r7, 8008f12 <_ZNSt7__cxx1112basic_stringIcSt11char_traitsIcESaIcEE9_M_mutateEjjPKcj+0x4c>
 8008f04:	b12e      	cbz	r6, 8008f12 <_ZNSt7__cxx1112basic_stringIcSt11char_traitsIcESaIcEE9_M_mutateEjjPKcj+0x4c>
 8008f06:	4632      	mov	r2, r6
 8008f08:	4639      	mov	r1, r7
 8008f0a:	eb0a 0005 	add.w	r0, sl, r5
 8008f0e:	f7ff ffd1 	bl	8008eb4 <_ZNSt7__cxx1112basic_stringIcSt11char_traitsIcESaIcEE7_S_copyEPcPKcj>
 8008f12:	f1b9 0f00 	cmp.w	r9, #0
 8008f16:	d007      	beq.n	8008f28 <_ZNSt7__cxx1112basic_stringIcSt11char_traitsIcESaIcEE9_M_mutateEjjPKcj+0x62>
 8008f18:	6821      	ldr	r1, [r4, #0]
 8008f1a:	4435      	add	r5, r6
 8008f1c:	464a      	mov	r2, r9
 8008f1e:	4441      	add	r1, r8
 8008f20:	eb0a 0005 	add.w	r0, sl, r5
 8008f24:	f7ff ffc6 	bl	8008eb4 <_ZNSt7__cxx1112basic_stringIcSt11char_traitsIcESaIcEE7_S_copyEPcPKcj>
 8008f28:	4620      	mov	r0, r4
 8008f2a:	f7ff ffbb 	bl	8008ea4 <_ZNSt7__cxx1112basic_stringIcSt11char_traitsIcESaIcEE10_M_disposeEv>
 8008f2e:	9b01      	ldr	r3, [sp, #4]
 8008f30:	f8c4 a000 	str.w	sl, [r4]
 8008f34:	60a3      	str	r3, [r4, #8]
 8008f36:	b002      	add	sp, #8
 8008f38:	e8bd 87f0 	ldmia.w	sp!, {r4, r5, r6, r7, r8, r9, sl, pc}

08008f3c <_ZNSt7__cxx1112basic_stringIcSt11char_traitsIcESaIcEE9_M_appendEPKcj>:
 8008f3c:	b573      	push	{r0, r1, r4, r5, r6, lr}
 8008f3e:	4604      	mov	r4, r0
 8008f40:	4623      	mov	r3, r4
 8008f42:	f853 6b08 	ldr.w	r6, [r3], #8
 8008f46:	6840      	ldr	r0, [r0, #4]
 8008f48:	429e      	cmp	r6, r3
 8008f4a:	bf0c      	ite	eq
 8008f4c:	230f      	moveq	r3, #15
 8008f4e:	68a3      	ldrne	r3, [r4, #8]
 8008f50:	1885      	adds	r5, r0, r2
 8008f52:	429d      	cmp	r5, r3
 8008f54:	d80a      	bhi.n	8008f6c <_ZNSt7__cxx1112basic_stringIcSt11char_traitsIcESaIcEE9_M_appendEPKcj+0x30>
 8008f56:	b112      	cbz	r2, 8008f5e <_ZNSt7__cxx1112basic_stringIcSt11char_traitsIcESaIcEE9_M_appendEPKcj+0x22>
 8008f58:	4430      	add	r0, r6
 8008f5a:	f7ff ffab 	bl	8008eb4 <_ZNSt7__cxx1112basic_stringIcSt11char_traitsIcESaIcEE7_S_copyEPcPKcj>
 8008f5e:	2200      	movs	r2, #0
 8008f60:	4620      	mov	r0, r4
 8008f62:	6823      	ldr	r3, [r4, #0]
 8008f64:	6065      	str	r5, [r4, #4]
 8008f66:	555a      	strb	r2, [r3, r5]
 8008f68:	b002      	add	sp, #8
 8008f6a:	bd70      	pop	{r4, r5, r6, pc}
 8008f6c:	460b      	mov	r3, r1
 8008f6e:	9200      	str	r2, [sp, #0]
 8008f70:	4601      	mov	r1, r0
 8008f72:	2200      	movs	r2, #0
 8008f74:	4620      	mov	r0, r4
 8008f76:	f7ff ffa6 	bl	8008ec6 <_ZNSt7__cxx1112basic_stringIcSt11char_traitsIcESaIcEE9_M_mutateEjjPKcj>
 8008f7a:	e7f0      	b.n	8008f5e <_ZNSt7__cxx1112basic_stringIcSt11char_traitsIcESaIcEE9_M_appendEPKcj+0x22>

08008f7c <_ZNKSt7__cxx1112basic_stringIcSt11char_traitsIcESaIcEE4findEPKcjj>:
 8008f7c:	e92d 43f7 	stmdb	sp!, {r0, r1, r2, r4, r5, r6, r7, r8, r9, lr}
 8008f80:	460e      	mov	r6, r1
 8008f82:	461d      	mov	r5, r3
 8008f84:	6841      	ldr	r1, [r0, #4]
 8008f86:	b923      	cbnz	r3, 8008f92 <_ZNKSt7__cxx1112basic_stringIcSt11char_traitsIcESaIcEE4findEPKcjj+0x16>
 8008f88:	4291      	cmp	r1, r2
 8008f8a:	d221      	bcs.n	8008fd0 <_ZNKSt7__cxx1112basic_stringIcSt11char_traitsIcESaIcEE4findEPKcjj+0x54>
 8008f8c:	f04f 32ff 	mov.w	r2, #4294967295
 8008f90:	e01e      	b.n	8008fd0 <_ZNKSt7__cxx1112basic_stringIcSt11char_traitsIcESaIcEE4findEPKcjj+0x54>
 8008f92:	4291      	cmp	r1, r2
 8008f94:	d9fa      	bls.n	8008f8c <_ZNKSt7__cxx1112basic_stringIcSt11char_traitsIcESaIcEE4findEPKcjj+0x10>
 8008f96:	f8d0 8000 	ldr.w	r8, [r0]
 8008f9a:	7833      	ldrb	r3, [r6, #0]
 8008f9c:	eb08 0701 	add.w	r7, r8, r1
 8008fa0:	f88d 3007 	strb.w	r3, [sp, #7]
 8008fa4:	eb08 0002 	add.w	r0, r8, r2
 8008fa8:	1a89      	subs	r1, r1, r2
 8008faa:	f1c5 0901 	rsb	r9, r5, #1
 8008fae:	42a9      	cmp	r1, r5
 8008fb0:	d3ec      	bcc.n	8008f8c <_ZNKSt7__cxx1112basic_stringIcSt11char_traitsIcESaIcEE4findEPKcjj+0x10>
 8008fb2:	f10d 0207 	add.w	r2, sp, #7
 8008fb6:	4449      	add	r1, r9
 8008fb8:	f7ff ff46 	bl	8008e48 <_ZNSt11char_traitsIcE4findEPKcjRS1_>
 8008fbc:	4604      	mov	r4, r0
 8008fbe:	2800      	cmp	r0, #0
 8008fc0:	d0e4      	beq.n	8008f8c <_ZNKSt7__cxx1112basic_stringIcSt11char_traitsIcESaIcEE4findEPKcjj+0x10>
 8008fc2:	462a      	mov	r2, r5
 8008fc4:	4631      	mov	r1, r6
 8008fc6:	f7ff ff3a 	bl	8008e3e <_ZNSt11char_traitsIcE7compareEPKcS2_j>
 8008fca:	b928      	cbnz	r0, 8008fd8 <_ZNKSt7__cxx1112basic_stringIcSt11char_traitsIcESaIcEE4findEPKcjj+0x5c>
 8008fcc:	eba4 0208 	sub.w	r2, r4, r8
 8008fd0:	4610      	mov	r0, r2
 8008fd2:	b003      	add	sp, #12
 8008fd4:	e8bd 83f0 	ldmia.w	sp!, {r4, r5, r6, r7, r8, r9, pc}
 8008fd8:	1c60      	adds	r0, r4, #1
 8008fda:	1a39      	subs	r1, r7, r0
 8008fdc:	e7e7      	b.n	8008fae <_ZNKSt7__cxx1112basic_stringIcSt11char_traitsIcESaIcEE4findEPKcjj+0x32>

08008fde <_ZNKSt7__cxx1112basic_stringIcSt11char_traitsIcESaIcEE4findEcj>:
 8008fde:	b513      	push	{r0, r1, r4, lr}
 8008fe0:	f88d 1007 	strb.w	r1, [sp, #7]
 8008fe4:	6841      	ldr	r1, [r0, #4]
 8008fe6:	4613      	mov	r3, r2
 8008fe8:	428a      	cmp	r2, r1
 8008fea:	d20a      	bcs.n	8009002 <_ZNKSt7__cxx1112basic_stringIcSt11char_traitsIcESaIcEE4findEcj+0x24>
 8008fec:	6804      	ldr	r4, [r0, #0]
 8008fee:	f10d 0207 	add.w	r2, sp, #7
 8008ff2:	1ac9      	subs	r1, r1, r3
 8008ff4:	18e0      	adds	r0, r4, r3
 8008ff6:	f7ff ff27 	bl	8008e48 <_ZNSt11char_traitsIcE4findEPKcjRS1_>
 8008ffa:	b110      	cbz	r0, 8009002 <_ZNKSt7__cxx1112basic_stringIcSt11char_traitsIcESaIcEE4findEcj+0x24>
 8008ffc:	1b00      	subs	r0, r0, r4
 8008ffe:	b002      	add	sp, #8
 8009000:	bd10      	pop	{r4, pc}
 8009002:	f04f 30ff 	mov.w	r0, #4294967295
 8009006:	e7fa      	b.n	8008ffe <_ZNKSt7__cxx1112basic_stringIcSt11char_traitsIcESaIcEE4findEcj+0x20>

08009008 <_ZNSt7__cxx1112basic_stringIcSt11char_traitsIcESaIcEEC1EPKcRKS3_>:
 8009008:	b538      	push	{r3, r4, r5, lr}
 800900a:	f100 0308 	add.w	r3, r0, #8
 800900e:	4604      	mov	r4, r0
 8009010:	460d      	mov	r5, r1
 8009012:	6003      	str	r3, [r0, #0]
 8009014:	b159      	cbz	r1, 800902e <_ZNSt7__cxx1112basic_stringIcSt11char_traitsIcESaIcEEC1EPKcRKS3_+0x26>
 8009016:	4608      	mov	r0, r1
 8009018:	f7f7 f898 	bl	800014c <strlen>
 800901c:	182a      	adds	r2, r5, r0
 800901e:	4620      	mov	r0, r4
 8009020:	f04f 0300 	mov.w	r3, #0
 8009024:	4629      	mov	r1, r5
 8009026:	f7f7 f9fd 	bl	8000424 <_ZNSt7__cxx1112basic_stringIcSt11char_traitsIcESaIcEE12_M_constructIPKcEEvT_S8_St20forward_iterator_tag>
 800902a:	4620      	mov	r0, r4
 800902c:	bd38      	pop	{r3, r4, r5, pc}
 800902e:	f04f 32ff 	mov.w	r2, #4294967295
 8009032:	e7f4      	b.n	800901e <_ZNSt7__cxx1112basic_stringIcSt11char_traitsIcESaIcEEC1EPKcRKS3_+0x16>

08009034 <_Znwj>:
 8009034:	2801      	cmp	r0, #1
 8009036:	bf38      	it	cc
 8009038:	2001      	movcc	r0, #1
 800903a:	b510      	push	{r4, lr}
 800903c:	4604      	mov	r4, r0
 800903e:	4620      	mov	r0, r4
 8009040:	f000 f844 	bl	80090cc <malloc>
 8009044:	b930      	cbnz	r0, 8009054 <_Znwj+0x20>
 8009046:	f000 f807 	bl	8009058 <_ZSt15get_new_handlerv>
 800904a:	b908      	cbnz	r0, 8009050 <_Znwj+0x1c>
 800904c:	f000 f80c 	bl	8009068 <abort>
 8009050:	4780      	blx	r0
 8009052:	e7f4      	b.n	800903e <_Znwj+0xa>
 8009054:	bd10      	pop	{r4, pc}
	...

08009058 <_ZSt15get_new_handlerv>:
 8009058:	4b02      	ldr	r3, [pc, #8]	; (8009064 <_ZSt15get_new_handlerv+0xc>)
 800905a:	6818      	ldr	r0, [r3, #0]
 800905c:	f3bf 8f5b 	dmb	ish
 8009060:	4770      	bx	lr
 8009062:	bf00      	nop
 8009064:	20000624 	.word	0x20000624

08009068 <abort>:
 8009068:	2006      	movs	r0, #6
 800906a:	b508      	push	{r3, lr}
 800906c:	f000 f94e 	bl	800930c <raise>
 8009070:	2001      	movs	r0, #1
 8009072:	f7f8 ff8b 	bl	8001f8c <_exit>
	...

08009078 <__errno>:
 8009078:	4b01      	ldr	r3, [pc, #4]	; (8009080 <__errno+0x8>)
 800907a:	6818      	ldr	r0, [r3, #0]
 800907c:	4770      	bx	lr
 800907e:	bf00      	nop
 8009080:	20000184 	.word	0x20000184

08009084 <__libc_init_array>:
 8009084:	b570      	push	{r4, r5, r6, lr}
 8009086:	2600      	movs	r6, #0
 8009088:	4d0c      	ldr	r5, [pc, #48]	; (80090bc <__libc_init_array+0x38>)
 800908a:	4c0d      	ldr	r4, [pc, #52]	; (80090c0 <__libc_init_array+0x3c>)
 800908c:	1b64      	subs	r4, r4, r5
 800908e:	10a4      	asrs	r4, r4, #2
 8009090:	42a6      	cmp	r6, r4
 8009092:	d109      	bne.n	80090a8 <__libc_init_array+0x24>
 8009094:	f000 f9fc 	bl	8009490 <_init>
 8009098:	2600      	movs	r6, #0
 800909a:	4d0a      	ldr	r5, [pc, #40]	; (80090c4 <__libc_init_array+0x40>)
 800909c:	4c0a      	ldr	r4, [pc, #40]	; (80090c8 <__libc_init_array+0x44>)
 800909e:	1b64      	subs	r4, r4, r5
 80090a0:	10a4      	asrs	r4, r4, #2
 80090a2:	42a6      	cmp	r6, r4
 80090a4:	d105      	bne.n	80090b2 <__libc_init_array+0x2e>
 80090a6:	bd70      	pop	{r4, r5, r6, pc}
 80090a8:	f855 3b04 	ldr.w	r3, [r5], #4
 80090ac:	4798      	blx	r3
 80090ae:	3601      	adds	r6, #1
 80090b0:	e7ee      	b.n	8009090 <__libc_init_array+0xc>
 80090b2:	f855 3b04 	ldr.w	r3, [r5], #4
 80090b6:	4798      	blx	r3
 80090b8:	3601      	adds	r6, #1
 80090ba:	e7f2      	b.n	80090a2 <__libc_init_array+0x1e>
 80090bc:	08009964 	.word	0x08009964
 80090c0:	08009964 	.word	0x08009964
 80090c4:	08009964 	.word	0x08009964
 80090c8:	0800996c 	.word	0x0800996c

080090cc <malloc>:
 80090cc:	4b02      	ldr	r3, [pc, #8]	; (80090d8 <malloc+0xc>)
 80090ce:	4601      	mov	r1, r0
 80090d0:	6818      	ldr	r0, [r3, #0]
 80090d2:	f000 b889 	b.w	80091e8 <_malloc_r>
 80090d6:	bf00      	nop
 80090d8:	20000184 	.word	0x20000184

080090dc <free>:
 80090dc:	4b02      	ldr	r3, [pc, #8]	; (80090e8 <free+0xc>)
 80090de:	4601      	mov	r1, r0
 80090e0:	6818      	ldr	r0, [r3, #0]
 80090e2:	f000 b835 	b.w	8009150 <_free_r>
 80090e6:	bf00      	nop
 80090e8:	20000184 	.word	0x20000184

080090ec <memchr>:
 80090ec:	4603      	mov	r3, r0
 80090ee:	b510      	push	{r4, lr}
 80090f0:	b2c9      	uxtb	r1, r1
 80090f2:	4402      	add	r2, r0
 80090f4:	4293      	cmp	r3, r2
 80090f6:	4618      	mov	r0, r3
 80090f8:	d101      	bne.n	80090fe <memchr+0x12>
 80090fa:	2000      	movs	r0, #0
 80090fc:	e003      	b.n	8009106 <memchr+0x1a>
 80090fe:	7804      	ldrb	r4, [r0, #0]
 8009100:	3301      	adds	r3, #1
 8009102:	428c      	cmp	r4, r1
 8009104:	d1f6      	bne.n	80090f4 <memchr+0x8>
 8009106:	bd10      	pop	{r4, pc}

08009108 <memcmp>:
 8009108:	b530      	push	{r4, r5, lr}
 800910a:	2400      	movs	r4, #0
 800910c:	3901      	subs	r1, #1
 800910e:	42a2      	cmp	r2, r4
 8009110:	d101      	bne.n	8009116 <memcmp+0xe>
 8009112:	2000      	movs	r0, #0
 8009114:	e005      	b.n	8009122 <memcmp+0x1a>
 8009116:	5d03      	ldrb	r3, [r0, r4]
 8009118:	3401      	adds	r4, #1
 800911a:	5d0d      	ldrb	r5, [r1, r4]
 800911c:	42ab      	cmp	r3, r5
 800911e:	d0f6      	beq.n	800910e <memcmp+0x6>
 8009120:	1b58      	subs	r0, r3, r5
 8009122:	bd30      	pop	{r4, r5, pc}

08009124 <memcpy>:
 8009124:	440a      	add	r2, r1
 8009126:	4291      	cmp	r1, r2
 8009128:	f100 33ff 	add.w	r3, r0, #4294967295
 800912c:	d100      	bne.n	8009130 <memcpy+0xc>
 800912e:	4770      	bx	lr
 8009130:	b510      	push	{r4, lr}
 8009132:	f811 4b01 	ldrb.w	r4, [r1], #1
 8009136:	4291      	cmp	r1, r2
 8009138:	f803 4f01 	strb.w	r4, [r3, #1]!
 800913c:	d1f9      	bne.n	8009132 <memcpy+0xe>
 800913e:	bd10      	pop	{r4, pc}

08009140 <memset>:
 8009140:	4603      	mov	r3, r0
 8009142:	4402      	add	r2, r0
 8009144:	4293      	cmp	r3, r2
 8009146:	d100      	bne.n	800914a <memset+0xa>
 8009148:	4770      	bx	lr
 800914a:	f803 1b01 	strb.w	r1, [r3], #1
 800914e:	e7f9      	b.n	8009144 <memset+0x4>

08009150 <_free_r>:
 8009150:	b538      	push	{r3, r4, r5, lr}
 8009152:	4605      	mov	r5, r0
 8009154:	2900      	cmp	r1, #0
 8009156:	d043      	beq.n	80091e0 <_free_r+0x90>
 8009158:	f851 3c04 	ldr.w	r3, [r1, #-4]
 800915c:	1f0c      	subs	r4, r1, #4
 800915e:	2b00      	cmp	r3, #0
 8009160:	bfb8      	it	lt
 8009162:	18e4      	addlt	r4, r4, r3
 8009164:	f000 f986 	bl	8009474 <__malloc_lock>
 8009168:	4a1e      	ldr	r2, [pc, #120]	; (80091e4 <_free_r+0x94>)
 800916a:	6813      	ldr	r3, [r2, #0]
 800916c:	4610      	mov	r0, r2
 800916e:	b933      	cbnz	r3, 800917e <_free_r+0x2e>
 8009170:	6063      	str	r3, [r4, #4]
 8009172:	6014      	str	r4, [r2, #0]
 8009174:	4628      	mov	r0, r5
 8009176:	e8bd 4038 	ldmia.w	sp!, {r3, r4, r5, lr}
 800917a:	f000 b981 	b.w	8009480 <__malloc_unlock>
 800917e:	42a3      	cmp	r3, r4
 8009180:	d90a      	bls.n	8009198 <_free_r+0x48>
 8009182:	6821      	ldr	r1, [r4, #0]
 8009184:	1862      	adds	r2, r4, r1
 8009186:	4293      	cmp	r3, r2
 8009188:	bf01      	itttt	eq
 800918a:	681a      	ldreq	r2, [r3, #0]
 800918c:	685b      	ldreq	r3, [r3, #4]
 800918e:	1852      	addeq	r2, r2, r1
 8009190:	6022      	streq	r2, [r4, #0]
 8009192:	6063      	str	r3, [r4, #4]
 8009194:	6004      	str	r4, [r0, #0]
 8009196:	e7ed      	b.n	8009174 <_free_r+0x24>
 8009198:	461a      	mov	r2, r3
 800919a:	685b      	ldr	r3, [r3, #4]
 800919c:	b10b      	cbz	r3, 80091a2 <_free_r+0x52>
 800919e:	42a3      	cmp	r3, r4
 80091a0:	d9fa      	bls.n	8009198 <_free_r+0x48>
 80091a2:	6811      	ldr	r1, [r2, #0]
 80091a4:	1850      	adds	r0, r2, r1
 80091a6:	42a0      	cmp	r0, r4
 80091a8:	d10b      	bne.n	80091c2 <_free_r+0x72>
 80091aa:	6820      	ldr	r0, [r4, #0]
 80091ac:	4401      	add	r1, r0
 80091ae:	1850      	adds	r0, r2, r1
 80091b0:	4283      	cmp	r3, r0
 80091b2:	6011      	str	r1, [r2, #0]
 80091b4:	d1de      	bne.n	8009174 <_free_r+0x24>
 80091b6:	6818      	ldr	r0, [r3, #0]
 80091b8:	685b      	ldr	r3, [r3, #4]
 80091ba:	4401      	add	r1, r0
 80091bc:	6011      	str	r1, [r2, #0]
 80091be:	6053      	str	r3, [r2, #4]
 80091c0:	e7d8      	b.n	8009174 <_free_r+0x24>
 80091c2:	d902      	bls.n	80091ca <_free_r+0x7a>
 80091c4:	230c      	movs	r3, #12
 80091c6:	602b      	str	r3, [r5, #0]
 80091c8:	e7d4      	b.n	8009174 <_free_r+0x24>
 80091ca:	6820      	ldr	r0, [r4, #0]
 80091cc:	1821      	adds	r1, r4, r0
 80091ce:	428b      	cmp	r3, r1
 80091d0:	bf01      	itttt	eq
 80091d2:	6819      	ldreq	r1, [r3, #0]
 80091d4:	685b      	ldreq	r3, [r3, #4]
 80091d6:	1809      	addeq	r1, r1, r0
 80091d8:	6021      	streq	r1, [r4, #0]
 80091da:	6063      	str	r3, [r4, #4]
 80091dc:	6054      	str	r4, [r2, #4]
 80091de:	e7c9      	b.n	8009174 <_free_r+0x24>
 80091e0:	bd38      	pop	{r3, r4, r5, pc}
 80091e2:	bf00      	nop
 80091e4:	20000628 	.word	0x20000628

080091e8 <_malloc_r>:
 80091e8:	b5f8      	push	{r3, r4, r5, r6, r7, lr}
 80091ea:	1ccd      	adds	r5, r1, #3
 80091ec:	f025 0503 	bic.w	r5, r5, #3
 80091f0:	3508      	adds	r5, #8
 80091f2:	2d0c      	cmp	r5, #12
 80091f4:	bf38      	it	cc
 80091f6:	250c      	movcc	r5, #12
 80091f8:	2d00      	cmp	r5, #0
 80091fa:	4606      	mov	r6, r0
 80091fc:	db01      	blt.n	8009202 <_malloc_r+0x1a>
 80091fe:	42a9      	cmp	r1, r5
 8009200:	d903      	bls.n	800920a <_malloc_r+0x22>
 8009202:	230c      	movs	r3, #12
 8009204:	6033      	str	r3, [r6, #0]
 8009206:	2000      	movs	r0, #0
 8009208:	bdf8      	pop	{r3, r4, r5, r6, r7, pc}
 800920a:	f000 f933 	bl	8009474 <__malloc_lock>
 800920e:	4921      	ldr	r1, [pc, #132]	; (8009294 <_malloc_r+0xac>)
 8009210:	680a      	ldr	r2, [r1, #0]
 8009212:	4614      	mov	r4, r2
 8009214:	b99c      	cbnz	r4, 800923e <_malloc_r+0x56>
 8009216:	4f20      	ldr	r7, [pc, #128]	; (8009298 <_malloc_r+0xb0>)
 8009218:	683b      	ldr	r3, [r7, #0]
 800921a:	b923      	cbnz	r3, 8009226 <_malloc_r+0x3e>
 800921c:	4621      	mov	r1, r4
 800921e:	4630      	mov	r0, r6
 8009220:	f000 f83c 	bl	800929c <_sbrk_r>
 8009224:	6038      	str	r0, [r7, #0]
 8009226:	4629      	mov	r1, r5
 8009228:	4630      	mov	r0, r6
 800922a:	f000 f837 	bl	800929c <_sbrk_r>
 800922e:	1c43      	adds	r3, r0, #1
 8009230:	d123      	bne.n	800927a <_malloc_r+0x92>
 8009232:	230c      	movs	r3, #12
 8009234:	4630      	mov	r0, r6
 8009236:	6033      	str	r3, [r6, #0]
 8009238:	f000 f922 	bl	8009480 <__malloc_unlock>
 800923c:	e7e3      	b.n	8009206 <_malloc_r+0x1e>
 800923e:	6823      	ldr	r3, [r4, #0]
 8009240:	1b5b      	subs	r3, r3, r5
 8009242:	d417      	bmi.n	8009274 <_malloc_r+0x8c>
 8009244:	2b0b      	cmp	r3, #11
 8009246:	d903      	bls.n	8009250 <_malloc_r+0x68>
 8009248:	6023      	str	r3, [r4, #0]
 800924a:	441c      	add	r4, r3
 800924c:	6025      	str	r5, [r4, #0]
 800924e:	e004      	b.n	800925a <_malloc_r+0x72>
 8009250:	6863      	ldr	r3, [r4, #4]
 8009252:	42a2      	cmp	r2, r4
 8009254:	bf0c      	ite	eq
 8009256:	600b      	streq	r3, [r1, #0]
 8009258:	6053      	strne	r3, [r2, #4]
 800925a:	4630      	mov	r0, r6
 800925c:	f000 f910 	bl	8009480 <__malloc_unlock>
 8009260:	f104 000b 	add.w	r0, r4, #11
 8009264:	1d23      	adds	r3, r4, #4
 8009266:	f020 0007 	bic.w	r0, r0, #7
 800926a:	1ac2      	subs	r2, r0, r3
 800926c:	d0cc      	beq.n	8009208 <_malloc_r+0x20>
 800926e:	1a1b      	subs	r3, r3, r0
 8009270:	50a3      	str	r3, [r4, r2]
 8009272:	e7c9      	b.n	8009208 <_malloc_r+0x20>
 8009274:	4622      	mov	r2, r4
 8009276:	6864      	ldr	r4, [r4, #4]
 8009278:	e7cc      	b.n	8009214 <_malloc_r+0x2c>
 800927a:	1cc4      	adds	r4, r0, #3
 800927c:	f024 0403 	bic.w	r4, r4, #3
 8009280:	42a0      	cmp	r0, r4
 8009282:	d0e3      	beq.n	800924c <_malloc_r+0x64>
 8009284:	1a21      	subs	r1, r4, r0
 8009286:	4630      	mov	r0, r6
 8009288:	f000 f808 	bl	800929c <_sbrk_r>
 800928c:	3001      	adds	r0, #1
 800928e:	d1dd      	bne.n	800924c <_malloc_r+0x64>
 8009290:	e7cf      	b.n	8009232 <_malloc_r+0x4a>
 8009292:	bf00      	nop
 8009294:	20000628 	.word	0x20000628
 8009298:	2000062c 	.word	0x2000062c

0800929c <_sbrk_r>:
 800929c:	b538      	push	{r3, r4, r5, lr}
 800929e:	2300      	movs	r3, #0
 80092a0:	4d05      	ldr	r5, [pc, #20]	; (80092b8 <_sbrk_r+0x1c>)
 80092a2:	4604      	mov	r4, r0
 80092a4:	4608      	mov	r0, r1
 80092a6:	602b      	str	r3, [r5, #0]
 80092a8:	f7f8 fe76 	bl	8001f98 <_sbrk>
 80092ac:	1c43      	adds	r3, r0, #1
 80092ae:	d102      	bne.n	80092b6 <_sbrk_r+0x1a>
 80092b0:	682b      	ldr	r3, [r5, #0]
 80092b2:	b103      	cbz	r3, 80092b6 <_sbrk_r+0x1a>
 80092b4:	6023      	str	r3, [r4, #0]
 80092b6:	bd38      	pop	{r3, r4, r5, pc}
 80092b8:	20000de4 	.word	0x20000de4

080092bc <_raise_r>:
 80092bc:	291f      	cmp	r1, #31
 80092be:	b538      	push	{r3, r4, r5, lr}
 80092c0:	4604      	mov	r4, r0
 80092c2:	460d      	mov	r5, r1
 80092c4:	d904      	bls.n	80092d0 <_raise_r+0x14>
 80092c6:	2316      	movs	r3, #22
 80092c8:	6003      	str	r3, [r0, #0]
 80092ca:	f04f 30ff 	mov.w	r0, #4294967295
 80092ce:	bd38      	pop	{r3, r4, r5, pc}
 80092d0:	6c42      	ldr	r2, [r0, #68]	; 0x44
 80092d2:	b112      	cbz	r2, 80092da <_raise_r+0x1e>
 80092d4:	f852 3021 	ldr.w	r3, [r2, r1, lsl #2]
 80092d8:	b94b      	cbnz	r3, 80092ee <_raise_r+0x32>
 80092da:	4620      	mov	r0, r4
 80092dc:	f000 f830 	bl	8009340 <_getpid_r>
 80092e0:	462a      	mov	r2, r5
 80092e2:	4601      	mov	r1, r0
 80092e4:	4620      	mov	r0, r4
 80092e6:	e8bd 4038 	ldmia.w	sp!, {r3, r4, r5, lr}
 80092ea:	f000 b817 	b.w	800931c <_kill_r>
 80092ee:	2b01      	cmp	r3, #1
 80092f0:	d00a      	beq.n	8009308 <_raise_r+0x4c>
 80092f2:	1c59      	adds	r1, r3, #1
 80092f4:	d103      	bne.n	80092fe <_raise_r+0x42>
 80092f6:	2316      	movs	r3, #22
 80092f8:	6003      	str	r3, [r0, #0]
 80092fa:	2001      	movs	r0, #1
 80092fc:	e7e7      	b.n	80092ce <_raise_r+0x12>
 80092fe:	2400      	movs	r4, #0
 8009300:	4628      	mov	r0, r5
 8009302:	f842 4025 	str.w	r4, [r2, r5, lsl #2]
 8009306:	4798      	blx	r3
 8009308:	2000      	movs	r0, #0
 800930a:	e7e0      	b.n	80092ce <_raise_r+0x12>

0800930c <raise>:
 800930c:	4b02      	ldr	r3, [pc, #8]	; (8009318 <raise+0xc>)
 800930e:	4601      	mov	r1, r0
 8009310:	6818      	ldr	r0, [r3, #0]
 8009312:	f7ff bfd3 	b.w	80092bc <_raise_r>
 8009316:	bf00      	nop
 8009318:	20000184 	.word	0x20000184

0800931c <_kill_r>:
 800931c:	b538      	push	{r3, r4, r5, lr}
 800931e:	2300      	movs	r3, #0
 8009320:	4d06      	ldr	r5, [pc, #24]	; (800933c <_kill_r+0x20>)
 8009322:	4604      	mov	r4, r0
 8009324:	4608      	mov	r0, r1
 8009326:	4611      	mov	r1, r2
 8009328:	602b      	str	r3, [r5, #0]
 800932a:	f7f8 fe27 	bl	8001f7c <_kill>
 800932e:	1c43      	adds	r3, r0, #1
 8009330:	d102      	bne.n	8009338 <_kill_r+0x1c>
 8009332:	682b      	ldr	r3, [r5, #0]
 8009334:	b103      	cbz	r3, 8009338 <_kill_r+0x1c>
 8009336:	6023      	str	r3, [r4, #0]
 8009338:	bd38      	pop	{r3, r4, r5, pc}
 800933a:	bf00      	nop
 800933c:	20000de4 	.word	0x20000de4

08009340 <_getpid_r>:
 8009340:	f7f8 be1a 	b.w	8001f78 <_getpid>

08009344 <strcpy>:
 8009344:	4603      	mov	r3, r0
 8009346:	f811 2b01 	ldrb.w	r2, [r1], #1
 800934a:	f803 2b01 	strb.w	r2, [r3], #1
 800934e:	2a00      	cmp	r2, #0
 8009350:	d1f9      	bne.n	8009346 <strcpy+0x2>
 8009352:	4770      	bx	lr

08009354 <_strtol_l.isra.0>:
 8009354:	2b01      	cmp	r3, #1
 8009356:	e92d 47f0 	stmdb	sp!, {r4, r5, r6, r7, r8, r9, sl, lr}
 800935a:	4686      	mov	lr, r0
 800935c:	d001      	beq.n	8009362 <_strtol_l.isra.0+0xe>
 800935e:	2b24      	cmp	r3, #36	; 0x24
 8009360:	d906      	bls.n	8009370 <_strtol_l.isra.0+0x1c>
 8009362:	f7ff fe89 	bl	8009078 <__errno>
 8009366:	2316      	movs	r3, #22
 8009368:	6003      	str	r3, [r0, #0]
 800936a:	2000      	movs	r0, #0
 800936c:	e8bd 87f0 	ldmia.w	sp!, {r4, r5, r6, r7, r8, r9, sl, pc}
 8009370:	468c      	mov	ip, r1
 8009372:	4e3a      	ldr	r6, [pc, #232]	; (800945c <_strtol_l.isra.0+0x108>)
 8009374:	4660      	mov	r0, ip
 8009376:	f81c 4b01 	ldrb.w	r4, [ip], #1
 800937a:	5da5      	ldrb	r5, [r4, r6]
 800937c:	f015 0508 	ands.w	r5, r5, #8
 8009380:	d1f8      	bne.n	8009374 <_strtol_l.isra.0+0x20>
 8009382:	2c2d      	cmp	r4, #45	; 0x2d
 8009384:	d133      	bne.n	80093ee <_strtol_l.isra.0+0x9a>
 8009386:	f04f 0801 	mov.w	r8, #1
 800938a:	f89c 4000 	ldrb.w	r4, [ip]
 800938e:	f100 0c02 	add.w	ip, r0, #2
 8009392:	2b00      	cmp	r3, #0
 8009394:	d05d      	beq.n	8009452 <_strtol_l.isra.0+0xfe>
 8009396:	2b10      	cmp	r3, #16
 8009398:	d10c      	bne.n	80093b4 <_strtol_l.isra.0+0x60>
 800939a:	2c30      	cmp	r4, #48	; 0x30
 800939c:	d10a      	bne.n	80093b4 <_strtol_l.isra.0+0x60>
 800939e:	f89c 0000 	ldrb.w	r0, [ip]
 80093a2:	f000 00df 	and.w	r0, r0, #223	; 0xdf
 80093a6:	2858      	cmp	r0, #88	; 0x58
 80093a8:	d14e      	bne.n	8009448 <_strtol_l.isra.0+0xf4>
 80093aa:	2310      	movs	r3, #16
 80093ac:	f89c 4001 	ldrb.w	r4, [ip, #1]
 80093b0:	f10c 0c02 	add.w	ip, ip, #2
 80093b4:	2500      	movs	r5, #0
 80093b6:	f108 4700 	add.w	r7, r8, #2147483648	; 0x80000000
 80093ba:	3f01      	subs	r7, #1
 80093bc:	fbb7 f9f3 	udiv	r9, r7, r3
 80093c0:	4628      	mov	r0, r5
 80093c2:	fb03 7a19 	mls	sl, r3, r9, r7
 80093c6:	f1a4 0630 	sub.w	r6, r4, #48	; 0x30
 80093ca:	2e09      	cmp	r6, #9
 80093cc:	d818      	bhi.n	8009400 <_strtol_l.isra.0+0xac>
 80093ce:	4634      	mov	r4, r6
 80093d0:	42a3      	cmp	r3, r4
 80093d2:	dd24      	ble.n	800941e <_strtol_l.isra.0+0xca>
 80093d4:	2d00      	cmp	r5, #0
 80093d6:	db1f      	blt.n	8009418 <_strtol_l.isra.0+0xc4>
 80093d8:	4581      	cmp	r9, r0
 80093da:	d31d      	bcc.n	8009418 <_strtol_l.isra.0+0xc4>
 80093dc:	d101      	bne.n	80093e2 <_strtol_l.isra.0+0x8e>
 80093de:	45a2      	cmp	sl, r4
 80093e0:	db1a      	blt.n	8009418 <_strtol_l.isra.0+0xc4>
 80093e2:	2501      	movs	r5, #1
 80093e4:	fb00 4003 	mla	r0, r0, r3, r4
 80093e8:	f81c 4b01 	ldrb.w	r4, [ip], #1
 80093ec:	e7eb      	b.n	80093c6 <_strtol_l.isra.0+0x72>
 80093ee:	2c2b      	cmp	r4, #43	; 0x2b
 80093f0:	bf08      	it	eq
 80093f2:	f89c 4000 	ldrbeq.w	r4, [ip]
 80093f6:	46a8      	mov	r8, r5
 80093f8:	bf08      	it	eq
 80093fa:	f100 0c02 	addeq.w	ip, r0, #2
 80093fe:	e7c8      	b.n	8009392 <_strtol_l.isra.0+0x3e>
 8009400:	f1a4 0641 	sub.w	r6, r4, #65	; 0x41
 8009404:	2e19      	cmp	r6, #25
 8009406:	d801      	bhi.n	800940c <_strtol_l.isra.0+0xb8>
 8009408:	3c37      	subs	r4, #55	; 0x37
 800940a:	e7e1      	b.n	80093d0 <_strtol_l.isra.0+0x7c>
 800940c:	f1a4 0661 	sub.w	r6, r4, #97	; 0x61
 8009410:	2e19      	cmp	r6, #25
 8009412:	d804      	bhi.n	800941e <_strtol_l.isra.0+0xca>
 8009414:	3c57      	subs	r4, #87	; 0x57
 8009416:	e7db      	b.n	80093d0 <_strtol_l.isra.0+0x7c>
 8009418:	f04f 35ff 	mov.w	r5, #4294967295
 800941c:	e7e4      	b.n	80093e8 <_strtol_l.isra.0+0x94>
 800941e:	2d00      	cmp	r5, #0
 8009420:	da08      	bge.n	8009434 <_strtol_l.isra.0+0xe0>
 8009422:	2322      	movs	r3, #34	; 0x22
 8009424:	4638      	mov	r0, r7
 8009426:	f8ce 3000 	str.w	r3, [lr]
 800942a:	2a00      	cmp	r2, #0
 800942c:	d09e      	beq.n	800936c <_strtol_l.isra.0+0x18>
 800942e:	f10c 31ff 	add.w	r1, ip, #4294967295
 8009432:	e007      	b.n	8009444 <_strtol_l.isra.0+0xf0>
 8009434:	f1b8 0f00 	cmp.w	r8, #0
 8009438:	d000      	beq.n	800943c <_strtol_l.isra.0+0xe8>
 800943a:	4240      	negs	r0, r0
 800943c:	2a00      	cmp	r2, #0
 800943e:	d095      	beq.n	800936c <_strtol_l.isra.0+0x18>
 8009440:	2d00      	cmp	r5, #0
 8009442:	d1f4      	bne.n	800942e <_strtol_l.isra.0+0xda>
 8009444:	6011      	str	r1, [r2, #0]
 8009446:	e791      	b.n	800936c <_strtol_l.isra.0+0x18>
 8009448:	2430      	movs	r4, #48	; 0x30
 800944a:	2b00      	cmp	r3, #0
 800944c:	d1b2      	bne.n	80093b4 <_strtol_l.isra.0+0x60>
 800944e:	2308      	movs	r3, #8
 8009450:	e7b0      	b.n	80093b4 <_strtol_l.isra.0+0x60>
 8009452:	2c30      	cmp	r4, #48	; 0x30
 8009454:	d0a3      	beq.n	800939e <_strtol_l.isra.0+0x4a>
 8009456:	230a      	movs	r3, #10
 8009458:	e7ac      	b.n	80093b4 <_strtol_l.isra.0+0x60>
 800945a:	bf00      	nop
 800945c:	08009863 	.word	0x08009863

08009460 <strtol>:
 8009460:	4613      	mov	r3, r2
 8009462:	460a      	mov	r2, r1
 8009464:	4601      	mov	r1, r0
 8009466:	4802      	ldr	r0, [pc, #8]	; (8009470 <strtol+0x10>)
 8009468:	6800      	ldr	r0, [r0, #0]
 800946a:	f7ff bf73 	b.w	8009354 <_strtol_l.isra.0>
 800946e:	bf00      	nop
 8009470:	20000184 	.word	0x20000184

08009474 <__malloc_lock>:
 8009474:	4801      	ldr	r0, [pc, #4]	; (800947c <__malloc_lock+0x8>)
 8009476:	f000 b809 	b.w	800948c <__retarget_lock_acquire_recursive>
 800947a:	bf00      	nop
 800947c:	20000dec 	.word	0x20000dec

08009480 <__malloc_unlock>:
 8009480:	4801      	ldr	r0, [pc, #4]	; (8009488 <__malloc_unlock+0x8>)
 8009482:	f000 b804 	b.w	800948e <__retarget_lock_release_recursive>
 8009486:	bf00      	nop
 8009488:	20000dec 	.word	0x20000dec

0800948c <__retarget_lock_acquire_recursive>:
 800948c:	4770      	bx	lr

0800948e <__retarget_lock_release_recursive>:
 800948e:	4770      	bx	lr

08009490 <_init>:
 8009490:	b5f8      	push	{r3, r4, r5, r6, r7, lr}
 8009492:	bf00      	nop
 8009494:	bcf8      	pop	{r3, r4, r5, r6, r7}
 8009496:	bc08      	pop	{r3}
 8009498:	469e      	mov	lr, r3
 800949a:	4770      	bx	lr

0800949c <_fini>:
 800949c:	b5f8      	push	{r3, r4, r5, r6, r7, lr}
 800949e:	bf00      	nop
 80094a0:	bcf8      	pop	{r3, r4, r5, r6, r7}
 80094a2:	bc08      	pop	{r3}
 80094a4:	469e      	mov	lr, r3
 80094a6:	4770      	bx	lr
